 mupakk

 Timestamp is 5dfd644a (Sat Dec 21 11:16:10 2019)

 Preferred load address is 00400000

 Start         Length     Name                   Class
 0001:00000000 00000220H .text$di                CODE
 0001:00000220 000a1adaH .text$mn                CODE
 0001:000a1cfa 000025f6H .text$x                 CODE
 0001:000a42f0 00000136H .text$yd                CODE
 0002:00000000 00000384H .idata$5                DATA
 0002:00000384 00000004H .00cfg                  DATA
 0002:00000388 00000004H .CRT$XCA                DATA
 0002:0000038c 00000004H .CRT$XCAA               DATA
 0002:00000390 0000001cH .CRT$XCC                DATA
 0002:000003ac 0000000cH .CRT$XCL                DATA
 0002:000003b8 00000014H .CRT$XCU                DATA
 0002:000003cc 00000004H .CRT$XCZ                DATA
 0002:000003d0 00000004H .CRT$XIA                DATA
 0002:000003d4 00000004H .CRT$XIAA               DATA
 0002:000003d8 00000004H .CRT$XIAC               DATA
 0002:000003dc 00000014H .CRT$XIC                DATA
 0002:000003f0 00000004H .CRT$XIZ                DATA
 0002:000003f4 00000004H .CRT$XPA                DATA
 0002:000003f8 00000008H .CRT$XPX                DATA
 0002:00000400 00000004H .CRT$XPXA               DATA
 0002:00000404 00000004H .CRT$XPZ                DATA
 0002:00000408 00000004H .CRT$XTA                DATA
 0002:0000040c 00000004H .CRT$XTZ                DATA
 0002:00000410 00000000H .gfids$y                DATA
 0002:00000410 000141fcH .rdata                  DATA
 0002:0001460c 00002fbcH .rdata$r                DATA
 0002:000175c8 000003a0H .rdata$zzzdbg           DATA
 0002:00017968 00000004H .rtc$IAA                DATA
 0002:0001796c 00000004H .rtc$IZZ                DATA
 0002:00017970 00000004H .rtc$TAA                DATA
 0002:00017974 00000004H .rtc$TZZ                DATA
 0002:00017978 0000488cH .xdata$x                DATA
 0002:0001c204 00000004H ATL$__a                 DATA
 0002:0001c208 00000008H ATL$__z                 DATA
 0002:0001c210 00000074H .edata                  DATA
 0002:0001c284 000000a0H .idata$2                DATA
 0002:0001c324 00000014H .idata$3                DATA
 0002:0001c338 00000384H .idata$4                DATA
 0002:0001c6bc 00000f2aH .idata$6                DATA
 0003:00000000 00000c30H .data                   DATA
 0003:00000c30 00001d90H .data$r                 DATA
 0003:000029c0 000021e8H .bss                    DATA
 0004:00000000 000005a0H .rsrc$01                DATA
 0004:000005a0 0001bbb8H .rsrc$02                DATA

  Address         Publics by Value              Rva+Base       Lib:Object

 0000:00000000       ___guard_fids_table        00000000     <absolute>
 0000:00000000       ___guard_iat_table         00000000     <absolute>
 0000:00000000       ___hybrid_code_map         00000000     <absolute>
 0000:00000000       ___safe_se_handler_table   00000000     <absolute>
 0000:00000000       __except_list              00000000     <absolute>
 0000:00000000       ___guard_iat_count         00000000     <absolute>
 0000:00000000       ___guard_fids_count        00000000     <absolute>
 0000:00000000       ___enclave_config          00000000     <absolute>
 0000:00000000       ___volatile_metadata       00000000     <absolute>
 0000:00000000       ___guard_longjmp_count     00000000     <absolute>
 0000:00000000       ___hybrid_code_map_count   00000000     <absolute>
 0000:00000000       ___dynamic_value_reloc_table 00000000     <absolute>
 0000:00000000       ___AbsoluteZero            00000000     <absolute>
 0000:00000000       ___hybrid_auxiliary_iat    00000000     <absolute>
 0000:00000000       ___safe_se_handler_count   00000000     <absolute>
 0000:00000000       ___guard_longjmp_table     00000000     <absolute>
 0000:00000100       ___guard_flags             00000100     <absolute>
 0000:00000000       ___ImageBase               00400000     <linker-defined>
 0001:000002a4       _blz_max_packed_size@4     004012a4 f   brieflz.obj
 0001:000002fa       _blz_pack@16               004012fa f   brieflz.obj
 0001:00000f8c       _blz_pack_level@20         00401f8c f   brieflz.obj
 0001:000014e5       _blz_workmem_size@4        004024e5 f   brieflz.obj
 0001:000014ed       _blz_workmem_size_level@8  004024ed f   brieflz.obj
 0001:00001548       ?DecodeBit@@YGCPAUDepackState@@HH@Z 00402548 f   depacker_simple.obj
 0001:000015cc       ?DecodeGamma@@YGHPAUDepackState@@H@Z 004025cc f   depacker_simple.obj
 0001:00001622       ?DecodeTree@@YGHPAUDepackState@@HHH@Z 00402622 f   depacker_simple.obj
 0001:00001657       ?KKrunchyDepacker@@YGIPAEPBE@Z 00402657 f   depacker_simple.obj
 0001:00001789       ??0BestPackerFrontEnd@@QAE@PAVPackerBackEnd@@@Z 00402789 f   frpacker.obj
 0001:0000179b       ??0GoodPackerFrontEnd@@QAE@PAVPackerBackEnd@@@Z 0040279b f   frpacker.obj
 0001:000017ad       ??0PackerFrontEnd@@QAE@PAVPackerBackEnd@@@Z 004027ad f   frpacker.obj
 0001:000017bf       ??1PackerFrontEnd@@UAE@XZ  004027bf f   frpacker.obj
 0001:000017d1       ??_GBestPackerFrontEnd@@UAEPAXI@Z 004027d1 f i frpacker.obj
 0001:000017d1       ??_EBestPackerFrontEnd@@UAEPAXI@Z 004027d1 f i frpacker.obj
 0001:000017fc       ??_EGoodPackerFrontEnd@@UAEPAXI@Z 004027fc f i frpacker.obj
 0001:000017fc       ??_GGoodPackerFrontEnd@@UAEPAXI@Z 004027fc f i frpacker.obj
 0001:00001827       ??_GPackerFrontEnd@@UAEPAXI@Z 00402827 f i frpacker.obj
 0001:00001827       ??_EPackerFrontEnd@@UAEPAXI@Z 00402827 f i frpacker.obj
 0001:00001852       ?Decode@RangeCoder@@QAEXII@Z 00402852 f   frpacker.obj
 0001:000018b6       ?Decode@RangeModel@@QAEHAAVRangeCoder@@@Z 004028b6 f   frpacker.obj
 0001:00001911       ?DecodePlain@RangeCoder@@QAEII@Z 00402911 f   frpacker.obj
 0001:00001939       ?DoPack@BestPackerFrontEnd@@MAEXP6GXIII@Z@Z 00402939 f   frpacker.obj
 0001:00001d88       ?DoPack@GoodPackerFrontEnd@@MAEXP6GXIII@Z@Z 00402d88 f   frpacker.obj
 0001:0000212a       ?Encode@BitModel@@QAEMAAVCarryRangeCoder@@C@Z 0040312a f   frpacker.obj
 0001:00002171       ?Encode@GammaModel@@QAEMAAVCarryRangeCoder@@H@Z 00403171 f   frpacker.obj
 0001:000021e8       ?Encode@RangeCoder@@QAEXIII@Z 004031e8 f   frpacker.obj
 0001:00002246       ?Encode@RangeModel@@QAEMAAVRangeCoder@@H@Z 00403246 f   frpacker.obj
 0001:000022b9       ?EncodeBit@CarryRangeCoder@@QAEXIC@Z 004032b9 f   frpacker.obj
 0001:000022fc       ?EncodeEnd@CCAPackerBackEnd@@UAEXPAM@Z 004032fc f   frpacker.obj
 0001:000023a8       ?EncodeGamma@CCAPackerBackEnd@@AAEMHI@Z 004033a8 f   frpacker.obj
 0001:00002441       ?EncodeLiteral@CCAPackerBackEnd@@UAEXII@Z 00403441 f   frpacker.obj
 0001:000024fa       ?EncodeMatch@CCAPackerBackEnd@@UAEXII@Z 004034fa f   frpacker.obj
 0001:000026a9       ?EncodePlain@RangeCoder@@QAEXII@Z 004036a9 f   frpacker.obj
 0001:000026bb       ?EncodeStart@CCAPackerBackEnd@@UAEIPAEPBEPAM@Z 004036bb f   frpacker.obj
 0001:00002875       ?FindMatch@GoodPackerFrontEnd@@AAEXAAUMatch@1@II@Z 00403875 f   frpacker.obj
 0001:00002a85       ?FindPrevOffset@PackerBackEnd@@QBEHI@Z 00403a85 f   frpacker.obj
 0001:00002aaa       ?FinishEncode@BitBuffer@@QAEXXZ 00403aaa f   frpacker.obj
 0001:00002abb       ?FinishEncode@CarryRangeCoder@@QAEXXZ 00403abb f   frpacker.obj
 0001:00002ad1       ?FinishEncode@RangeCoder@@QAEXXZ 00403ad1 f   frpacker.obj
 0001:00002af0       ?FlushAhead@GoodPackerFrontEnd@@AAEXM@Z 00403af0 f   frpacker.obj
 0001:00002b4e       ?GetBackEnd@PackerFrontEnd@@UAEPAVPackerBackEnd@@XZ 00403b4e f   frpacker.obj
 0001:00002b52       ?GetBits@BitModel@@QBEMC@Z 00403b52 f   frpacker.obj
 0001:00002bac       ?GetBits@GammaModel@@QBEMH@Z 00403bac f   frpacker.obj
 0001:00002c1e       ?GetCurrentSize@CCAPackerBackEnd@@UAEIXZ 00403c1e f   frpacker.obj
 0001:00002c25       ?GetFreq@RangeCoder@@QAEII@Z 00403c25 f   frpacker.obj
 0001:00002c41       ?Init@BitModel@@QAEXH@Z    00403c41 f   frpacker.obj
 0001:00002cba       ?Init@GammaModel@@QAEXH@Z  00403cba f   frpacker.obj
 0001:00002ce6       ?Init@RangeModel@@QAEXHH@Z 00403ce6 f   frpacker.obj
 0001:00002d3b       ?InitDecode@RangeCoder@@QAEXPAE@Z 00403d3b f   frpacker.obj
 0001:00002d73       ?InitEncode@BitBuffer@@QAEXPAE@Z 00403d73 f   frpacker.obj
 0001:00002d8b       ?InitEncode@CarryRangeCoder@@QAEXPAE@Z 00403d8b f   frpacker.obj
 0001:00002dad       ?InitEncode@RangeCoder@@QAEXPAE@Z 00403dad f   frpacker.obj
 0001:00002dc2       ?InitPrevOffset@PackerBackEnd@@QAEXH@Z 00403dc2 f   frpacker.obj
 0001:00002de1       ?LiteralLen@CCAPackerBackEnd@@UAEMII@Z 00403de1 f   frpacker.obj
 0001:00002e8c       ?MatchLen@CCAPackerBackEnd@@UAEMIII@Z 00403e8c f   frpacker.obj
 0001:00002fba       ?MaxOutputSize@CCAPackerBackEnd@@UAEII@Z 00403fba f   frpacker.obj
 0001:00002fcd       ?MaxOutputSize@PackerFrontEnd@@UAEII@Z 00403fcd f   frpacker.obj
 0001:00002fd4       ?NewPrevOffset@PackerBackEnd@@QAEXI@Z 00403fd4 f   frpacker.obj
 0001:0000300c       ?Pack@PackerFrontEnd@@UAEIPBEIPAEP6GXIII@ZH@Z 0040400c f   frpacker.obj
 0001:0000319b       ?PutBit@BitBuffer@@QAEXC@Z 0040419b f   frpacker.obj
 0001:000031d4       ?PutByte@BitBuffer@@QAEXE@Z 004041d4 f   frpacker.obj
 0001:000031e8       ?RealGammaLen@CCAPackerBackEnd@@AAEMHI@Z 004041e8 f   frpacker.obj
 0001:00003263       ?ShiftLow@CarryRangeCoder@@QAEXXZ 00404263 f   frpacker.obj
 0001:000032d6       ?TryBetterAhead@GoodPackerFrontEnd@@AAEXXZ 004042d6 f   frpacker.obj
 0001:00003335       ?Update@RangeModel@@QAEXH@Z 00404335 f   frpacker.obj
 0001:000033a1       _compress_fr@12            004043a1 f   frpacker.obj
 0001:0000352c       _Bt3Zip_MatchFinder_GetMatches@8 0040452c f   LzFind.obj
 0001:000035af       _Bt3Zip_MatchFinder_Skip@8 004045af f   LzFind.obj
 0001:00003a7f       _GetMatchesSpec1@40        00404a7f f   LzFind.obj
 0001:00003bcb       _Hc3Zip_MatchFinder_GetMatches@8 00404bcb f   LzFind.obj
 0001:00003c4e       _Hc3Zip_MatchFinder_Skip@8 00404c4e f   LzFind.obj
 0001:00004092       _MatchFinder_Construct@4   00405092 f   LzFind.obj
 0001:000040eb       _MatchFinder_Create@24     004050eb f   LzFind.obj
 0001:00004254       _MatchFinder_CreateVTable@8 00405254 f   LzFind.obj
 0001:000042c0       _MatchFinder_Free@8        004052c0 f   LzFind.obj
 0001:000042eb       _MatchFinder_GetIndexByte@8 004052eb f   LzFind.obj
 0001:000042fb       _MatchFinder_GetNumAvailableBytes@4 004052fb f   LzFind.obj
 0001:00004308       _MatchFinder_GetPointerToCurrentPos@4 00405308 f   LzFind.obj
 0001:00004311       _MatchFinder_Init@4        00405311 f   LzFind.obj
 0001:00004352       _MatchFinder_MoveBlock@4   00405352 f   LzFind.obj
 0001:0000439b       _MatchFinder_NeedMove@4    0040539b f   LzFind.obj
 0001:000043b0       _MatchFinder_Normalize3@12 004053b0 f   LzFind.obj
 0001:0000444d       _MatchFinder_ReadIfRequired@4 0040544d f   LzFind.obj
 0001:0000446b       _MatchFinder_ReduceOffsets@8 0040546b f   LzFind.obj
 0001:000045c4       ?Alloc@@YGPAXPAXI@Z        004055c4 f   lzma.obj
 0001:000045d1       ?Free@@YGXPAX0@Z           004055d1 f   lzma.obj
 0001:000045e5       ?Load_Input_File@@YGPAEPADPAK@Z 004055e5 f   lzma.obj
 0001:00004659       _compress_lzma@12          00405659 f   lzma.obj
 0001:00006299       _LzmaEncProps_GetDictSize@4 00407299 f   LzmaEnc.obj
 0001:000062be       _LzmaEncProps_Init@4       004072be f   LzmaEnc.obj
 0001:000062f1       _LzmaEncProps_Normalize@4  004072f1 f   LzmaEnc.obj
 0001:00006a95       _LzmaEnc_CodeOneMemBlock@24 00407a95 f   LzmaEnc.obj
 0001:00006b39       _LzmaEnc_Construct@4       00407b39 f   LzmaEnc.obj
 0001:00006b98       _LzmaEnc_Create@4          00407b98 f   LzmaEnc.obj
 0001:00006bb7       _LzmaEnc_Destroy@12        00407bb7 f   LzmaEnc.obj
 0001:00006bd6       _LzmaEnc_Destruct@12       00407bd6 f   LzmaEnc.obj
 0001:00006c0a       _LzmaEnc_Encode@24         00407c0a f   LzmaEnc.obj
 0001:00006ca7       _LzmaEnc_FastPosInit@4     00407ca7 f   LzmaEnc.obj
 0001:00006ce5       _LzmaEnc_Finish@4          00407ce5 f   LzmaEnc.obj
 0001:00006ce8       _LzmaEnc_FreeLits@8        00407ce8 f   LzmaEnc.obj
 0001:00006d19       _LzmaEnc_GetCurBuf@4       00407d19 f   LzmaEnc.obj
 0001:00006d2e       _LzmaEnc_GetNumAvailableBytes@4 00407d2e f   LzmaEnc.obj
 0001:00006d3b       _LzmaEnc_Init@4            00407d3b f   LzmaEnc.obj
 0001:00006e86       _LzmaEnc_InitPriceTables@4 00407e86 f   LzmaEnc.obj
 0001:00006ed1       _LzmaEnc_InitPrices@4      00407ed1 f   LzmaEnc.obj
 0001:00006f3d       _LzmaEnc_MemEncode@36      00407f3d f   LzmaEnc.obj
 0001:00006faf       _LzmaEnc_MemPrepare@24     00407faf f   LzmaEnc.obj
 0001:00006fec       _LzmaEnc_PrepareForLzma2@20 00407fec f   LzmaEnc.obj
 0001:0000700e       _LzmaEnc_RestoreState@4    0040800e f   LzmaEnc.obj
 0001:0000714c       _LzmaEnc_SaveState@4       0040814c f   LzmaEnc.obj
 0001:0000728a       _LzmaEnc_SetProps@8        0040828a f   LzmaEnc.obj
 0001:0000738c       _LzmaEnc_WriteProperties@12 0040838c f   LzmaEnc.obj
 0001:00007402       _LzmaEncode@44             00408402 f   LzmaEnc.obj
 0001:00007849       ??$_Allocate@$07U_Default_allocate_traits@std@@$0A@@std@@YGPAXI@Z 00408849 f i entropy.obj
 0001:0000786e       ??$_Allocate_manually_vector_aligned@U_Default_allocate_traits@std@@@std@@YGPAXI@Z 0040886e f i entropy.obj
 0001:0000789d       ??$_Construct_in_place@PADABQAD@std@@YGXAAPADABQAD@Z 0040889d f i entropy.obj
 0001:000078ac       ??$_Deallocate@$07$0A@@std@@YGXPAXI@Z 004088ac f i entropy.obj
 0001:000078d8       ??$_Destroy_in_place@PAD@std@@YGXAAPAD@Z 004088d8 f i entropy.obj
 0001:000078db       ??$_Immortalize@V_Iostream_error_category@std@@@std@@YGAAV_Iostream_error_category@0@XZ 004088db f i entropy.obj
 0001:00007902       ??$_Immortalize_impl@V_Iostream_error_category@std@@@std@@YGHPAX0PAPAX@Z 00408902 f i entropy.obj
 0001:00007919       ??$_Reallocate_for@V<lambda_9366063389c5f42a00a5088cf24e69de>@@PBD@?$basic_string@DU?$char_traits@D@std@@V?$allocator@D@2@@std@@AAEAAV01@IV<lambda_9366063389c5f42a00a5088cf24e69de>@@PBD@Z 00408919 f i entropy.obj
 0001:00007983       ??$_Reallocate_grow_by@V<lambda_ab246b20b9526e2ef7792587e4298a77>@@PBDI@?$basic_string@DU?$char_traits@D@std@@V?$allocator@D@2@@std@@AAEAAV01@IV<lambda_ab246b20b9526e2ef7792587e4298a77>@@PBDI@Z 00408983 f i entropy.obj
 0001:00007a34       ??$exchange@PAV_Facet_base@std@@PAV12@@std@@YGPAV_Facet_base@0@AAPAV10@$$QAPAV10@@Z 00408a34 f i entropy.obj
 0001:00007a45       ??$use_facet@V?$ctype@D@std@@@std@@YAABV?$ctype@D@0@ABVlocale@0@@Z 00408a45 f i entropy.obj
 0001:00007abe       ??0?$basic_string@DU?$char_traits@D@std@@V?$allocator@D@2@@std@@QAE@$$QAV01@@Z 00408abe f i entropy.obj
 0001:00007aec       ??0?$basic_string@DU?$char_traits@D@std@@V?$allocator@D@2@@std@@QAE@QBD@Z 00408aec f i entropy.obj
 0001:00007b0c       ??0?$ctype@D@std@@QAE@ABV_Locinfo@1@I@Z 00408b0c f i entropy.obj
 0001:00007b3f       ??0_Locinfo@std@@QAE@PBD@Z 00408b3f f i entropy.obj
 0001:00007b97       ??0_Sentry_base@?$basic_ostream@DU?$char_traits@D@std@@@std@@QAE@AAV12@@Z 00408b97 f i entropy.obj
 0001:00007bb8       ??0_System_error@std@@IAE@Verror_code@1@ABV?$basic_string@DU?$char_traits@D@std@@V?$allocator@D@2@@1@@Z 00408bb8 f i entropy.obj
 0001:00007c0e       ??0_System_error@std@@QAE@ABV01@@Z 00408c0e f i entropy.obj
 0001:00007c35       ??0bad_alloc@std@@QAE@ABV01@@Z 00408c35 f i entropy.obj
 0001:00007c4d       ??0bad_array_new_length@std@@QAE@ABV01@@Z 00408c4d f i entropy.obj
 0001:00007c65       ??0bad_array_new_length@std@@QAE@XZ 00408c65 f i entropy.obj
 0001:00007c7d       ??0bad_cast@std@@QAE@ABV01@@Z 00408c7d f i entropy.obj
 0001:00007c95       ??0bad_cast@std@@QAE@XZ    00408c95 f i entropy.obj
 0001:00007cad       ??0exception@std@@QAE@ABV01@@Z 00408cad f i entropy.obj
 0001:00007cd6       ??0exception@std@@QAE@QBD@Z 00408cd6 f i entropy.obj
 0001:00007d0b       ??0failure@ios_base@std@@QAE@ABV012@@Z 00408d0b f i entropy.obj
 0001:00007d23       ??0failure@ios_base@std@@QAE@PBDABVerror_code@2@@Z 00408d23 f i entropy.obj
 0001:00007d44       ??0pe_exception@pe_bliss@@QAE@ABV01@@Z 00408d44 f i entropy.obj
 0001:00007d65       ??0runtime_error@std@@QAE@ABV01@@Z 00408d65 f i entropy.obj
 0001:00007d7d       ??0runtime_error@std@@QAE@ABV?$basic_string@DU?$char_traits@D@std@@V?$allocator@D@2@@1@@Z 00408d7d f i entropy.obj
 0001:00007d9e       ??0sentry@?$basic_ostream@DU?$char_traits@D@std@@@std@@QAE@AAV12@@Z 00408d9e f i entropy.obj
 0001:00007de6       ??0system_error@std@@QAE@ABV01@@Z 00408de6 f i entropy.obj
 0001:00007dfe       ??0system_error@std@@QAE@Verror_code@1@PBD@Z 00408dfe f i entropy.obj
 0001:00007e84       ??1?$ctype@D@std@@MAE@XZ   00408e84 f i entropy.obj
 0001:00007e9a       ??1_Facet_base@std@@UAE@XZ 00408e9a f i entropy.obj
 0001:00007ea1       ??1_Locinfo@std@@QAE@XZ    00408ea1 f i entropy.obj
 0001:00007f1e       ??1_Sentry_base@?$basic_ostream@DU?$char_traits@D@std@@@std@@QAE@XZ 00408f1e f i entropy.obj
 0001:00007f33       ??1bad_array_new_length@std@@UAE@XZ 00408f33 f i entropy.obj
 0001:00007f44       ??1bad_cast@std@@UAE@XZ    00408f44 f i entropy.obj
 0001:00007f55       ??1error_category@std@@UAE@XZ 00408f55 f i entropy.obj
 0001:00007f56       ??1exception@std@@UAE@XZ   00408f56 f i entropy.obj
 0001:00007f67       ??1facet@locale@std@@MAE@XZ 00408f67 f i entropy.obj
 0001:00007f6e       ??1failure@ios_base@std@@UAE@XZ 00408f6e f i entropy.obj
 0001:00007f7f       ??1locale@std@@QAE@XZ      00408f7f f i entropy.obj
 0001:00007f98       ??1pe_exception@pe_bliss@@UAE@XZ 00408f98 f i entropy.obj
 0001:00007fa9       ??1sentry@?$basic_ostream@DU?$char_traits@D@std@@@std@@QAE@XZ 00408fa9 f i entropy.obj
 0001:00007fc4       ??1system_error@std@@UAE@XZ 00408fc4 f i entropy.obj
 0001:00007fd5       ??8std@@YG_NABVerror_condition@0@0@Z 00408fd5 f i entropy.obj
 0001:00007ffc       ??Bid@locale@std@@QAEIXZ   00408ffc f i entropy.obj
 0001:00008031       ??_E?$ctype@D@std@@MAEPAXI@Z 00409031 f i entropy.obj
 0001:00008031       ??_G?$ctype@D@std@@MAEPAXI@Z 00409031 f i entropy.obj
 0001:0000805c       ??_E_Facet_base@std@@UAEPAXI@Z 0040905c f i entropy.obj
 0001:0000805c       ??_G_Facet_base@std@@UAEPAXI@Z 0040905c f i entropy.obj
 0001:0000807c       ??_G_Generic_error_category@std@@UAEPAXI@Z 0040907c f i entropy.obj
 0001:0000807c       ??_E_Generic_error_category@std@@UAEPAXI@Z 0040907c f i entropy.obj
 0001:00008096       ??_G_Iostream_error_category@std@@UAEPAXI@Z 00409096 f i entropy.obj
 0001:00008096       ??_E_Iostream_error_category@std@@UAEPAXI@Z 00409096 f i entropy.obj
 0001:000080b0       ??_G_System_error@std@@UAEPAXI@Z 004090b0 f i entropy.obj
 0001:000080b0       ??_E_System_error@std@@UAEPAXI@Z 004090b0 f i entropy.obj
 0001:000080da       ??_Ebad_alloc@std@@UAEPAXI@Z 004090da f i entropy.obj
 0001:000080da       ??_Gbad_alloc@std@@UAEPAXI@Z 004090da f i entropy.obj
 0001:00008104       ??_Gbad_array_new_length@std@@UAEPAXI@Z 00409104 f i entropy.obj
 0001:00008104       ??_Ebad_array_new_length@std@@UAEPAXI@Z 00409104 f i entropy.obj
 0001:0000812e       ??_Ebad_cast@std@@UAEPAXI@Z 0040912e f i entropy.obj
 0001:0000812e       ??_Gbad_cast@std@@UAEPAXI@Z 0040912e f i entropy.obj
 0001:00008158       ??_Gctype_base@std@@UAEPAXI@Z 00409158 f i entropy.obj
 0001:00008158       ??_Ectype_base@std@@UAEPAXI@Z 00409158 f i entropy.obj
 0001:00008178       ??_Eexception@std@@UAEPAXI@Z 00409178 f i entropy.obj
 0001:00008178       ??_Gexception@std@@UAEPAXI@Z 00409178 f i entropy.obj
 0001:000081a2       ??_Efacet@locale@std@@MAEPAXI@Z 004091a2 f i entropy.obj
 0001:000081a2       ??_Gfacet@locale@std@@MAEPAXI@Z 004091a2 f i entropy.obj
 0001:000081c2       ??_Efailure@ios_base@std@@UAEPAXI@Z 004091c2 f i entropy.obj
 0001:000081c2       ??_Gfailure@ios_base@std@@UAEPAXI@Z 004091c2 f i entropy.obj
 0001:000081ec       ??_Epe_exception@pe_bliss@@UAEPAXI@Z 004091ec f i entropy.obj
 0001:000081ec       ??_Gpe_exception@pe_bliss@@UAEPAXI@Z 004091ec f i entropy.obj
 0001:00008216       ??_Gruntime_error@std@@UAEPAXI@Z 00409216 f i entropy.obj
 0001:00008216       ??_Eruntime_error@std@@UAEPAXI@Z 00409216 f i entropy.obj
 0001:00008240       ??_Gsystem_error@std@@UAEPAXI@Z 00409240 f i entropy.obj
 0001:00008240       ??_Esystem_error@std@@UAEPAXI@Z 00409240 f i entropy.obj
 0001:0000826a       ?_Adjust_manually_vector_aligned@std@@YGXAAPAXAAI@Z 0040926a f i entropy.obj
 0001:0000828f       ?_Calculate_growth@?$basic_string@DU?$char_traits@D@std@@V?$allocator@D@2@@std@@CGIIII@Z 0040928f f i entropy.obj
 0001:000082c2       ?_Construct_lv_contents@?$basic_string@DU?$char_traits@D@std@@V?$allocator@D@2@@std@@AAEXABV12@@Z 004092c2 f i entropy.obj
 0001:0000831c       ?_Decref@facet@locale@std@@UAEPAV_Facet_base@3@XZ 0040931c f i entropy.obj
 0001:0000832b       ?_Getcat@?$ctype@D@std@@SAIPAPBVfacet@locale@2@PBV42@@Z 0040932b f i entropy.obj
 0001:00008388       ?_Getfacet@locale@std@@QBEPBVfacet@12@I@Z 00409388 f i entropy.obj
 0001:000083c0       ?_Incref@facet@locale@std@@UAEXXZ 004093c0 f i entropy.obj
 0001:000083c5       ?_Ipfx@?$basic_istream@DU?$char_traits@D@std@@@std@@QAE_N_N@Z 004093c5 f i entropy.obj
 0001:00008510       ?_Makestr@_System_error@std@@CG?AV?$basic_string@DU?$char_traits@D@std@@V?$allocator@D@2@@2@Verror_code@2@V32@@Z 00409510 f i entropy.obj
 0001:00008574       ?_Osfx@?$basic_ostream@DU?$char_traits@D@std@@@std@@QAEXXZ 00409574 f i entropy.obj
 0001:000085da       ?_Throw_bad_array_new_length@std@@YGXXZ 004095da f i entropy.obj
 0001:000085f7       ?_Throw_bad_cast@std@@YGXXZ 004095f7 f i entropy.obj
 0001:00008614       ?_Tidy@?$ctype@D@std@@IAEXXZ 00409614 f i entropy.obj
 0001:0000863e       ?_Tidy_deallocate@?$basic_string@DU?$char_traits@D@std@@V?$allocator@D@2@@std@@AAEXXZ 0040963e f i entropy.obj
 0001:00008662       ?_Xlen@?$basic_string@DU?$char_traits@D@std@@V?$allocator@D@2@@std@@CGXXZ 00409662 f i entropy.obj
 0001:0000866d       ?append@?$basic_string@DU?$char_traits@D@std@@V?$allocator@D@2@@std@@QAEAAV12@QBDI@Z 0040966d f i entropy.obj
 0001:000086c6       ?assign@?$basic_string@DU?$char_traits@D@std@@V?$allocator@D@2@@std@@QAEAAV12@QBD@Z 004096c6 f i entropy.obj
 0001:000086e5       ?assign@?$basic_string@DU?$char_traits@D@std@@V?$allocator@D@2@@std@@QAEAAV12@QBDI@Z 004096e5 f i entropy.obj
 0001:0000872e       ?c_str@locale@std@@QBEPBDXZ 0040972e f i entropy.obj
 0001:00008746       ?calculate_entropy@entropy_calculator@pe_bliss@@CGNQBI_J@Z 00409746 f   entropy.obj
 0001:000087de       ?calculate_entropy@entropy_calculator@pe_bliss@@SGNAAV?$basic_istream@DU?$char_traits@D@std@@@std@@@Z 004097de f   entropy.obj
 0001:00008915       ?calculate_entropy@entropy_calculator@pe_bliss@@SGNABVpe_base@2@@Z 00409915 f   entropy.obj
 0001:000089a4       ?calculate_entropy@entropy_calculator@pe_bliss@@SGNABVsection@2@@Z 004099a4 f   entropy.obj
 0001:000089ff       ?calculate_entropy@entropy_calculator@pe_bliss@@SGNPBDI@Z 004099ff f   entropy.obj
 0001:00008a6d       ?clear@ios_base@std@@QAEXH_N@Z 00409a6d f i entropy.obj
 0001:00008ad5       ?default_error_condition@error_category@std@@UBE?AVerror_condition@2@H@Z 00409ad5 f i entropy.obj
 0001:00008ae5       ?do_narrow@?$ctype@D@std@@MBEDDD@Z 00409ae5 f i entropy.obj
 0001:00008aec       ?do_narrow@?$ctype@D@std@@MBEPBDPBD0DPAD@Z 00409aec f i entropy.obj
 0001:00008b0b       ?do_tolower@?$ctype@D@std@@MBEDD@Z 00409b0b f i entropy.obj
 0001:00008b1f       ?do_tolower@?$ctype@D@std@@MBEPBDPADPBD@Z 00409b1f f i entropy.obj
 0001:00008b4a       ?do_toupper@?$ctype@D@std@@MBEDD@Z 00409b4a f i entropy.obj
 0001:00008b5e       ?do_toupper@?$ctype@D@std@@MBEPBDPADPBD@Z 00409b5e f i entropy.obj
 0001:00008b89       ?do_widen@?$ctype@D@std@@MBEDD@Z 00409b89 f i entropy.obj
 0001:00008b90       ?do_widen@?$ctype@D@std@@MBEPBDPBD0PAD@Z 00409b90 f i entropy.obj
 0001:00008baf       ?equivalent@error_category@std@@UBE_NABVerror_code@2@H@Z 00409baf f i entropy.obj
 0001:00008bd1       ?equivalent@error_category@std@@UBE_NHABVerror_condition@2@@Z 00409bd1 f i entropy.obj
 0001:00008bef       ?flush@?$basic_ostream@DU?$char_traits@D@std@@@std@@QAEAAV12@XZ 00409bef f i entropy.obj
 0001:00008c43       ?get@?$basic_istream@DU?$char_traits@D@std@@@std@@QAEHXZ 00409c43 f i entropy.obj
 0001:00008d46       ?make_error_code@std@@YG?AVerror_code@1@W4io_errc@1@@Z 00409d46 f i entropy.obj
 0001:00008d5d       ?message@_Generic_error_category@std@@UBE?AV?$basic_string@DU?$char_traits@D@std@@V?$allocator@D@2@@2@H@Z 00409d5d f i entropy.obj
 0001:00008d78       ?message@_Iostream_error_category@std@@UBE?AV?$basic_string@DU?$char_traits@D@std@@V?$allocator@D@2@@2@H@Z 00409d78 f i entropy.obj
 0001:00008dbe       ?name@_Generic_error_category@std@@UBEPBDXZ 00409dbe f i entropy.obj
 0001:00008dc4       ?name@_Iostream_error_category@std@@UBEPBDXZ 00409dc4 f i entropy.obj
 0001:00008dca       ?sbumpc@?$basic_streambuf@DU?$char_traits@D@std@@@std@@QAEHXZ 00409dca f i entropy.obj
 0001:00008df4       ?seekg@?$basic_istream@DU?$char_traits@D@std@@@std@@QAEAAV12@V?$fpos@U_Mbstatet@@@2@@Z 00409df4 f i entropy.obj
 0001:00008eb9       ?sgetc@?$basic_streambuf@DU?$char_traits@D@std@@@std@@QAEHXZ 00409eb9 f i entropy.obj
 0001:00008ed8       ?snextc@?$basic_streambuf@DU?$char_traits@D@std@@@std@@QAEHXZ 00409ed8 f i entropy.obj
 0001:00008f1b       ?tellg@?$basic_istream@DU?$char_traits@D@std@@@std@@QAE?AV?$fpos@U_Mbstatet@@@2@XZ 00409f1b f i entropy.obj
 0001:00008f9c       ?what@exception@std@@UBEPBDXZ 00409f9c f i entropy.obj
 0001:00008faa       ??0file_version_info@pe_bliss@@QAE@ABUvs_fixedfileinfo@pe_win@1@@Z 00409faa f   file_version_info.obj
 0001:00008fee       ??0file_version_info@pe_bliss@@QAE@XZ 00409fee f   file_version_info.obj
 0001:00009010       ?clear_file_flag@file_version_info@pe_bliss@@AAEXI@Z 0040a010 f   file_version_info.obj
 0001:0000901c       ?get_file_date_ls@file_version_info@pe_bliss@@QBEIXZ 0040a01c f   file_version_info.obj
 0001:00009020       ?get_file_date_ms@file_version_info@pe_bliss@@QBEIXZ 0040a020 f   file_version_info.obj
 0001:00009024       ?get_file_flags@file_version_info@pe_bliss@@QBEIXZ 0040a024 f   file_version_info.obj
 0001:00009028       ?get_file_os@file_version_info@pe_bliss@@QBE?AW4file_os_type@12@XZ 0040a028 f   file_version_info.obj
 0001:000090bc       ?get_file_os_raw@file_version_info@pe_bliss@@QBEIXZ 0040a0bc f   file_version_info.obj
 0001:000090c0       ?get_file_subtype@file_version_info@pe_bliss@@QBEIXZ 0040a0c0 f   file_version_info.obj
 0001:000090c4       ?get_file_type@file_version_info@pe_bliss@@QBE?AW4file_type@12@XZ 0040a0c4 f   file_version_info.obj
 0001:00009101       ?get_file_type_raw@file_version_info@pe_bliss@@QBEIXZ 0040a101 f   file_version_info.obj
 0001:00009105       ?get_file_version_ls@file_version_info@pe_bliss@@QBEIXZ 0040a105 f   file_version_info.obj
 0001:00009109       ?get_file_version_ms@file_version_info@pe_bliss@@QBEIXZ 0040a109 f   file_version_info.obj
 0001:0000910c       ?get_product_version_ls@file_version_info@pe_bliss@@QBEIXZ 0040a10c f   file_version_info.obj
 0001:00009110       ?get_product_version_ms@file_version_info@pe_bliss@@QBEIXZ 0040a110 f   file_version_info.obj
 0001:00009114       ?is_debug@file_version_info@pe_bliss@@QBE_NXZ 0040a114 f   file_version_info.obj
 0001:0000911a       ?is_info_inferred@file_version_info@pe_bliss@@QBE_NXZ 0040a11a f   file_version_info.obj
 0001:00009123       ?is_patched@file_version_info@pe_bliss@@QBE_NXZ 0040a123 f   file_version_info.obj
 0001:0000912c       ?is_prerelease@file_version_info@pe_bliss@@QBE_NXZ 0040a12c f   file_version_info.obj
 0001:00009134       ?is_private_build@file_version_info@pe_bliss@@QBE_NXZ 0040a134 f   file_version_info.obj
 0001:0000913d       ?is_special_build@file_version_info@pe_bliss@@QBE_NXZ 0040a13d f   file_version_info.obj
 0001:00009146       ?set_debug@file_version_info@pe_bliss@@QAEX_N@Z 0040a146 f   file_version_info.obj
 0001:00009154       ?set_file_date_ls@file_version_info@pe_bliss@@QAEXI@Z 0040a154 f   file_version_info.obj
 0001:0000915e       ?set_file_date_ms@file_version_info@pe_bliss@@QAEXI@Z 0040a15e f   file_version_info.obj
 0001:00009168       ?set_file_flag@file_version_info@pe_bliss@@AAEXI@Z 0040a168 f   file_version_info.obj
 0001:00009172       ?set_file_flag@file_version_info@pe_bliss@@AAEXI_N@Z 0040a172 f   file_version_info.obj
 0001:00009190       ?set_file_flags@file_version_info@pe_bliss@@QAEXI@Z 0040a190 f   file_version_info.obj
 0001:0000919a       ?set_file_os@file_version_info@pe_bliss@@QAEXW4file_os_type@12@@Z 0040a19a f   file_version_info.obj
 0001:00009266       ?set_file_os_raw@file_version_info@pe_bliss@@QAEXI@Z 0040a266 f   file_version_info.obj
 0001:00009270       ?set_file_subtype@file_version_info@pe_bliss@@QAEXI@Z 0040a270 f   file_version_info.obj
 0001:0000927a       ?set_file_type@file_version_info@pe_bliss@@QAEXW4file_type@12@@Z 0040a27a f   file_version_info.obj
 0001:000092d3       ?set_file_type_raw@file_version_info@pe_bliss@@QAEXI@Z 0040a2d3 f   file_version_info.obj
 0001:000092dd       ?set_file_version_ls@file_version_info@pe_bliss@@QAEXI@Z 0040a2dd f   file_version_info.obj
 0001:000092e7       ?set_file_version_ms@file_version_info@pe_bliss@@QAEXI@Z 0040a2e7 f   file_version_info.obj
 0001:000092f0       ?set_info_inferred@file_version_info@pe_bliss@@QAEX_N@Z 0040a2f0 f   file_version_info.obj
 0001:000092fe       ?set_patched@file_version_info@pe_bliss@@QAEX_N@Z 0040a2fe f   file_version_info.obj
 0001:0000930c       ?set_prerelease@file_version_info@pe_bliss@@QAEX_N@Z 0040a30c f   file_version_info.obj
 0001:0000931a       ?set_private_build@file_version_info@pe_bliss@@QAEX_N@Z 0040a31a f   file_version_info.obj
 0001:00009328       ?set_product_version_ls@file_version_info@pe_bliss@@QAEXI@Z 0040a328 f   file_version_info.obj
 0001:00009332       ?set_product_version_ms@file_version_info@pe_bliss@@QAEXI@Z 0040a332 f   file_version_info.obj
 0001:0000933c       ?set_special_build@file_version_info@pe_bliss@@QAEX_N@Z 0040a33c f   file_version_info.obj
 0001:0000934a       ??$_Construct_in_place@PA_WABQA_W@std@@YGXAAPA_WABQA_W@Z 0040a34a f i message_table.obj
 0001:00009359       ??$_Destroy_in_place@PA_W@std@@YGXAAPA_W@Z 0040a359 f i message_table.obj
 0001:0000935c       ??$_Get_size_of_n@$01@std@@YGII@Z 0040a35c f i message_table.obj
 0001:00009372       ??$_Pocca@V?$allocator@D@std@@@std@@YGXAAV?$allocator@D@0@ABV10@@Z 0040a372 f i message_table.obj
 0001:00009375       ??$_Pocca@V?$allocator@_W@std@@@std@@YGXAAV?$allocator@_W@0@ABV10@@Z 0040a375 f i message_table.obj
 0001:00009378       ??$_Reallocate_for@V<lambda_03628ca18370b1f44a99b655e704819b>@@PB_W@?$basic_string@_WU?$char_traits@_W@std@@V?$allocator@_W@2@@std@@AAEAAV01@IV<lambda_03628ca18370b1f44a99b655e704819b>@@PB_W@Z 0040a378 f i message_table.obj
 0001:000093f3       ??$_Refancy@PAD$0A@@std@@YGPADPAD@Z 0040a3f3 f i message_table.obj
 0001:000093fa       ??$_Refancy@PA_W$0A@@std@@YGPA_WPA_W@Z 0040a3fa f i message_table.obj
 0001:00009401       ??$strip_nullbytes@D@pe_utils@pe_bliss@@SGXAAV?$basic_string@DU?$char_traits@D@std@@V?$allocator@D@2@@std@@@Z 0040a401 f i message_table.obj
 0001:0000942d       ??$strip_nullbytes@_W@pe_utils@pe_bliss@@SGXAAV?$basic_string@_WU?$char_traits@_W@std@@V?$allocator@_W@2@@std@@@Z 0040a42d f i message_table.obj
 0001:0000945a       ??0message_table_item@pe_bliss@@QAE@ABV?$basic_string@DU?$char_traits@D@std@@V?$allocator@D@2@@std@@@Z 0040a45a f   message_table.obj
 0001:00009495       ??0message_table_item@pe_bliss@@QAE@ABV?$basic_string@_WU?$char_traits@_W@std@@V?$allocator@_W@2@@std@@@Z 0040a495 f   message_table.obj
 0001:000094cc       ??0message_table_item@pe_bliss@@QAE@XZ 0040a4cc f   message_table.obj
 0001:000094ee       ??4?$basic_string@DU?$char_traits@D@std@@V?$allocator@D@2@@std@@QAEAAV01@ABV01@@Z 0040a4ee f i message_table.obj
 0001:00009510       ??4?$basic_string@_WU?$char_traits@_W@std@@V?$allocator@_W@2@@std@@QAEAAV01@ABV01@@Z 0040a510 f i message_table.obj
 0001:00009532       ?_Calculate_growth@?$basic_string@_WU?$char_traits@_W@std@@V?$allocator@_W@2@@std@@CGIIII@Z 0040a532 f i message_table.obj
 0001:00009565       ?_Construct_lv_contents@?$basic_string@_WU?$char_traits@_W@std@@V?$allocator@_W@2@@std@@AAEXABV12@@Z 0040a565 f i message_table.obj
 0001:000095c9       ?_Copy_assign@?$basic_string@DU?$char_traits@D@std@@V?$allocator@D@2@@std@@AAEXABV12@U?$integral_constant@_N$0A@@2@@Z 0040a5c9 f i message_table.obj
 0001:000095e3       ?_Copy_assign@?$basic_string@_WU?$char_traits@_W@std@@V?$allocator@_W@2@@std@@AAEXABV12@U?$integral_constant@_N$0A@@2@@Z 0040a5e3 f i message_table.obj
 0001:000095fd       ?_Eos@?$basic_string@_WU?$char_traits@_W@std@@V?$allocator@_W@2@@std@@AAEXI@Z 0040a5fd f i message_table.obj
 0001:00009615       ?_Xlen@?$basic_string@_WU?$char_traits@_W@std@@V?$allocator@_W@2@@std@@CGXXZ 0040a615 f i message_table.obj
 0001:00009620       ?_Xran@?$_String_val@U?$_Simple_types@D@std@@@std@@SGXXZ 0040a620 f i message_table.obj
 0001:0000962b       ?_Xran@?$_String_val@U?$_Simple_types@_W@std@@@std@@SGXXZ 0040a62b f i message_table.obj
 0001:00009636       ?assign@?$basic_string@_WU?$char_traits@_W@std@@V?$allocator@_W@2@@std@@QAEAAV12@QB_WI@Z 0040a636 f i message_table.obj
 0001:00009684       ?erase@?$basic_string@DU?$char_traits@D@std@@V?$allocator@D@2@@std@@QAEAAV12@I@Z 0040a684 f i message_table.obj
 0001:000096a9       ?erase@?$basic_string@_WU?$char_traits@_W@std@@V?$allocator@_W@2@@std@@QAEAAV12@I@Z 0040a6a9 f i message_table.obj
 0001:000096c7       ?get_ansi_string@message_table_item@pe_bliss@@QBEABV?$basic_string@DU?$char_traits@D@std@@V?$allocator@D@2@@std@@XZ 0040a6c7 f   message_table.obj
 0001:000096cb       ?get_unicode_string@message_table_item@pe_bliss@@QBEABV?$basic_string@_WU?$char_traits@_W@std@@V?$allocator@_W@2@@std@@XZ 0040a6cb f   message_table.obj
 0001:000096cf       ?is_unicode@message_table_item@pe_bliss@@QBE_NXZ 0040a6cf f   message_table.obj
 0001:000096d2       ?set_string@message_table_item@pe_bliss@@QAEXABV?$basic_string@DU?$char_traits@D@std@@V?$allocator@D@2@@std@@@Z 0040a6d2 f   message_table.obj
 0001:00009705       ?set_string@message_table_item@pe_bliss@@QAEXABV?$basic_string@_WU?$char_traits@_W@std@@V?$allocator@_W@2@@std@@@Z 0040a705 f   message_table.obj
 0001:00009737       ??$?0U?$pair@IV?$basic_string@DU?$char_traits@D@std@@V?$allocator@D@2@@std@@@std@@@?$_Tree_temp_node@V?$allocator@U?$_Tree_node@U?$pair@$$CBIV?$basic_string@DU?$char_traits@D@std@@V?$allocator@D@2@@std@@@std@@PAX@std@@@std@@@std@@QAE@AAV?$allocator@U?$_Tree_node@U?$pair@$$CBIV?$basic_string@DU?$char_traits@D@std@@V?$allocator@D@2@@std@@@std@@PAX@std@@@1@PAU?$_Tree_node@U?$pair@$$CBIV?$basic_string@DU?$char_traits@D@std@@V?$allocator@D@2@@std@@@std@@PAX@1@$$QAU?$pair@IV?$basic_string@DU?$char_traits@D@std@@V?$allocator@D@2@@std@@@1@@Z 0040a737 f i pe_base.obj
 0001:00009786       ??$?0V?$allocator@U?$_Tree_node@U?$pair@$$CBIV?$basic_string@DU?$char_traits@D@std@@V?$allocator@D@2@@std@@@std@@PAX@std@@@std@@@?$_Tree@V?$_Tmap_traits@IV?$basic_string@DU?$char_traits@D@std@@V?$allocator@D@2@@std@@U?$less@I@2@V?$allocator@U?$pair@$$CBIV?$basic_string@DU?$char_traits@D@std@@V?$allocator@D@2@@std@@@std@@@2@$00@std@@@std@@QAE@ABV01@$$QAV?$allocator@U?$_Tree_node@U?$pair@$$CBIV?$basic_string@DU?$char_traits@D@std@@V?$allocator@D@2@@std@@@std@@PAX@std@@@1@@Z 0040a786 f i pe_base.obj
 0001:000097af       ??$_Assign_range@PAVsection@pe_bliss@@@?$vector@Vsection@pe_bliss@@V?$allocator@Vsection@pe_bliss@@@std@@@std@@AAEXPAVsection@pe_bliss@@0Uforward_iterator_tag@1@@Z 0040a7af f i pe_base.obj
 0001:0000983e       ??$_Buyheadnode@V?$allocator@U?$_Tree_node@U?$pair@$$CBIV?$basic_string@DU?$char_traits@D@std@@V?$allocator@D@2@@std@@@std@@PAX@std@@@std@@@?$_Tree_node@U?$pair@$$CBIV?$basic_string@DU?$char_traits@D@std@@V?$allocator@D@2@@std@@@std@@PAX@std@@SGPAU01@AAV?$allocator@U?$_Tree_node@U?$pair@$$CBIV?$basic_string@DU?$char_traits@D@std@@V?$allocator@D@2@@std@@@std@@PAX@std@@@1@@Z 0040a83e f i pe_base.obj
 0001:00009856       ??$_Buynode@V?$allocator@U?$_Tree_node@U?$pair@$$CBIV?$basic_string@DU?$char_traits@D@std@@V?$allocator@D@2@@std@@@std@@PAX@std@@@std@@AAU?$pair@$$CBIV?$basic_string@DU?$char_traits@D@std@@V?$allocator@D@2@@std@@@2@@?$_Tree_node@U?$pair@$$CBIV?$basic_string@DU?$char_traits@D@std@@V?$allocator@D@2@@std@@@std@@PAX@std@@SGPAU01@AAV?$allocator@U?$_Tree_node@U?$pair@$$CBIV?$basic_string@DU?$char_traits@D@std@@V?$allocator@D@2@@std@@@std@@PAX@std@@@1@PAU01@AAU?$pair@$$CBIV?$basic_string@DU?$char_traits@D@std@@V?$allocator@D@2@@std@@@1@@Z 0040a856 f i pe_base.obj
 0001:00009884       ??$_Construct_in_place@PAU?$_Tree_node@U?$pair@$$CBIV?$basic_string@DU?$char_traits@D@std@@V?$allocator@D@2@@std@@@std@@PAX@std@@AAPAU12@@std@@YGXAAPAU?$_Tree_node@U?$pair@$$CBIV?$basic_string@DU?$char_traits@D@std@@V?$allocator@D@2@@std@@@std@@PAX@0@0@Z 0040a884 f i pe_base.obj
 0001:00009893       ??$_Construct_in_place@PAU?$_Tree_node@U?$pair@$$CBIV?$basic_string@DU?$char_traits@D@std@@V?$allocator@D@2@@std@@@std@@PAX@std@@ABQAU12@@std@@YGXAAPAU?$_Tree_node@U?$pair@$$CBIV?$basic_string@DU?$char_traits@D@std@@V?$allocator@D@2@@std@@@std@@PAX@0@ABQAU10@@Z 0040a893 f i pe_base.obj
 0001:000098a2       ??$_Copy@U_Copy_tag@?$_Tree@V?$_Tmap_traits@IV?$basic_string@DU?$char_traits@D@std@@V?$allocator@D@2@@std@@U?$less@I@2@V?$allocator@U?$pair@$$CBIV?$basic_string@DU?$char_traits@D@std@@V?$allocator@D@2@@std@@@std@@@2@$00@std@@@std@@@?$_Tree@V?$_Tmap_traits@IV?$basic_string@DU?$char_traits@D@std@@V?$allocator@D@2@@std@@U?$less@I@2@V?$allocator@U?$pair@$$CBIV?$basic_string@DU?$char_traits@D@std@@V?$allocator@D@2@@std@@@std@@@2@$00@std@@@std@@IAEXABV01@U_Copy_tag@01@@Z 0040a8a2 f i pe_base.obj
 0001:000098fb       ??$_Copy_nodes@U_Copy_tag@?$_Tree@V?$_Tmap_traits@IV?$basic_string@DU?$char_traits@D@std@@V?$allocator@D@2@@std@@U?$less@I@2@V?$allocator@U?$pair@$$CBIV?$basic_string@DU?$char_traits@D@std@@V?$allocator@D@2@@std@@@std@@@2@$00@std@@@std@@@?$_Tree@V?$_Tmap_traits@IV?$basic_string@DU?$char_traits@D@std@@V?$allocator@D@2@@std@@U?$less@I@2@V?$allocator@U?$pair@$$CBIV?$basic_string@DU?$char_traits@D@std@@V?$allocator@D@2@@std@@@std@@@2@$00@std@@@std@@IAEPAU?$_Tree_node@U?$pair@$$CBIV?$basic_string@DU?$char_traits@D@std@@V?$allocator@D@2@@std@@@std@@PAX@1@PAU21@0U_Copy_tag@01@@Z 0040a8fb f i pe_base.obj
 0001:000099a2       ??$_Copy_unchecked@PAVsection@pe_bliss@@PAV12@@std@@YGPAVsection@pe_bliss@@PAV12@00@Z 0040a9a2 f i pe_base.obj
 0001:000099ca       ??$_Destroy_in_place@PAU?$_Tree_node@U?$pair@$$CBIV?$basic_string@DU?$char_traits@D@std@@V?$allocator@D@2@@std@@@std@@PAX@std@@@std@@YGXAAPAU?$_Tree_node@U?$pair@$$CBIV?$basic_string@DU?$char_traits@D@std@@V?$allocator@D@2@@std@@@std@@PAX@0@@Z 0040a9ca f i pe_base.obj
 0001:000099cd       ??$_Destroy_range@V?$allocator@Vsection@pe_bliss@@@std@@@std@@YGXPAVsection@pe_bliss@@QAV12@AAV?$allocator@Vsection@pe_bliss@@@0@@Z 0040a9cd f i pe_base.obj
 0001:000099e9       ??$_Emplace@U?$pair@IV?$basic_string@DU?$char_traits@D@std@@V?$allocator@D@2@@std@@@std@@@?$_Tree@V?$_Tmap_traits@IV?$basic_string@DU?$char_traits@D@std@@V?$allocator@D@2@@std@@U?$less@I@2@V?$allocator@U?$pair@$$CBIV?$basic_string@DU?$char_traits@D@std@@V?$allocator@D@2@@std@@@std@@@2@$00@std@@@std@@IAE?AU?$pair@PAU?$_Tree_node@U?$pair@$$CBIV?$basic_string@DU?$char_traits@D@std@@V?$allocator@D@2@@std@@@std@@PAX@std@@_N@1@$$QAU?$pair@IV?$basic_string@DU?$char_traits@D@std@@V?$allocator@D@2@@std@@@1@@Z 0040a9e9 f i pe_base.obj
 0001:00009a62       ??$_Emplace_reallocate@ABVsection@pe_bliss@@@?$vector@Vsection@pe_bliss@@V?$allocator@Vsection@pe_bliss@@@std@@@std@@QAEPAVsection@pe_bliss@@QAV23@ABV23@@Z 0040aa62 f i pe_base.obj
 0001:00009b59       ??$_Erase_head@V?$allocator@U?$_Tree_node@U?$pair@$$CBIV?$basic_string@DU?$char_traits@D@std@@V?$allocator@D@2@@std@@@std@@PAX@std@@@std@@@?$_Tree_val@U?$_Tree_simple_types@U?$pair@$$CBIV?$basic_string@DU?$char_traits@D@std@@V?$allocator@D@2@@std@@@std@@@std@@@std@@QAEXAAV?$allocator@U?$_Tree_node@U?$pair@$$CBIV?$basic_string@DU?$char_traits@D@std@@V?$allocator@D@2@@std@@@std@@PAX@std@@@1@@Z 0040ab59 f i pe_base.obj
 0001:00009b79       ??$_Erase_tree@V?$allocator@U?$_Tree_node@U?$pair@$$CBIV?$basic_string@DU?$char_traits@D@std@@V?$allocator@D@2@@std@@@std@@PAX@std@@@std@@@?$_Tree_val@U?$_Tree_simple_types@U?$pair@$$CBIV?$basic_string@DU?$char_traits@D@std@@V?$allocator@D@2@@std@@@std@@@std@@@std@@QAEXAAV?$allocator@U?$_Tree_node@U?$pair@$$CBIV?$basic_string@DU?$char_traits@D@std@@V?$allocator@D@2@@std@@@std@@PAX@std@@@1@PAU?$_Tree_node@U?$pair@$$CBIV?$basic_string@DU?$char_traits@D@std@@V?$allocator@D@2@@std@@@std@@PAX@1@@Z 0040ab79 f i pe_base.obj
 0001:00009ba8       ??$_Erase_tree_and_orphan@V?$allocator@U?$_Tree_node@U?$pair@$$CBIV?$basic_string@DU?$char_traits@D@std@@V?$allocator@D@2@@std@@@std@@PAX@std@@@std@@@?$_Tree_val@U?$_Tree_simple_types@U?$pair@$$CBIV?$basic_string@DU?$char_traits@D@std@@V?$allocator@D@2@@std@@@std@@@std@@@std@@QAEXAAV?$allocator@U?$_Tree_node@U?$pair@$$CBIV?$basic_string@DU?$char_traits@D@std@@V?$allocator@D@2@@std@@@std@@PAX@std@@@1@PAU?$_Tree_node@U?$pair@$$CBIV?$basic_string@DU?$char_traits@D@std@@V?$allocator@D@2@@std@@@std@@PAX@1@@Z 0040aba8 f i pe_base.obj
 0001:00009bd7       ??$_Find_upper_bound@I@?$_Tree@V?$_Tmap_traits@IV?$basic_string@DU?$char_traits@D@std@@V?$allocator@D@2@@std@@U?$less@I@2@V?$allocator@U?$pair@$$CBIV?$basic_string@DU?$char_traits@D@std@@V?$allocator@D@2@@std@@@std@@@2@$00@std@@@std@@IBE?AU?$_Tree_find_result@PAU?$_Tree_node@U?$pair@$$CBIV?$basic_string@DU?$char_traits@D@std@@V?$allocator@D@2@@std@@@std@@PAX@std@@@1@ABI@Z 0040abd7 f i pe_base.obj
 0001:00009c19       ??$_Freenode@V?$allocator@U?$_Tree_node@U?$pair@$$CBIV?$basic_string@DU?$char_traits@D@std@@V?$allocator@D@2@@std@@@std@@PAX@std@@@std@@@?$_Tree_node@U?$pair@$$CBIV?$basic_string@DU?$char_traits@D@std@@V?$allocator@D@2@@std@@@std@@PAX@std@@SGXAAV?$allocator@U?$_Tree_node@U?$pair@$$CBIV?$basic_string@DU?$char_traits@D@std@@V?$allocator@D@2@@std@@@std@@PAX@std@@@1@PAU01@@Z 0040ac19 f i pe_base.obj
 0001:00009c34       ??$_Get_size_of_n@$0EE@@std@@YGII@Z 0040ac34 f i pe_base.obj
 0001:00009c4b       ??$_Pocca@V?$allocator@U?$_Tree_node@U?$pair@$$CBIV?$basic_string@DU?$char_traits@D@std@@V?$allocator@D@2@@std@@@std@@PAX@std@@@std@@@std@@YGXAAV?$allocator@U?$_Tree_node@U?$pair@$$CBIV?$basic_string@DU?$char_traits@D@std@@V?$allocator@D@2@@std@@@std@@PAX@std@@@0@ABV10@@Z 0040ac4b f i pe_base.obj
 0001:00009c4e       ??$_Pocca@V?$allocator@Vsection@pe_bliss@@@std@@@std@@YGXAAV?$allocator@Vsection@pe_bliss@@@0@ABV10@@Z 0040ac4e f i pe_base.obj
 0001:00009c51       ??$_Reallocate_for@V<lambda_c6753c90be971fc9cc00b4f35f237a75>@@D@?$basic_string@DU?$char_traits@D@std@@V?$allocator@D@2@@std@@AAEAAV01@IV<lambda_c6753c90be971fc9cc00b4f35f237a75>@@D@Z 0040ac51 f i pe_base.obj
 0001:00009cbd       ??$_Reallocate_grow_by@V<lambda_c1b8c41cb4019640539cfd828748c4d4>@@ID@?$basic_string@DU?$char_traits@D@std@@V?$allocator@D@2@@std@@AAEAAV01@IV<lambda_c1b8c41cb4019640539cfd828748c4d4>@@ID@Z 0040acbd f i pe_base.obj
 0001:00009d74       ??$_Refancy@PAVsection@pe_bliss@@$0A@@std@@YGPAVsection@pe_bliss@@PAV12@@Z 0040ad74 f i pe_base.obj
 0001:00009d7b       ??$_Uninitialized_copy@PAVsection@pe_bliss@@V?$allocator@Vsection@pe_bliss@@@std@@@std@@YGPAVsection@pe_bliss@@QAV12@0PAV12@AAV?$allocator@Vsection@pe_bliss@@@0@@Z 0040ad7b f i pe_base.obj
 0001:00009dad       ??$_Uninitialized_move@PAVsection@pe_bliss@@V?$allocator@Vsection@pe_bliss@@@std@@@std@@YGPAVsection@pe_bliss@@QAV12@0PAV12@AAV?$allocator@Vsection@pe_bliss@@@0@@Z 0040adad f i pe_base.obj
 0001:00009ddf       ??$align_up@I@pe_utils@pe_bliss@@SGIII@Z 0040addf f i pe_base.obj
 0001:00009dfb       ??$construct@U?$pair@$$CBIV?$basic_string@DU?$char_traits@D@std@@V?$allocator@D@2@@std@@@std@@U?$pair@IV?$basic_string@DU?$char_traits@D@std@@V?$allocator@D@2@@std@@@2@@?$_Default_allocator_traits@V?$allocator@U?$_Tree_node@U?$pair@$$CBIV?$basic_string@DU?$char_traits@D@std@@V?$allocator@D@2@@std@@@std@@PAX@std@@@std@@@std@@SGXAAV?$allocator@U?$_Tree_node@U?$pair@$$CBIV?$basic_string@DU?$char_traits@D@std@@V?$allocator@D@2@@std@@@std@@PAX@std@@@1@QAU?$pair@$$CBIV?$basic_string@DU?$char_traits@D@std@@V?$allocator@D@2@@std@@@1@$$QAU?$pair@IV?$basic_string@DU?$char_traits@D@std@@V?$allocator@D@2@@std@@@1@@Z 0040adfb f i pe_base.obj
 0001:00009e16       ??$emplace_back@ABVsection@pe_bliss@@@?$vector@Vsection@pe_bliss@@V?$allocator@Vsection@pe_bliss@@@std@@@std@@QAEXABVsection@pe_bliss@@@Z 0040ae16 f i pe_base.obj
 0001:00009e3c       ??$exchange@PAU?$_Tree_node@U?$pair@$$CBIV?$basic_string@DU?$char_traits@D@std@@V?$allocator@D@2@@std@@@std@@PAX@std@@$$T@std@@YGPAU?$_Tree_node@U?$pair@$$CBIV?$basic_string@DU?$char_traits@D@std@@V?$allocator@D@2@@std@@@std@@PAX@0@AAPAU10@$$QA$$T@Z 0040ae3c f i pe_base.obj
 0001:00009e4d       ??$exchange@PAU?$_Tree_node@U?$pair@$$CBIV?$basic_string@DU?$char_traits@D@std@@V?$allocator@D@2@@std@@@std@@PAX@std@@AAPAU12@@std@@YGPAU?$_Tree_node@U?$pair@$$CBIV?$basic_string@DU?$char_traits@D@std@@V?$allocator@D@2@@std@@@std@@PAX@0@AAPAU10@0@Z 0040ae4d f i pe_base.obj
 0001:00009e5e       ??$find_if@V?$_Vector_const_iterator@V?$_Vector_val@U?$_Simple_types@Vsection@pe_bliss@@@std@@@std@@@std@@Usection_by_raw_offset@pe_bliss@@@std@@YG?AV?$_Vector_const_iterator@V?$_Vector_val@U?$_Simple_types@Vsection@pe_bliss@@@std@@@std@@@0@V10@V10@Usection_by_raw_offset@pe_bliss@@@Z 0040ae5e f i pe_base.obj
 0001:00009e8a       ??$find_if@V?$_Vector_const_iterator@V?$_Vector_val@U?$_Simple_types@Vsection@pe_bliss@@@std@@@std@@@std@@Usection_ptr_finder@pe_bliss@@@std@@YG?AV?$_Vector_const_iterator@V?$_Vector_val@U?$_Simple_types@Vsection@pe_bliss@@@std@@@std@@@0@V10@V10@Usection_ptr_finder@pe_bliss@@@Z 0040ae8a f i pe_base.obj
 0001:00009eb6       ??$find_if@V?$_Vector_iterator@V?$_Vector_val@U?$_Simple_types@Vsection@pe_bliss@@@std@@@std@@@std@@Usection_by_raw_offset@pe_bliss@@@std@@YG?AV?$_Vector_iterator@V?$_Vector_val@U?$_Simple_types@Vsection@pe_bliss@@@std@@@std@@@0@V10@V10@Usection_by_raw_offset@pe_bliss@@@Z 0040aeb6 f i pe_base.obj
 0001:00009ee2       ??$find_if@V?$_Vector_iterator@V?$_Vector_val@U?$_Simple_types@Vsection@pe_bliss@@@std@@@std@@@std@@Usection_ptr_finder@pe_bliss@@@std@@YG?AV?$_Vector_iterator@V?$_Vector_val@U?$_Simple_types@Vsection@pe_bliss@@@std@@@std@@@0@V10@V10@Usection_ptr_finder@pe_bliss@@@Z 0040aee2 f i pe_base.obj
 0001:00009f0e       ??$section_data_from_rva@Uimage_debug_directory@pe_win@pe_bliss@@@pe_base@pe_bliss@@QBE?AUimage_debug_directory@pe_win@1@IW4section_data_type@1@_N@Z 0040af0e f i pe_base.obj
 0001:00009fc2       ??0?$fpos@U_Mbstatet@@@std@@QAE@_J@Z 0040afc2 f i pe_base.obj
 0001:00009fe2       ??0?$pair@$$CBIV?$basic_string@DU?$char_traits@D@std@@V?$allocator@D@2@@std@@@std@@QAE@ABU01@@Z 0040afe2 f i pe_base.obj
 0001:0000a007       ??0?$vector@Vsection@pe_bliss@@V?$allocator@Vsection@pe_bliss@@@std@@@std@@QAE@ABV01@@Z 0040b007 f i pe_base.obj
 0001:0000a04a       ??0pe_base@pe_bliss@@QAE@AAV?$basic_istream@DU?$char_traits@D@std@@@std@@ABVpe_properties@1@_N@Z 0040b04a f   pe_base.obj
 0001:0000a1b5       ??0pe_base@pe_bliss@@QAE@ABV01@@Z 0040b1b5 f   pe_base.obj
 0001:0000a24e       ??0pe_base@pe_bliss@@QAE@ABVpe_properties@1@I_NG@Z 0040b24e f   pe_base.obj
 0001:0000a360       ??0section@pe_bliss@@QAE@$$QAV01@@Z 0040b360 f i pe_base.obj
 0001:0000a38c       ??0section@pe_bliss@@QAE@ABV01@@Z 0040b38c f i pe_base.obj
 0001:0000a3c0       ??1?$_Tree_temp_node@V?$allocator@U?$_Tree_node@U?$pair@$$CBIV?$basic_string@DU?$char_traits@D@std@@V?$allocator@D@2@@std@@@std@@PAX@std@@@std@@@std@@QAE@XZ 0040b3c0 f i pe_base.obj
 0001:0000a3e5       ??1pe_base@pe_bliss@@QAE@XZ 0040b3e5 f   pe_base.obj
 0001:0000a41e       ??4?$_Tree@V?$_Tmap_traits@IV?$basic_string@DU?$char_traits@D@std@@V?$allocator@D@2@@std@@U?$less@I@2@V?$allocator@U?$pair@$$CBIV?$basic_string@DU?$char_traits@D@std@@V?$allocator@D@2@@std@@@std@@@2@$00@std@@@std@@QAEAAV01@ABV01@@Z 0040b41e f i pe_base.obj
 0001:0000a442       ??4pe_base@pe_bliss@@QAEAAV01@ABV01@@Z 0040b442 f   pe_base.obj
 0001:0000a4e7       ??4section@pe_bliss@@QAEAAV01@ABV01@@Z 0040b4e7 f i pe_base.obj
 0001:0000a513       ?_Buy_raw@?$vector@Vsection@pe_bliss@@V?$allocator@Vsection@pe_bliss@@@std@@@std@@AAEXI@Z 0040b513 f i pe_base.obj
 0001:0000a539       ?_Calculate_growth@?$vector@Vsection@pe_bliss@@V?$allocator@Vsection@pe_bliss@@@std@@@std@@ABEII@Z 0040b539 f i pe_base.obj
 0001:0000a562       ?_Change_array@?$vector@Vsection@pe_bliss@@V?$allocator@Vsection@pe_bliss@@@std@@@std@@AAEXQAVsection@pe_bliss@@II@Z 0040b562 f i pe_base.obj
 0001:0000a5a9       ?_Clear_and_reserve_geometric@?$vector@Vsection@pe_bliss@@V?$allocator@Vsection@pe_bliss@@@std@@@std@@AAEXI@Z 0040b5a9 f i pe_base.obj
 0001:0000a605       ?_Destroy@?$vector@Vsection@pe_bliss@@V?$allocator@Vsection@pe_bliss@@@std@@@std@@AAEXPAVsection@pe_bliss@@0@Z 0040b605 f i pe_base.obj
 0001:0000a616       ?_Getal@?$_Tree@V?$_Tmap_traits@IV?$basic_string@DU?$char_traits@D@std@@V?$allocator@D@2@@std@@U?$less@I@2@V?$allocator@U?$pair@$$CBIV?$basic_string@DU?$char_traits@D@std@@V?$allocator@D@2@@std@@@std@@@2@$00@std@@@std@@IAEAAV?$allocator@U?$_Tree_node@U?$pair@$$CBIV?$basic_string@DU?$char_traits@D@std@@V?$allocator@D@2@@std@@@std@@PAX@std@@@2@XZ 0040b616 f i pe_base.obj
 0001:0000a619       ?_Insert_node@?$_Tree_val@U?$_Tree_simple_types@U?$pair@$$CBIV?$basic_string@DU?$char_traits@D@std@@V?$allocator@D@2@@std@@@std@@@std@@@std@@QAEPAU?$_Tree_node@U?$pair@$$CBIV?$basic_string@DU?$char_traits@D@std@@V?$allocator@D@2@@std@@@std@@PAX@2@U?$_Tree_id@PAU?$_Tree_node@U?$pair@$$CBIV?$basic_string@DU?$char_traits@D@std@@V?$allocator@D@2@@std@@@std@@PAX@std@@@2@QAU32@@Z 0040b619 f i pe_base.obj
 0001:0000a718       ?_Lrotate@?$_Tree_val@U?$_Tree_simple_types@U?$pair@$$CBIV?$basic_string@DU?$char_traits@D@std@@V?$allocator@D@2@@std@@@std@@@std@@@std@@QAEXPAU?$_Tree_node@U?$pair@$$CBIV?$basic_string@DU?$char_traits@D@std@@V?$allocator@D@2@@std@@@std@@PAX@2@@Z 0040b718 f i pe_base.obj
 0001:0000a759       ?_Min@?$_Tree_val@U?$_Tree_simple_types@U?$pair@$$CBIV?$basic_string@DU?$char_traits@D@std@@V?$allocator@D@2@@std@@@std@@@std@@@std@@SGPAU?$_Tree_node@U?$pair@$$CBIV?$basic_string@DU?$char_traits@D@std@@V?$allocator@D@2@@std@@@std@@PAX@2@PAU32@@Z 0040b759 f i pe_base.obj
 0001:0000a774       ?_Rrotate@?$_Tree_val@U?$_Tree_simple_types@U?$pair@$$CBIV?$basic_string@DU?$char_traits@D@std@@V?$allocator@D@2@@std@@@std@@@std@@@std@@QAEXPAU?$_Tree_node@U?$pair@$$CBIV?$basic_string@DU?$char_traits@D@std@@V?$allocator@D@2@@std@@@std@@PAX@2@@Z 0040b774 f i pe_base.obj
 0001:0000a7b7       ?_Throw_tree_length_error@std@@YGXXZ 0040b7b7 f i pe_base.obj
 0001:0000a7c2       ?_Tidy@?$vector@Vsection@pe_bliss@@V?$allocator@Vsection@pe_bliss@@@std@@@std@@AAEXXZ 0040b7c2 f i pe_base.obj
 0001:0000a7f7       ?_Xlength@?$vector@Vsection@pe_bliss@@V?$allocator@Vsection@pe_bliss@@@std@@@std@@CGXXZ 0040b7f7 f i pe_base.obj
 0001:0000a802       ?add_section@pe_base@pe_bliss@@QAEAAVsection@2@V32@@Z 0040b802 f   pe_base.obj
 0001:0000a967       ?append@?$basic_string@DU?$char_traits@D@std@@V?$allocator@D@2@@std@@QAEAAV12@ID@Z 0040b967 f i pe_base.obj
 0001:0000a9c2       ?assign@?$basic_string@DU?$char_traits@D@std@@V?$allocator@D@2@@std@@QAEAAV12@ID@Z 0040b9c2 f i pe_base.obj
 0001:0000aa0d       ?check_characteristics_flag@pe_base@pe_bliss@@QBE_NG@Z 0040ba0d f   pe_base.obj
 0001:0000aa1d       ?clear@?$_Tree@V?$_Tmap_traits@IV?$basic_string@DU?$char_traits@D@std@@V?$allocator@D@2@@std@@U?$less@I@2@V?$allocator@U?$pair@$$CBIV?$basic_string@DU?$char_traits@D@std@@V?$allocator@D@2@@std@@@std@@@2@$00@std@@@std@@QAEXXZ 0040ba1d f i pe_base.obj
 0001:0000aa3b       ?clear@?$basic_ios@DU?$char_traits@D@std@@@std@@QAEXH_N@Z 0040ba3b f i pe_base.obj
 0001:0000aa57       ?clear_characteristics_flags@pe_base@pe_bliss@@QAEXG@Z 0040ba57 f   pe_base.obj
 0001:0000aa77       ?deallocate@?$allocator@Vsection@pe_bliss@@@std@@QAEXQAVsection@pe_bliss@@I@Z 0040ba77 f i pe_base.obj
 0001:0000aa89       ?directory_exists@pe_base@pe_bliss@@QBE_NI@Z 0040ba89 f   pe_base.obj
 0001:0000aa94       ?exceptions@ios_base@std@@QAEXH@Z 0040ba94 f i pe_base.obj
 0001:0000aaab       ?expand_section@pe_base@pe_bliss@@QAE_NAAVsection@2@IIW4section_expand_type@12@@Z 0040baab f   pe_base.obj
 0001:0000ab94       ?file_offset_to_rva@pe_base@pe_bliss@@QBEII@Z 0040bb94 f   pe_base.obj
 0001:0000abd1       ?file_offset_to_section@pe_base@pe_bliss@@AAE?AV?$_Vector_iterator@V?$_Vector_val@U?$_Simple_types@Vsection@pe_bliss@@@std@@@std@@@std@@I@Z 0040bbd1 f   pe_base.obj
 0001:0000ac28       ?file_offset_to_section@pe_base@pe_bliss@@ABE?AV?$_Vector_const_iterator@V?$_Vector_val@U?$_Simple_types@Vsection@pe_bliss@@@std@@@std@@@std@@I@Z 0040bc28 f   pe_base.obj
 0001:0000ac7f       ?fill_stub_overlay@pe_base@pe_bliss@@QAEXD@Z 0040bc7f f   pe_base.obj
 0001:0000ac97       ?get_base_of_code@pe_base@pe_bliss@@QBEIXZ 0040bc97 f   pe_base.obj
 0001:0000aca5       ?get_characteristics@pe_base@pe_bliss@@QBEGXZ 0040bca5 f   pe_base.obj
 0001:0000acb3       ?get_checksum@pe_base@pe_bliss@@QBEIXZ 0040bcb3 f   pe_base.obj
 0001:0000acc1       ?get_directory_rva@pe_base@pe_bliss@@QBEII@Z 0040bcc1 f   pe_base.obj
 0001:0000accc       ?get_directory_size@pe_base@pe_bliss@@QBEII@Z 0040bccc f   pe_base.obj
 0001:0000acd7       ?get_dll_characteristics@pe_base@pe_bliss@@QBEGXZ 0040bcd7 f   pe_base.obj
 0001:0000ace5       ?get_dos_header@pe_base@pe_bliss@@QAEAAUimage_dos_header@pe_win@2@XZ 0040bce5 f   pe_base.obj
 0001:0000ace8       ?get_dos_header@pe_base@pe_bliss@@QBEABUimage_dos_header@pe_win@2@XZ 0040bce8 f   pe_base.obj
 0001:0000aceb       ?get_ep@pe_base@pe_bliss@@QBEIXZ 0040bceb f   pe_base.obj
 0001:0000acf6       ?get_file_alignment@pe_base@pe_bliss@@QBEIXZ 0040bcf6 f   pe_base.obj
 0001:0000ad01       ?get_full_headers_data@pe_base@pe_bliss@@QBEABV?$basic_string@DU?$char_traits@D@std@@V?$allocator@D@2@@std@@XZ 0040bd01 f   pe_base.obj
 0001:0000ad05       ?get_heap_size_commit@pe_base@pe_bliss@@QBEXAAI@Z 0040bd05 f   pe_base.obj
 0001:0000ad19       ?get_heap_size_commit@pe_base@pe_bliss@@QBEXAA_K@Z 0040bd19 f   pe_base.obj
 0001:0000ad30       ?get_heap_size_commit_32@pe_base@pe_bliss@@QBEIXZ 0040bd30 f   pe_base.obj
 0001:0000ad3b       ?get_heap_size_commit_64@pe_base@pe_bliss@@QBE_KXZ 0040bd3b f   pe_base.obj
 0001:0000ad46       ?get_heap_size_reserve@pe_base@pe_bliss@@QBEXAAI@Z 0040bd46 f   pe_base.obj
 0001:0000ad5a       ?get_heap_size_reserve@pe_base@pe_bliss@@QBEXAA_K@Z 0040bd5a f   pe_base.obj
 0001:0000ad71       ?get_heap_size_reserve_32@pe_base@pe_bliss@@QBEIXZ 0040bd71 f   pe_base.obj
 0001:0000ad7c       ?get_heap_size_reserve_64@pe_base@pe_bliss@@QBE_KXZ 0040bd7c f   pe_base.obj
 0001:0000ad87       ?get_image_base@pe_base@pe_bliss@@QBEXAAI@Z 0040bd87 f   pe_base.obj
 0001:0000ad9b       ?get_image_base@pe_base@pe_bliss@@QBEXAA_K@Z 0040bd9b f   pe_base.obj
 0001:0000adb2       ?get_image_base_32@pe_base@pe_bliss@@QBEIXZ 0040bdb2 f   pe_base.obj
 0001:0000adbd       ?get_image_base_64@pe_base@pe_bliss@@QBE_KXZ 0040bdbd f   pe_base.obj
 0001:0000adc8       ?get_image_sections@pe_base@pe_bliss@@QAEAAV?$vector@Vsection@pe_bliss@@V?$allocator@Vsection@pe_bliss@@@std@@@std@@XZ 0040bdc8 f   pe_base.obj
 0001:0000adcc       ?get_image_sections@pe_base@pe_bliss@@QBEABV?$vector@Vsection@pe_bliss@@V?$allocator@Vsection@pe_bliss@@@std@@@std@@XZ 0040bdcc f   pe_base.obj
 0001:0000add0       ?get_machine@pe_base@pe_bliss@@QBEGXZ 0040bdd0 f   pe_base.obj
 0001:0000adde       ?get_magic@pe_base@pe_bliss@@QBEIXZ 0040bdde f   pe_base.obj
 0001:0000adec       ?get_major_os_version@pe_base@pe_bliss@@QBEGXZ 0040bdec f   pe_base.obj
 0001:0000adfa       ?get_major_subsystem_version@pe_base@pe_bliss@@QBEGXZ 0040bdfa f   pe_base.obj
 0001:0000ae08       ?get_minor_os_version@pe_base@pe_bliss@@QBEGXZ 0040be08 f   pe_base.obj
 0001:0000ae16       ?get_minor_subsystem_version@pe_base@pe_bliss@@QBEGXZ 0040be16 f   pe_base.obj
 0001:0000ae24       ?get_needed_magic@pe_base@pe_bliss@@ABEIXZ 0040be24 f   pe_base.obj
 0001:0000ae32       ?get_nt_headers_ptr@pe_base@pe_bliss@@AAEPADXZ 0040be32 f   pe_base.obj
 0001:0000ae40       ?get_nt_headers_ptr@pe_base@pe_bliss@@QBEPBDXZ 0040be40 f   pe_base.obj
 0001:0000ae4e       ?get_number_of_rvas_and_sizes@pe_base@pe_bliss@@QBEIXZ 0040be4e f   pe_base.obj
 0001:0000ae5c       ?get_number_of_sections@pe_base@pe_bliss@@QBEGXZ 0040be5c f   pe_base.obj
 0001:0000ae6a       ?get_pe_header_start@pe_base@pe_bliss@@QBEHXZ 0040be6a f   pe_base.obj
 0001:0000ae6e       ?get_pe_signature@pe_base@pe_bliss@@QBEIXZ 0040be6e f   pe_base.obj
 0001:0000ae7c       ?get_pe_type@pe_base@pe_bliss@@QBE?AW4pe_type@2@XZ 0040be7c f   pe_base.obj
 0001:0000ae87       ?get_pe_type@pe_base@pe_bliss@@SG?AW4pe_type@2@AAV?$basic_istream@DU?$char_traits@D@std@@@std@@@Z 0040be87 f   pe_base.obj
 0001:0000b080       ?get_raw_debug_data_list@pe_base@pe_bliss@@QBEABV?$multimap@IV?$basic_string@DU?$char_traits@D@std@@V?$allocator@D@2@@std@@U?$less@I@2@V?$allocator@U?$pair@$$CBIV?$basic_string@DU?$char_traits@D@std@@V?$allocator@D@2@@std@@@std@@@2@@std@@XZ 0040c080 f   pe_base.obj
 0001:0000b087       ?get_section_alignment@pe_base@pe_bliss@@QBEIXZ 0040c087 f   pe_base.obj
 0001:0000b092       ?get_size_of_headers@pe_base@pe_bliss@@QBEIXZ 0040c092 f   pe_base.obj
 0001:0000b0a0       ?get_size_of_image@pe_base@pe_bliss@@QBEIXZ 0040c0a0 f   pe_base.obj
 0001:0000b0ae       ?get_size_of_optional_header@pe_base@pe_bliss@@QBEGXZ 0040c0ae f   pe_base.obj
 0001:0000b0bc       ?get_sizeof_nt_header@pe_base@pe_bliss@@QBEIXZ 0040c0bc f   pe_base.obj
 0001:0000b0ca       ?get_sizeof_opt_headers@pe_base@pe_bliss@@QBEIXZ 0040c0ca f   pe_base.obj
 0001:0000b0d8       ?get_stack_size_commit@pe_base@pe_bliss@@QBEXAAI@Z 0040c0d8 f   pe_base.obj
 0001:0000b0ec       ?get_stack_size_commit@pe_base@pe_bliss@@QBEXAA_K@Z 0040c0ec f   pe_base.obj
 0001:0000b0fd       ?get_stack_size_commit_32@pe_base@pe_bliss@@QBEIXZ 0040c0fd f   pe_base.obj
 0001:0000b108       ?get_stack_size_commit_64@pe_base@pe_bliss@@QBE_KXZ 0040c108 f   pe_base.obj
 0001:0000b116       ?get_stack_size_reserve@pe_base@pe_bliss@@QBEXAAI@Z 0040c116 f   pe_base.obj
 0001:0000b124       ?get_stack_size_reserve@pe_base@pe_bliss@@QBEXAA_K@Z 0040c124 f   pe_base.obj
 0001:0000b135       ?get_stack_size_reserve_32@pe_base@pe_bliss@@QBEIXZ 0040c135 f   pe_base.obj
 0001:0000b143       ?get_stack_size_reserve_64@pe_base@pe_bliss@@QBE_KXZ 0040c143 f   pe_base.obj
 0001:0000b151       ?get_stub_overlay@pe_base@pe_bliss@@QBEABV?$basic_string@DU?$char_traits@D@std@@V?$allocator@D@2@@std@@XZ 0040c151 f   pe_base.obj
 0001:0000b155       ?get_subsystem@pe_base@pe_bliss@@QBEGXZ 0040c155 f   pe_base.obj
 0001:0000b163       ?get_time_date_stamp@pe_base@pe_bliss@@QBEIXZ 0040c163 f   pe_base.obj
 0001:0000b171       ?has_bound_import@pe_base@pe_bliss@@QBE_NXZ 0040c171 f   pe_base.obj
 0001:0000b17f       ?has_config@pe_base@pe_bliss@@QBE_NXZ 0040c17f f   pe_base.obj
 0001:0000b18d       ?has_debug@pe_base@pe_bliss@@QBE_NXZ 0040c18d f   pe_base.obj
 0001:0000b19b       ?has_delay_import@pe_base@pe_bliss@@QBE_NXZ 0040c19b f   pe_base.obj
 0001:0000b1a9       ?has_exception_directory@pe_base@pe_bliss@@QBE_NXZ 0040c1a9 f   pe_base.obj
 0001:0000b1b7       ?has_exports@pe_base@pe_bliss@@QBE_NXZ 0040c1b7 f   pe_base.obj
 0001:0000b1c5       ?has_imports@pe_base@pe_bliss@@QBE_NXZ 0040c1c5 f   pe_base.obj
 0001:0000b1d3       ?has_overlay@pe_base@pe_bliss@@QBE_NXZ 0040c1d3 f   pe_base.obj
 0001:0000b1d7       ?has_reloc@pe_base@pe_bliss@@QBE_NXZ 0040c1d7 f   pe_base.obj
 0001:0000b1fe       ?has_resources@pe_base@pe_bliss@@QBE_NXZ 0040c1fe f   pe_base.obj
 0001:0000b20c       ?has_security@pe_base@pe_bliss@@QBE_NXZ 0040c20c f   pe_base.obj
 0001:0000b21a       ?has_tls@pe_base@pe_bliss@@QBE_NXZ 0040c21a f   pe_base.obj
 0001:0000b228       ?is_console@pe_base@pe_bliss@@QBE_NXZ 0040c228 f   pe_base.obj
 0001:0000b235       ?is_dotnet@pe_base@pe_bliss@@QBE_NXZ 0040c235 f   pe_base.obj
 0001:0000b243       ?is_gui@pe_base@pe_bliss@@QBE_NXZ 0040c243 f   pe_base.obj
 0001:0000b250       ?prepare_section@pe_base@pe_bliss@@QAEXAAVsection@2@@Z 0040c250 f   pe_base.obj
 0001:0000b319       ?read@?$basic_istream@DU?$char_traits@D@std@@@std@@QAEAAV12@PAD_J@Z 0040c319 f i pe_base.obj
 0001:0000b418       ?read_dos_header@pe_base@pe_bliss@@AAEXAAV?$basic_istream@DU?$char_traits@D@std@@@std@@@Z 0040c418 f   pe_base.obj
 0001:0000b425       ?read_dos_header@pe_base@pe_bliss@@SGXAAV?$basic_istream@DU?$char_traits@D@std@@@std@@AAUimage_dos_header@pe_win@2@@Z 0040c425 f   pe_base.obj
 0001:0000b499       ?read_pe@pe_base@pe_bliss@@AAEXAAV?$basic_istream@DU?$char_traits@D@std@@@std@@_N@Z 0040c499 f   pe_base.obj
 0001:0000c091       ?realign_all_sections@pe_base@pe_bliss@@QAEXXZ 0040d091 f   pe_base.obj
 0001:0000c0c2       ?realign_file@pe_base@pe_bliss@@QAEXI@Z 0040d0c2 f   pe_base.obj
 0001:0000c0d9       ?realign_section@pe_base@pe_bliss@@QAEXI@Z 0040d0d9 f   pe_base.obj
 0001:0000c1b2       ?recalculate_section_sizes@pe_base@pe_bliss@@QAEXAAVsection@2@_N@Z 0040d1b2 f   pe_base.obj
 0001:0000c27e       ?remove_directory@pe_base@pe_bliss@@QAEXI@Z 0040d27e f   pe_base.obj
 0001:0000c289       ?resize@?$basic_string@DU?$char_traits@D@std@@V?$allocator@D@2@@std@@QAEXID@Z 0040d289 f i pe_base.obj
 0001:0000c2b3       ?rva_from_section_offset@pe_base@pe_bliss@@SGIABVsection@2@I@Z 0040d2b3 f   pe_base.obj
 0001:0000c2c3       ?rva_to_file_offset@pe_base@pe_bliss@@QBEII@Z 0040d2c3 f   pe_base.obj
 0001:0000c2f9       ?rva_to_va@pe_base@pe_bliss@@QBEXIAAI@Z 0040d2f9 f   pe_base.obj
 0001:0000c30b       ?rva_to_va@pe_base@pe_bliss@@QBEXIAA_K@Z 0040d30b f   pe_base.obj
 0001:0000c320       ?rva_to_va_32@pe_base@pe_bliss@@QBEII@Z 0040d320 f   pe_base.obj
 0001:0000c32e       ?rva_to_va_64@pe_base@pe_bliss@@QBE_KI@Z 0040d32e f   pe_base.obj
 0001:0000c33c       ?section_and_offset_from_rva@pe_base@pe_bliss@@QBE?BU?$pair@IPBVsection@pe_bliss@@@std@@I@Z 0040d33c f   pe_base.obj
 0001:0000c361       ?section_attached@pe_base@pe_bliss@@QBE_NABVsection@2@@Z 0040d361 f   pe_base.obj
 0001:0000c390       ?section_data_from_rva@pe_base@pe_bliss@@QAEPADAAVsection@2@I@Z 0040d390 f   pe_base.obj
 0001:0000c423       ?section_data_from_rva@pe_base@pe_bliss@@QAEPADI_N@Z 0040d423 f   pe_base.obj
 0001:0000c491       ?section_data_from_rva@pe_base@pe_bliss@@QBEPBDABVsection@2@IW4section_data_type@2@@Z 0040d491 f   pe_base.obj
 0001:0000c53e       ?section_data_from_rva@pe_base@pe_bliss@@QBEPBDIW4section_data_type@2@_N@Z 0040d53e f   pe_base.obj
 0001:0000c5b5       ?section_data_from_va@pe_base@pe_bliss@@QAEPADAAVsection@2@I@Z 0040d5b5 f   pe_base.obj
 0001:0000c5dc       ?section_data_from_va@pe_base@pe_bliss@@QAEPADAAVsection@2@_K@Z 0040d5dc f   pe_base.obj
 0001:0000c5fe       ?section_data_from_va@pe_base@pe_bliss@@QAEPADI_N@Z 0040d5fe f   pe_base.obj
 0001:0000c625       ?section_data_from_va@pe_base@pe_bliss@@QAEPAD_K_N@Z 0040d625 f   pe_base.obj
 0001:0000c647       ?section_data_from_va@pe_base@pe_bliss@@QBEPBDABVsection@2@IW4section_data_type@2@@Z 0040d647 f   pe_base.obj
 0001:0000c672       ?section_data_from_va@pe_base@pe_bliss@@QBEPBDABVsection@2@_KW4section_data_type@2@@Z 0040d672 f   pe_base.obj
 0001:0000c698       ?section_data_from_va@pe_base@pe_bliss@@QBEPBDIW4section_data_type@2@_N@Z 0040d698 f   pe_base.obj
 0001:0000c6c3       ?section_data_from_va@pe_base@pe_bliss@@QBEPBD_KW4section_data_type@2@_N@Z 0040d6c3 f   pe_base.obj
 0001:0000c6e9       ?section_data_length_from_rva@pe_base@pe_bliss@@QBEIABVsection@2@IW4section_data_type@2@@Z 0040d6e9 f   pe_base.obj
 0001:0000c784       ?section_data_length_from_rva@pe_base@pe_bliss@@QBEIIIW4section_data_type@2@_N@Z 0040d784 f   pe_base.obj
 0001:0000c819       ?section_data_length_from_rva@pe_base@pe_bliss@@QBEIIW4section_data_type@2@_N@Z 0040d819 f   pe_base.obj
 0001:0000c863       ?section_data_length_from_va@pe_base@pe_bliss@@QBEIABVsection@2@IW4section_data_type@2@@Z 0040d863 f   pe_base.obj
 0001:0000c88e       ?section_data_length_from_va@pe_base@pe_bliss@@QBEIABVsection@2@_KW4section_data_type@2@@Z 0040d88e f   pe_base.obj
 0001:0000c8b4       ?section_data_length_from_va@pe_base@pe_bliss@@QBEIIIW4section_data_type@2@_N@Z 0040d8b4 f   pe_base.obj
 0001:0000c8f8       ?section_data_length_from_va@pe_base@pe_bliss@@QBEIIW4section_data_type@2@_N@Z 0040d8f8 f   pe_base.obj
 0001:0000c923       ?section_data_length_from_va@pe_base@pe_bliss@@QBEI_K0W4section_data_type@2@_N@Z 0040d923 f   pe_base.obj
 0001:0000c959       ?section_data_length_from_va@pe_base@pe_bliss@@QBEI_KW4section_data_type@2@_N@Z 0040d959 f   pe_base.obj
 0001:0000c97f       ?section_from_directory@pe_base@pe_bliss@@QAEAAVsection@2@I@Z 0040d97f f   pe_base.obj
 0001:0000c99d       ?section_from_directory@pe_base@pe_bliss@@QBEABVsection@2@I@Z 0040d99d f   pe_base.obj
 0001:0000c9bb       ?section_from_file_offset@pe_base@pe_bliss@@QAEAAVsection@2@I@Z 0040d9bb f   pe_base.obj
 0001:0000c9d0       ?section_from_file_offset@pe_base@pe_bliss@@QBEABVsection@2@I@Z 0040d9d0 f   pe_base.obj
 0001:0000c9e5       ?section_from_rva@pe_base@pe_bliss@@QAEAAVsection@2@I@Z 0040d9e5 f   pe_base.obj
 0001:0000ca55       ?section_from_rva@pe_base@pe_bliss@@QBEABVsection@2@I@Z 0040da55 f   pe_base.obj
 0001:0000cac5       ?section_from_va@pe_base@pe_bliss@@QAEAAVsection@2@I@Z 0040dac5 f   pe_base.obj
 0001:0000cae8       ?section_from_va@pe_base@pe_bliss@@QAEAAVsection@2@_K@Z 0040dae8 f   pe_base.obj
 0001:0000cb06       ?section_from_va@pe_base@pe_bliss@@QBEABVsection@2@I@Z 0040db06 f   pe_base.obj
 0001:0000cb29       ?section_from_va@pe_base@pe_bliss@@QBEABVsection@2@_K@Z 0040db29 f   pe_base.obj
 0001:0000cb47       ?set_base_of_code@pe_base@pe_bliss@@QAEXI@Z 0040db47 f   pe_base.obj
 0001:0000cb55       ?set_characteristics@pe_base@pe_bliss@@QAEXG@Z 0040db55 f   pe_base.obj
 0001:0000cb63       ?set_characteristics_flags@pe_base@pe_bliss@@QAEXG@Z 0040db63 f   pe_base.obj
 0001:0000cb7f       ?set_checksum@pe_base@pe_bliss@@QAEXI@Z 0040db7f f   pe_base.obj
 0001:0000cb8d       ?set_directory_rva@pe_base@pe_bliss@@QAEXII@Z 0040db8d f   pe_base.obj
 0001:0000cb98       ?set_directory_size@pe_base@pe_bliss@@QAEXII@Z 0040db98 f   pe_base.obj
 0001:0000cba3       ?set_dll_characteristics@pe_base@pe_bliss@@QAEXG@Z 0040dba3 f   pe_base.obj
 0001:0000cbb1       ?set_ep@pe_base@pe_bliss@@QAEXI@Z 0040dbb1 f   pe_base.obj
 0001:0000cbbc       ?set_file_alignment@pe_base@pe_bliss@@QAEXI@Z 0040dbbc f   pe_base.obj
 0001:0000cc25       ?set_file_alignment_unchecked@pe_base@pe_bliss@@AAEXI@Z 0040dc25 f   pe_base.obj
 0001:0000cc33       ?set_heap_size_commit@pe_base@pe_bliss@@QAEXI@Z 0040dc33 f   pe_base.obj
 0001:0000cc3e       ?set_heap_size_commit@pe_base@pe_bliss@@QAEX_K@Z 0040dc3e f   pe_base.obj
 0001:0000cc54       ?set_heap_size_reserve@pe_base@pe_bliss@@QAEXI@Z 0040dc54 f   pe_base.obj
 0001:0000cc5f       ?set_heap_size_reserve@pe_base@pe_bliss@@QAEX_K@Z 0040dc5f f   pe_base.obj
 0001:0000cc75       ?set_image_base@pe_base@pe_bliss@@QAEXI@Z 0040dc75 f   pe_base.obj
 0001:0000cc80       ?set_image_base_64@pe_base@pe_bliss@@QAEX_K@Z 0040dc80 f   pe_base.obj
 0001:0000cc96       ?set_machine@pe_base@pe_bliss@@QAEXG@Z 0040dc96 f   pe_base.obj
 0001:0000cca4       ?set_number_of_rvas_and_sizes@pe_base@pe_bliss@@QAEXI@Z 0040dca4 f   pe_base.obj
 0001:0000ccb2       ?set_number_of_sections@pe_base@pe_bliss@@AAEXG@Z 0040dcb2 f   pe_base.obj
 0001:0000ccc0       ?set_os_version@pe_base@pe_bliss@@QAEXGG@Z 0040dcc0 f   pe_base.obj
 0001:0000ccce       ?set_section_virtual_size@pe_base@pe_bliss@@QAEXAAVsection@2@I@Z 0040dcce f   pe_base.obj
 0001:0000cd85       ?set_size_of_headers@pe_base@pe_bliss@@QAEXI@Z 0040dd85 f   pe_base.obj
 0001:0000cd93       ?set_size_of_image@pe_base@pe_bliss@@AAEXI@Z 0040dd93 f   pe_base.obj
 0001:0000cda1       ?set_size_of_optional_header@pe_base@pe_bliss@@QAEXG@Z 0040dda1 f   pe_base.obj
 0001:0000cdaf       ?set_stack_size_commit@pe_base@pe_bliss@@QAEXI@Z 0040ddaf f   pe_base.obj
 0001:0000cdba       ?set_stack_size_commit@pe_base@pe_bliss@@QAEX_K@Z 0040ddba f   pe_base.obj
 0001:0000cdd0       ?set_stack_size_reserve@pe_base@pe_bliss@@QAEXI@Z 0040ddd0 f   pe_base.obj
 0001:0000cddb       ?set_stack_size_reserve@pe_base@pe_bliss@@QAEX_K@Z 0040dddb f   pe_base.obj
 0001:0000cdf1       ?set_stub_overlay@pe_base@pe_bliss@@QAEXABV?$basic_string@DU?$char_traits@D@std@@V?$allocator@D@2@@std@@@Z 0040ddf1 f   pe_base.obj
 0001:0000cdf9       ?set_subsystem@pe_base@pe_bliss@@QAEXG@Z 0040ddf9 f   pe_base.obj
 0001:0000ce07       ?set_subsystem_version@pe_base@pe_bliss@@QAEXGG@Z 0040de07 f   pe_base.obj
 0001:0000ce15       ?set_time_date_stamp@pe_base@pe_bliss@@QAEXI@Z 0040de15 f   pe_base.obj
 0001:0000ce23       ?strip_data_directories@pe_base@pe_bliss@@QAEII_N@Z 0040de23 f   pe_base.obj
 0001:0000ce2e       ?strip_stub_overlay@pe_base@pe_bliss@@QAEXXZ 0040de2e f   pe_base.obj
 0001:0000ce41       ?update_image_size@pe_base@pe_bliss@@QAEXXZ 0040de41 f   pe_base.obj
 0001:0000ce89       ?update_number_of_sections@pe_base@pe_bliss@@QAEGXZ 0040de89 f   pe_base.obj
 0001:0000cead       ?va_to_rva@pe_base@pe_bliss@@QBEII_N@Z 0040dead f   pe_base.obj
 0001:0000cebb       ?va_to_rva@pe_base@pe_bliss@@QBEI_K_N@Z 0040debb f   pe_base.obj
 0001:0000ced8       ??$_Destroy_range@V?$allocator@Vbound_import@pe_bliss@@@std@@@std@@YGXPAVbound_import@pe_bliss@@QAV12@AAV?$allocator@Vbound_import@pe_bliss@@@0@@Z 0040ded8 f i pe_bound_import.obj
 0001:0000cef5       ??$_Destroy_range@V?$allocator@Vbound_import_ref@pe_bliss@@@std@@@std@@YGXPAVbound_import_ref@pe_bliss@@QAV12@AAV?$allocator@Vbound_import_ref@pe_bliss@@@0@@Z 0040def5 f i pe_bound_import.obj
 0001:0000cf10       ??$_Emplace_back@Vbound_import_ref@pe_bliss@@@?$_Uninitialized_backout_al@V?$allocator@Vbound_import_ref@pe_bliss@@@std@@@std@@QAEX$$QAVbound_import_ref@pe_bliss@@@Z 0040df10 f i pe_bound_import.obj
 0001:0000cf34       ??$_Emplace_reallocate@ABVbound_import@pe_bliss@@@?$vector@Vbound_import@pe_bliss@@V?$allocator@Vbound_import@pe_bliss@@@std@@@std@@QAEPAVbound_import@pe_bliss@@QAV23@ABV23@@Z 0040df34 f i pe_bound_import.obj
 0001:0000d02b       ??$_Emplace_reallocate@ABVbound_import_ref@pe_bliss@@@?$vector@Vbound_import_ref@pe_bliss@@V?$allocator@Vbound_import_ref@pe_bliss@@@std@@@std@@QAEPAVbound_import_ref@pe_bliss@@QAV23@ABV23@@Z 0040e02b f i pe_bound_import.obj
 0001:0000d122       ??$_Get_size_of_n@$0BM@@std@@YGII@Z 0040e122 f i pe_bound_import.obj
 0001:0000d139       ??$_Get_size_of_n@$0CI@@std@@YGII@Z 0040e139 f i pe_bound_import.obj
 0001:0000d150       ??$_Uninitialized_copy@PAVbound_import_ref@pe_bliss@@V?$allocator@Vbound_import_ref@pe_bliss@@@std@@@std@@YGPAVbound_import_ref@pe_bliss@@QAV12@0PAV12@AAV?$allocator@Vbound_import_ref@pe_bliss@@@0@@Z 0040e150 f i pe_bound_import.obj
 0001:0000d182       ??$_Uninitialized_move@PAVbound_import@pe_bliss@@V?$allocator@Vbound_import@pe_bliss@@@std@@@std@@YGPAVbound_import@pe_bliss@@QAV12@0PAV12@AAV?$allocator@Vbound_import@pe_bliss@@@0@@Z 0040e182 f i pe_bound_import.obj
 0001:0000d1b4       ??$_Uninitialized_move@PAVbound_import_ref@pe_bliss@@V?$allocator@Vbound_import_ref@pe_bliss@@@std@@@std@@YGPAVbound_import_ref@pe_bliss@@QAV12@0PAV12@AAV?$allocator@Vbound_import_ref@pe_bliss@@@0@@Z 0040e1b4 f i pe_bound_import.obj
 0001:0000d1fa       ??$emplace_back@ABVbound_import_ref@pe_bliss@@@?$vector@Vbound_import_ref@pe_bliss@@V?$allocator@Vbound_import_ref@pe_bliss@@@std@@@std@@QAEXABVbound_import_ref@pe_bliss@@@Z 0040e1fa f i pe_bound_import.obj
 0001:0000d220       ??$is_null_terminated@D@pe_utils@pe_bliss@@SG_NPBDI@Z 0040e220 f i pe_bound_import.obj
 0001:0000d242       ??0?$vector@Vbound_import@pe_bliss@@V?$allocator@Vbound_import@pe_bliss@@@std@@@std@@QAE@$$QAV01@@Z 0040e242 f i pe_bound_import.obj
 0001:0000d26f       ??0?$vector@Vbound_import_ref@pe_bliss@@V?$allocator@Vbound_import_ref@pe_bliss@@@std@@@std@@QAE@$$QAV01@@Z 0040e26f f i pe_bound_import.obj
 0001:0000d29c       ??0?$vector@Vbound_import_ref@pe_bliss@@V?$allocator@Vbound_import_ref@pe_bliss@@@std@@@std@@QAE@ABV01@@Z 0040e29c f i pe_bound_import.obj
 0001:0000d2df       ??0bound_import@pe_bliss@@QAE@$$QAV01@@Z 0040e2df f i pe_bound_import.obj
 0001:0000d306       ??0bound_import@pe_bliss@@QAE@ABV01@@Z 0040e306 f i pe_bound_import.obj
 0001:0000d335       ??0bound_import@pe_bliss@@QAE@ABV?$basic_string@DU?$char_traits@D@std@@V?$allocator@D@2@@std@@I@Z 0040e335 f   pe_bound_import.obj
 0001:0000d361       ??0bound_import@pe_bliss@@QAE@XZ 0040e361 f   pe_bound_import.obj
 0001:0000d37e       ??0bound_import_ref@pe_bliss@@QAE@ABV01@@Z 0040e37e f i pe_bound_import.obj
 0001:0000d3a1       ??0bound_import_ref@pe_bliss@@QAE@ABV?$basic_string@DU?$char_traits@D@std@@V?$allocator@D@2@@std@@I@Z 0040e3a1 f   pe_bound_import.obj
 0001:0000d3c2       ??0bound_import_ref@pe_bliss@@QAE@XZ 0040e3c2 f   pe_bound_import.obj
 0001:0000d3d6       ??_Gbound_import@pe_bliss@@QAEPAXI@Z 0040e3d6 f i pe_bound_import.obj
 0001:0000d3ff       ?_Buy_raw@?$vector@Vbound_import_ref@pe_bliss@@V?$allocator@Vbound_import_ref@pe_bliss@@@std@@@std@@AAEXI@Z 0040e3ff f i pe_bound_import.obj
 0001:0000d425       ?_Calculate_growth@?$vector@Vbound_import@pe_bliss@@V?$allocator@Vbound_import@pe_bliss@@@std@@@std@@ABEII@Z 0040e425 f i pe_bound_import.obj
 0001:0000d44e       ?_Calculate_growth@?$vector@Vbound_import_ref@pe_bliss@@V?$allocator@Vbound_import_ref@pe_bliss@@@std@@@std@@ABEII@Z 0040e44e f i pe_bound_import.obj
 0001:0000d477       ?_Change_array@?$vector@Vbound_import@pe_bliss@@V?$allocator@Vbound_import@pe_bliss@@@std@@@std@@AAEXQAVbound_import@pe_bliss@@II@Z 0040e477 f i pe_bound_import.obj
 0001:0000d4be       ?_Change_array@?$vector@Vbound_import_ref@pe_bliss@@V?$allocator@Vbound_import_ref@pe_bliss@@@std@@@std@@AAEXQAVbound_import_ref@pe_bliss@@II@Z 0040e4be f i pe_bound_import.obj
 0001:0000d505       ?_Destroy@?$vector@Vbound_import@pe_bliss@@V?$allocator@Vbound_import@pe_bliss@@@std@@@std@@AAEXPAVbound_import@pe_bliss@@0@Z 0040e505 f i pe_bound_import.obj
 0001:0000d516       ?_Destroy@?$vector@Vbound_import_ref@pe_bliss@@V?$allocator@Vbound_import_ref@pe_bliss@@@std@@@std@@AAEXPAVbound_import_ref@pe_bliss@@0@Z 0040e516 f i pe_bound_import.obj
 0001:0000d527       ?_Tidy@?$vector@Vbound_import_ref@pe_bliss@@V?$allocator@Vbound_import_ref@pe_bliss@@@std@@@std@@AAEXXZ 0040e527 f i pe_bound_import.obj
 0001:0000d55c       ?_Xlength@?$vector@Vbound_import@pe_bliss@@V?$allocator@Vbound_import@pe_bliss@@@std@@@std@@CGXXZ 0040e55c f i pe_bound_import.obj
 0001:0000d567       ?_Xlength@?$vector@Vbound_import_ref@pe_bliss@@V?$allocator@Vbound_import_ref@pe_bliss@@@std@@@std@@CGXXZ 0040e567 f i pe_bound_import.obj
 0001:0000d572       ?add_module_ref@bound_import@pe_bliss@@QAEXABVbound_import_ref@2@@Z 0040e572 f   pe_bound_import.obj
 0001:0000d57a       ?clear_module_refs@bound_import@pe_bliss@@QAEXXZ 0040e57a f   pe_bound_import.obj
 0001:0000d590       ?deallocate@?$allocator@Vbound_import@pe_bliss@@@std@@QAEXQAVbound_import@pe_bliss@@I@Z 0040e590 f i pe_bound_import.obj
 0001:0000d5a2       ?deallocate@?$allocator@Vbound_import_ref@pe_bliss@@@std@@QAEXQAVbound_import_ref@pe_bliss@@I@Z 0040e5a2 f i pe_bound_import.obj
 0001:0000d5b4       ?get_bound_import_module_list@pe_bliss@@YG?BV?$vector@Vbound_import@pe_bliss@@V?$allocator@Vbound_import@pe_bliss@@@std@@@std@@ABVpe_base@1@@Z 0040e5b4 f   pe_bound_import.obj
 0001:0000da86       ?get_module_name@bound_import@pe_bliss@@QBEABV?$basic_string@DU?$char_traits@D@std@@V?$allocator@D@2@@std@@XZ 0040ea86 f   pe_bound_import.obj
 0001:0000da89       ?get_module_name@bound_import_ref@pe_bliss@@QBEABV?$basic_string@DU?$char_traits@D@std@@V?$allocator@D@2@@std@@XZ 0040ea89 f   pe_bound_import.obj
 0001:0000da8c       ?get_module_ref_count@bound_import@pe_bliss@@QBEIXZ 0040ea8c f   pe_bound_import.obj
 0001:0000da99       ?get_module_ref_list@bound_import@pe_bliss@@QAEAAV?$vector@Vbound_import_ref@pe_bliss@@V?$allocator@Vbound_import_ref@pe_bliss@@@std@@@std@@XZ 0040ea99 f   pe_bound_import.obj
 0001:0000da9d       ?get_module_ref_list@bound_import@pe_bliss@@QBEABV?$vector@Vbound_import_ref@pe_bliss@@V?$allocator@Vbound_import_ref@pe_bliss@@@std@@@std@@XZ 0040ea9d f   pe_bound_import.obj
 0001:0000daa1       ?get_timestamp@bound_import@pe_bliss@@QBEIXZ 0040eaa1 f   pe_bound_import.obj
 0001:0000daa5       ?get_timestamp@bound_import_ref@pe_bliss@@QBEIXZ 0040eaa5 f   pe_bound_import.obj
 0001:0000daa9       ?rebuild_bound_imports@pe_bliss@@YG?BVimage_directory@1@AAVpe_base@1@ABV?$vector@Vbound_import@pe_bliss@@V?$allocator@Vbound_import@pe_bliss@@@std@@@std@@AAVsection@1@I_N3@Z 0040eaa9 f   pe_bound_import.obj
 0001:0000dd5f       ?set_module_name@bound_import@pe_bliss@@QAEXABV?$basic_string@DU?$char_traits@D@std@@V?$allocator@D@2@@std@@@Z 0040ed5f f   pe_bound_import.obj
 0001:0000dd64       ?set_module_name@bound_import_ref@pe_bliss@@QAEXABV?$basic_string@DU?$char_traits@D@std@@V?$allocator@D@2@@std@@@Z 0040ed64 f   pe_bound_import.obj
 0001:0000dd69       ?set_timestamp@bound_import@pe_bliss@@QAEXI@Z 0040ed69 f   pe_bound_import.obj
 0001:0000dd73       ?set_timestamp@bound_import_ref@pe_bliss@@QAEXI@Z 0040ed73 f   pe_bound_import.obj
 0001:0000dd7d       ?calculate_checksum@pe_bliss@@YGIAAV?$basic_istream@DU?$char_traits@D@std@@@std@@@Z 0040ed7d f   pe_checksum.obj
 0001:0000df9a       ??$_Destroy_range@V?$allocator@Ucoff_symbol@coff_debug_info@pe_bliss@@@std@@@std@@YGXPAUcoff_symbol@coff_debug_info@pe_bliss@@QAU123@AAV?$allocator@Ucoff_symbol@coff_debug_info@pe_bliss@@@0@@Z 0040ef9a f i pe_debug.obj
 0001:0000dfb6       ??$_Destroy_range@V?$allocator@Vdebug_info@pe_bliss@@@std@@@std@@YGXPAVdebug_info@pe_bliss@@QAV12@AAV?$allocator@Vdebug_info@pe_bliss@@@0@@Z 0040efb6 f i pe_debug.obj
 0001:0000dfd1       ??$_Emplace_reallocate@ABUcoff_symbol@coff_debug_info@pe_bliss@@@?$vector@Ucoff_symbol@coff_debug_info@pe_bliss@@V?$allocator@Ucoff_symbol@coff_debug_info@pe_bliss@@@std@@@std@@QAEPAUcoff_symbol@coff_debug_info@pe_bliss@@QAU234@ABU234@@Z 0040efd1 f i pe_debug.obj
 0001:0000e0c8       ??$_Emplace_reallocate@ABVdebug_info@pe_bliss@@@?$vector@Vdebug_info@pe_bliss@@V?$allocator@Vdebug_info@pe_bliss@@@std@@@std@@QAEPAVdebug_info@pe_bliss@@QAV23@ABV23@@Z 0040f0c8 f i pe_debug.obj
 0001:0000e1c2       ??$_Find@I@?$_Tree@V?$_Tmap_traits@IV?$basic_string@DU?$char_traits@D@std@@V?$allocator@D@2@@std@@U?$less@I@2@V?$allocator@U?$pair@$$CBIV?$basic_string@DU?$char_traits@D@std@@V?$allocator@D@2@@std@@@std@@@2@$00@std@@@std@@ABEPAU?$_Tree_node@U?$pair@$$CBIV?$basic_string@DU?$char_traits@D@std@@V?$allocator@D@2@@std@@@std@@PAX@1@ABI@Z 0040f1c2 f i pe_debug.obj
 0001:0000e1f2       ??$_Find_lower_bound@I@?$_Tree@V?$_Tmap_traits@IV?$basic_string@DU?$char_traits@D@std@@V?$allocator@D@2@@std@@U?$less@I@2@V?$allocator@U?$pair@$$CBIV?$basic_string@DU?$char_traits@D@std@@V?$allocator@D@2@@std@@@std@@@2@$00@std@@@std@@IBE?AU?$_Tree_find_result@PAU?$_Tree_node@U?$pair@$$CBIV?$basic_string@DU?$char_traits@D@std@@V?$allocator@D@2@@std@@@std@@PAX@std@@@1@ABI@Z 0040f1f2 f i pe_debug.obj
 0001:0000e234       ??$_Get_size_of_n@$0CM@@std@@YGII@Z 0040f234 f i pe_debug.obj
 0001:0000e24b       ??$_Lower_bound_duplicate@I@?$_Tree@V?$_Tmap_traits@IV?$basic_string@DU?$char_traits@D@std@@V?$allocator@D@2@@std@@U?$less@I@2@V?$allocator@U?$pair@$$CBIV?$basic_string@DU?$char_traits@D@std@@V?$allocator@D@2@@std@@@std@@@2@$00@std@@@std@@IBE_NQAU?$_Tree_node@U?$pair@$$CBIV?$basic_string@DU?$char_traits@D@std@@V?$allocator@D@2@@std@@@std@@PAX@1@ABI@Z 0040f24b f i pe_debug.obj
 0001:0000e269       ??$_Pocma@V?$allocator@D@std@@@std@@YGXAAV?$allocator@D@0@0@Z 0040f269 f i pe_debug.obj
 0001:0000e26c       ??$_Pocma@V?$allocator@_W@std@@@std@@YGXAAV?$allocator@_W@0@0@Z 0040f26c f i pe_debug.obj
 0001:0000e26f       ??$_Uninitialized_copy@PAUcoff_symbol@coff_debug_info@pe_bliss@@V?$allocator@Ucoff_symbol@coff_debug_info@pe_bliss@@@std@@@std@@YGPAUcoff_symbol@coff_debug_info@pe_bliss@@QAU123@0PAU123@AAV?$allocator@Ucoff_symbol@coff_debug_info@pe_bliss@@@0@@Z 0040f26f f i pe_debug.obj
 0001:0000e2a1       ??$_Uninitialized_copy@PAVdebug_info@pe_bliss@@V?$allocator@Vdebug_info@pe_bliss@@@std@@@std@@YGPAVdebug_info@pe_bliss@@QAV12@0PAV12@AAV?$allocator@Vdebug_info@pe_bliss@@@0@@Z 0040f2a1 f i pe_debug.obj
 0001:0000e2d3       ??$_Uninitialized_move@PAUcoff_symbol@coff_debug_info@pe_bliss@@V?$allocator@Ucoff_symbol@coff_debug_info@pe_bliss@@@std@@@std@@YGPAUcoff_symbol@coff_debug_info@pe_bliss@@QAU123@0PAU123@AAV?$allocator@Ucoff_symbol@coff_debug_info@pe_bliss@@@0@@Z 0040f2d3 f i pe_debug.obj
 0001:0000e305       ??$_Uninitialized_move@PAVdebug_info@pe_bliss@@V?$allocator@Vdebug_info@pe_bliss@@@std@@@std@@YGPAVdebug_info@pe_bliss@@QAV12@0PAV12@AAV?$allocator@Vdebug_info@pe_bliss@@@0@@Z 0040f305 f i pe_debug.obj
 0001:0000e337       ??$emplace_back@ABUcoff_symbol@coff_debug_info@pe_bliss@@@?$vector@Ucoff_symbol@coff_debug_info@pe_bliss@@V?$allocator@Ucoff_symbol@coff_debug_info@pe_bliss@@@std@@@std@@QAEXABUcoff_symbol@coff_debug_info@pe_bliss@@@Z 0040f337 f i pe_debug.obj
 0001:0000e35d       ??$get_advanced_debug_info@Vcoff_debug_info@pe_bliss@@@debug_info@pe_bliss@@QBE?BVcoff_debug_info@1@XZ 0040f35d f   pe_debug.obj
 0001:0000e399       ??$get_advanced_debug_info@Vmisc_debug_info@pe_bliss@@@debug_info@pe_bliss@@QBE?BVmisc_debug_info@1@XZ 0040f399 f   pe_debug.obj
 0001:0000e3d5       ??$get_advanced_debug_info@Vpdb_2_0_info@pe_bliss@@@debug_info@pe_bliss@@QBE?BVpdb_2_0_info@1@XZ 0040f3d5 f   pe_debug.obj
 0001:0000e411       ??$get_advanced_debug_info@Vpdb_7_0_info@pe_bliss@@@debug_info@pe_bliss@@QBE?BVpdb_7_0_info@1@XZ 0040f411 f   pe_debug.obj
 0001:0000e44d       ??$is_null_terminated@E@pe_utils@pe_bliss@@SG_NPBEI@Z 0040f44d f i pe_debug.obj
 0001:0000e46f       ??0?$basic_string@DU?$char_traits@D@std@@V?$allocator@D@2@@std@@QAE@QBDI@Z 0040f46f f i pe_debug.obj
 0001:0000e493       ??0?$basic_string@_WU?$char_traits@_W@std@@V?$allocator@_W@2@@std@@QAE@QB_WI@Z 0040f493 f i pe_debug.obj
 0001:0000e4b9       ??0?$vector@Ucoff_symbol@coff_debug_info@pe_bliss@@V?$allocator@Ucoff_symbol@coff_debug_info@pe_bliss@@@std@@@std@@QAE@ABV01@@Z 0040f4b9 f i pe_debug.obj
 0001:0000e4fc       ??0?$vector@Vdebug_info@pe_bliss@@V?$allocator@Vdebug_info@pe_bliss@@@std@@@std@@QAE@$$QAV01@@Z 0040f4fc f i pe_debug.obj
 0001:0000e529       ??0advanced_info@debug_info@pe_bliss@@QAE@XZ 0040f529 f   pe_debug.obj
 0001:0000e52f       ??0coff_debug_info@pe_bliss@@QAE@ABV01@@Z 0040f52f f i pe_debug.obj
 0001:0000e576       ??0coff_debug_info@pe_bliss@@QAE@PBUimage_coff_symbols_header@pe_win@1@@Z 0040f576 f   pe_debug.obj
 0001:0000e5b8       ??0coff_debug_info@pe_bliss@@QAE@XZ 0040f5b8 f   pe_debug.obj
 0001:0000e5dd       ??0coff_symbol@coff_debug_info@pe_bliss@@QAE@$$QAU012@@Z 0040f5dd f i pe_debug.obj
 0001:0000e61a       ??0coff_symbol@coff_debug_info@pe_bliss@@QAE@ABU012@@Z 0040f61a f i pe_debug.obj
 0001:0000e65f       ??0coff_symbol@coff_debug_info@pe_bliss@@QAE@XZ 0040f65f f   pe_debug.obj
 0001:0000e685       ??0debug_info@pe_bliss@@QAE@ABUimage_debug_directory@pe_win@1@@Z 0040f685 f   pe_debug.obj
 0001:0000e6c6       ??0debug_info@pe_bliss@@QAE@ABV01@@Z 0040f6c6 f   pe_debug.obj
 0001:0000e711       ??0debug_info@pe_bliss@@QAE@XZ 0040f711 f   pe_debug.obj
 0001:0000e733       ??0misc_debug_info@pe_bliss@@QAE@ABV01@@Z 0040f733 f i pe_debug.obj
 0001:0000e774       ??0misc_debug_info@pe_bliss@@QAE@PBUimage_debug_misc@pe_win@1@@Z 0040f774 f   pe_debug.obj
 0001:0000e80d       ??0misc_debug_info@pe_bliss@@QAE@XZ 0040f80d f   pe_debug.obj
 0001:0000e832       ??0pdb_2_0_info@pe_bliss@@QAE@ABV01@@Z 0040f832 f i pe_debug.obj
 0001:0000e85d       ??0pdb_2_0_info@pe_bliss@@QAE@PBUCV_INFO_PDB20@pe_win@1@@Z 0040f85d f   pe_debug.obj
 0001:0000e881       ??0pdb_2_0_info@pe_bliss@@QAE@XZ 0040f881 f   pe_debug.obj
 0001:0000e898       ??0pdb_7_0_info@pe_bliss@@QAE@ABV01@@Z 0040f898 f i pe_debug.obj
 0001:0000e8cb       ??0pdb_7_0_info@pe_bliss@@QAE@PBUCV_INFO_PDB70@pe_win@1@@Z 0040f8cb f   pe_debug.obj
 0001:0000e8f7       ??0pdb_7_0_info@pe_bliss@@QAE@XZ 0040f8f7 f   pe_debug.obj
 0001:0000e914       ??1debug_info@pe_bliss@@QAE@XZ 0040f914 f   pe_debug.obj
 0001:0000e919       ??4?$basic_string@DU?$char_traits@D@std@@V?$allocator@D@2@@std@@QAEAAV01@$$QAV01@@Z 0040f919 f i pe_debug.obj
 0001:0000e93b       ??4?$basic_string@_WU?$char_traits@_W@std@@V?$allocator@_W@2@@std@@QAEAAV01@$$QAV01@@Z 0040f93b f i pe_debug.obj
 0001:0000e95d       ??4debug_info@pe_bliss@@QAEAAV01@ABV01@@Z 0040f95d f   pe_debug.obj
 0001:0000e9a6       ??_Gmisc_debug_info@pe_bliss@@QAEPAXI@Z 0040f9a6 f i pe_debug.obj
 0001:0000e9d0       ?_Buy_raw@?$vector@Ucoff_symbol@coff_debug_info@pe_bliss@@V?$allocator@Ucoff_symbol@coff_debug_info@pe_bliss@@@std@@@std@@AAEXI@Z 0040f9d0 f i pe_debug.obj
 0001:0000e9f6       ?_Calculate_growth@?$vector@Ucoff_symbol@coff_debug_info@pe_bliss@@V?$allocator@Ucoff_symbol@coff_debug_info@pe_bliss@@@std@@@std@@ABEII@Z 0040f9f6 f i pe_debug.obj
 0001:0000ea1f       ?_Calculate_growth@?$vector@Vdebug_info@pe_bliss@@V?$allocator@Vdebug_info@pe_bliss@@@std@@@std@@ABEII@Z 0040fa1f f i pe_debug.obj
 0001:0000ea48       ?_Change_array@?$vector@Ucoff_symbol@coff_debug_info@pe_bliss@@V?$allocator@Ucoff_symbol@coff_debug_info@pe_bliss@@@std@@@std@@AAEXQAUcoff_symbol@coff_debug_info@pe_bliss@@II@Z 0040fa48 f i pe_debug.obj
 0001:0000ea8f       ?_Change_array@?$vector@Vdebug_info@pe_bliss@@V?$allocator@Vdebug_info@pe_bliss@@@std@@@std@@AAEXQAVdebug_info@pe_bliss@@II@Z 0040fa8f f i pe_debug.obj
 0001:0000ead6       ?_Destroy@?$vector@Ucoff_symbol@coff_debug_info@pe_bliss@@V?$allocator@Ucoff_symbol@coff_debug_info@pe_bliss@@@std@@@std@@AAEXPAUcoff_symbol@coff_debug_info@pe_bliss@@0@Z 0040fad6 f i pe_debug.obj
 0001:0000eae7       ?_Destroy@?$vector@Vdebug_info@pe_bliss@@V?$allocator@Vdebug_info@pe_bliss@@@std@@@std@@AAEXPAVdebug_info@pe_bliss@@0@Z 0040fae7 f i pe_debug.obj
 0001:0000eaf8       ?_Move_assign@?$basic_string@DU?$char_traits@D@std@@V?$allocator@D@2@@std@@AAEXAAV12@U_Equal_allocators@2@@Z 0040faf8 f i pe_debug.obj
 0001:0000eb1f       ?_Move_assign@?$basic_string@_WU?$char_traits@_W@std@@V?$allocator@_W@2@@std@@AAEXAAV12@U_Equal_allocators@2@@Z 0040fb1f f i pe_debug.obj
 0001:0000eb48       ?_Tidy@?$vector@Ucoff_symbol@coff_debug_info@pe_bliss@@V?$allocator@Ucoff_symbol@coff_debug_info@pe_bliss@@@std@@@std@@AAEXXZ 0040fb48 f i pe_debug.obj
 0001:0000eb7d       ?_Tidy_deallocate@?$basic_string@_WU?$char_traits@_W@std@@V?$allocator@_W@2@@std@@AAEXXZ 0040fb7d f i pe_debug.obj
 0001:0000eba9       ?_Xlength@?$vector@Ucoff_symbol@coff_debug_info@pe_bliss@@V?$allocator@Ucoff_symbol@coff_debug_info@pe_bliss@@@std@@@std@@CGXXZ 0040fba9 f i pe_debug.obj
 0001:0000ebb4       ?_Xlength@?$vector@Vdebug_info@pe_bliss@@V?$allocator@Vdebug_info@pe_bliss@@@std@@@std@@CGXXZ 0040fbb4 f i pe_debug.obj
 0001:0000ebbf       ?add_symbol@coff_debug_info@pe_bliss@@QAEXABUcoff_symbol@12@@Z 0040fbbf f   pe_debug.obj
 0001:0000ebc7       ?copy_advanced_info@debug_info@pe_bliss@@AAEXABV12@@Z 0040fbc7 f   pe_debug.obj
 0001:0000ec5b       ?deallocate@?$allocator@Ucoff_symbol@coff_debug_info@pe_bliss@@@std@@QAEXQAUcoff_symbol@coff_debug_info@pe_bliss@@I@Z 0040fc5b f i pe_debug.obj
 0001:0000ec6d       ?deallocate@?$allocator@Vdebug_info@pe_bliss@@@std@@QAEXQAVdebug_info@pe_bliss@@I@Z 0040fc6d f i pe_debug.obj
 0001:0000ec7f       ?free_present_advanced_info@debug_info@pe_bliss@@AAEXXZ 0040fc7f f   pe_debug.obj
 0001:0000ecf2       ?get_advanced_info_type@debug_info@pe_bliss@@QBE?AW4advanced_info_type@12@XZ 0040fcf2 f   pe_debug.obj
 0001:0000ecf6       ?get_age@pdb_2_0_info@pe_bliss@@QBEIXZ 0040fcf6 f   pe_debug.obj
 0001:0000ecf9       ?get_age@pdb_7_0_info@pe_bliss@@QBEIXZ 0040fcf9 f   pe_debug.obj
 0001:0000ecfc       ?get_characteristics@debug_info@pe_bliss@@QBEIXZ 0040fcfc f   pe_debug.obj
 0001:0000ecff       ?get_data_ansi@misc_debug_info@pe_bliss@@QBEABV?$basic_string@DU?$char_traits@D@std@@V?$allocator@D@2@@std@@XZ 0040fcff f   pe_debug.obj
 0001:0000ed03       ?get_data_type@misc_debug_info@pe_bliss@@QBEIXZ 0040fd03 f   pe_debug.obj
 0001:0000ed06       ?get_data_unicode@misc_debug_info@pe_bliss@@QBEABV?$basic_string@_WU?$char_traits@_W@std@@V?$allocator@_W@2@@std@@XZ 0040fd06 f   pe_debug.obj
 0001:0000ed0a       ?get_debug_information@pe_bliss@@YG?BV?$vector@Vdebug_info@pe_bliss@@V?$allocator@Vdebug_info@pe_bliss@@@std@@@std@@ABVpe_base@1@@Z 0040fd0a f   pe_debug.obj
 0001:0000f6ef       ?get_guid@pdb_7_0_info@pe_bliss@@QBE?BUguid@pe_win@2@XZ 004106ef f   pe_debug.obj
 0001:0000f703       ?get_index@coff_symbol@coff_debug_info@pe_bliss@@QBEIXZ 00410703 f   pe_debug.obj
 0001:0000f707       ?get_lva_to_first_line_number@coff_debug_info@pe_bliss@@QBEIXZ 00410707 f   pe_debug.obj
 0001:0000f70b       ?get_lva_to_first_symbol@coff_debug_info@pe_bliss@@QBEIXZ 0041070b f   pe_debug.obj
 0001:0000f70f       ?get_major_version@debug_info@pe_bliss@@QBEIXZ 0041070f f   pe_debug.obj
 0001:0000f713       ?get_minor_version@debug_info@pe_bliss@@QBEIXZ 00410713 f   pe_debug.obj
 0001:0000f717       ?get_number_of_line_numbers@coff_debug_info@pe_bliss@@QBEIXZ 00410717 f   pe_debug.obj
 0001:0000f71b       ?get_number_of_symbols@coff_debug_info@pe_bliss@@QBEIXZ 0041071b f   pe_debug.obj
 0001:0000f71e       ?get_pdb_file_name@pdb_2_0_info@pe_bliss@@QBEABV?$basic_string@DU?$char_traits@D@std@@V?$allocator@D@2@@std@@XZ 0041071e f   pe_debug.obj
 0001:0000f722       ?get_pdb_file_name@pdb_7_0_info@pe_bliss@@QBEABV?$basic_string@DU?$char_traits@D@std@@V?$allocator@D@2@@std@@XZ 00410722 f   pe_debug.obj
 0001:0000f726       ?get_pointer_to_raw_data@debug_info@pe_bliss@@QBEIXZ 00410726 f   pe_debug.obj
 0001:0000f72a       ?get_rva@coff_symbol@coff_debug_info@pe_bliss@@QBEIXZ 0041072a f   pe_debug.obj
 0001:0000f72e       ?get_rva_of_raw_data@debug_info@pe_bliss@@QBEIXZ 0041072e f   pe_debug.obj
 0001:0000f732       ?get_rva_to_first_byte_of_code@coff_debug_info@pe_bliss@@QBEIXZ 00410732 f   pe_debug.obj
 0001:0000f736       ?get_rva_to_first_byte_of_data@coff_debug_info@pe_bliss@@QBEIXZ 00410736 f   pe_debug.obj
 0001:0000f73a       ?get_rva_to_last_byte_of_code@coff_debug_info@pe_bliss@@QBEIXZ 0041073a f   pe_debug.obj
 0001:0000f73e       ?get_rva_to_last_byte_of_data@coff_debug_info@pe_bliss@@QBEIXZ 0041073e f   pe_debug.obj
 0001:0000f742       ?get_section_number@coff_symbol@coff_debug_info@pe_bliss@@QBEIXZ 00410742 f   pe_debug.obj
 0001:0000f746       ?get_signature@pdb_2_0_info@pe_bliss@@QBEIXZ 00410746 f   pe_debug.obj
 0001:0000f74a       ?get_size_of_data@debug_info@pe_bliss@@QBEIXZ 0041074a f   pe_debug.obj
 0001:0000f74e       ?get_storage_class@coff_symbol@coff_debug_info@pe_bliss@@QBEIXZ 0041074e f   pe_debug.obj
 0001:0000f751       ?get_symbol@coff_symbol@coff_debug_info@pe_bliss@@QBEABV?$basic_string@DU?$char_traits@D@std@@V?$allocator@D@2@@std@@XZ 00410751 f   pe_debug.obj
 0001:0000f755       ?get_symbols@coff_debug_info@pe_bliss@@QBEABV?$vector@Ucoff_symbol@coff_debug_info@pe_bliss@@V?$allocator@Ucoff_symbol@coff_debug_info@pe_bliss@@@std@@@std@@XZ 00410755 f   pe_debug.obj
 0001:0000f759       ?get_time_stamp@debug_info@pe_bliss@@QBEIXZ 00410759 f   pe_debug.obj
 0001:0000f75d       ?get_type@coff_symbol@coff_debug_info@pe_bliss@@QBEGXZ 0041075d f   pe_debug.obj
 0001:0000f762       ?get_type@debug_info@pe_bliss@@QBE?AW4debug_info_type@12@XZ 00410762 f   pe_debug.obj
 0001:0000f7ce       ?get_type_raw@debug_info@pe_bliss@@QBEIXZ 004107ce f   pe_debug.obj
 0001:0000f7d2       ?is_exe_name@misc_debug_info@pe_bliss@@QBE_NXZ 004107d2 f   pe_debug.obj
 0001:0000f7d9       ?is_file@coff_symbol@coff_debug_info@pe_bliss@@QBE_NXZ 004107d9 f   pe_debug.obj
 0001:0000f7dd       ?is_present@advanced_info@debug_info@pe_bliss@@QBE_NXZ 004107dd f   pe_debug.obj
 0001:0000f7e4       ?is_unicode@misc_debug_info@pe_bliss@@QBE_NXZ 004107e4 f   pe_debug.obj
 0001:0000f7e8       ?set_advanced_debug_info@debug_info@pe_bliss@@QAEXABVcoff_debug_info@2@@Z 004107e8 f   pe_debug.obj
 0001:0000f819       ?set_advanced_debug_info@debug_info@pe_bliss@@QAEXABVmisc_debug_info@2@@Z 00410819 f   pe_debug.obj
 0001:0000f84a       ?set_advanced_debug_info@debug_info@pe_bliss@@QAEXABVpdb_2_0_info@2@@Z 0041084a f   pe_debug.obj
 0001:0000f87b       ?set_advanced_debug_info@debug_info@pe_bliss@@QAEXABVpdb_7_0_info@2@@Z 0041087b f   pe_debug.obj
 0001:0000f8ac       ?set_advanced_info_type@debug_info@pe_bliss@@QAEXW4advanced_info_type@12@@Z 004108ac f   pe_debug.obj
 0001:0000f8c5       ?set_file_name@coff_symbol@coff_debug_info@pe_bliss@@QAEXABV?$basic_string@DU?$char_traits@D@std@@V?$allocator@D@2@@std@@@Z 004108c5 f   pe_debug.obj
 0001:0000f8dc       ?set_index@coff_symbol@coff_debug_info@pe_bliss@@QAEXI@Z 004108dc f   pe_debug.obj
 0001:0000f8e6       ?set_rva@coff_symbol@coff_debug_info@pe_bliss@@QAEXI@Z 004108e6 f   pe_debug.obj
 0001:0000f8f0       ?set_section_number@coff_symbol@coff_debug_info@pe_bliss@@QAEXI@Z 004108f0 f   pe_debug.obj
 0001:0000f8fa       ?set_storage_class@coff_symbol@coff_debug_info@pe_bliss@@QAEXI@Z 004108fa f   pe_debug.obj
 0001:0000f903       ?set_symbol_name@coff_symbol@coff_debug_info@pe_bliss@@QAEXABV?$basic_string@DU?$char_traits@D@std@@V?$allocator@D@2@@std@@@Z 00410903 f   pe_debug.obj
 0001:0000f91a       ?set_type@coff_symbol@coff_debug_info@pe_bliss@@QAEXG@Z 0041091a f   pe_debug.obj
 0001:0000f926       ??0image_directory@pe_bliss@@QAE@II@Z 00410926 f   pe_directory.obj
 0001:0000f938       ??0image_directory@pe_bliss@@QAE@XZ 00410938 f   pe_directory.obj
 0001:0000f942       ?get_rva@image_directory@pe_bliss@@QBEIXZ 00410942 f   pe_directory.obj
 0001:0000f945       ?get_size@image_directory@pe_bliss@@QBEIXZ 00410945 f   pe_directory.obj
 0001:0000f949       ?set_rva@image_directory@pe_bliss@@QAEXI@Z 00410949 f   pe_directory.obj
 0001:0000f952       ?set_size@image_directory@pe_bliss@@QAEXI@Z 00410952 f   pe_directory.obj
 0001:0000f95c       ??$section_data_from_rva@Uimage_cor20_header@pe_win@pe_bliss@@@pe_base@pe_bliss@@QBE?AUimage_cor20_header@pe_win@1@IW4section_data_type@1@_N@Z 0041095c f i pe_dotnet.obj
 0001:0000fa0c       ??0basic_dotnet_info@pe_bliss@@QAE@ABUimage_cor20_header@pe_win@1@@Z 00410a0c f   pe_dotnet.obj
 0001:0000fa20       ??0basic_dotnet_info@pe_bliss@@QAE@XZ 00410a20 f   pe_dotnet.obj
 0001:0000fa34       ?get_basic_dotnet_info@pe_bliss@@YG?BVbasic_dotnet_info@1@ABVpe_base@1@@Z 00410a34 f   pe_dotnet.obj
 0001:0000fa93       ?get_entry_point_rva_or_token@basic_dotnet_info@pe_bliss@@QBEIXZ 00410a93 f   pe_dotnet.obj
 0001:0000fa97       ?get_flags@basic_dotnet_info@pe_bliss@@QBEIXZ 00410a97 f   pe_dotnet.obj
 0001:0000fa9b       ?get_major_runtime_version@basic_dotnet_info@pe_bliss@@QBEGXZ 00410a9b f   pe_dotnet.obj
 0001:0000faa0       ?get_minor_runtime_version@basic_dotnet_info@pe_bliss@@QBEGXZ 00410aa0 f   pe_dotnet.obj
 0001:0000faa5       ?get_rva_of_code_manager_table@basic_dotnet_info@pe_bliss@@QBEIXZ 00410aa5 f   pe_dotnet.obj
 0001:0000faa9       ?get_rva_of_export_address_table_jumps@basic_dotnet_info@pe_bliss@@QBEIXZ 00410aa9 f   pe_dotnet.obj
 0001:0000faad       ?get_rva_of_managed_native_header@basic_dotnet_info@pe_bliss@@QBEIXZ 00410aad f   pe_dotnet.obj
 0001:0000fab1       ?get_rva_of_metadata@basic_dotnet_info@pe_bliss@@QBEIXZ 00410ab1 f   pe_dotnet.obj
 0001:0000fab5       ?get_rva_of_resources@basic_dotnet_info@pe_bliss@@QBEIXZ 00410ab5 f   pe_dotnet.obj
 0001:0000fab9       ?get_rva_of_strong_name_signature@basic_dotnet_info@pe_bliss@@QBEIXZ 00410ab9 f   pe_dotnet.obj
 0001:0000fabd       ?get_rva_of_vtable_fixups@basic_dotnet_info@pe_bliss@@QBEIXZ 00410abd f   pe_dotnet.obj
 0001:0000fac1       ?get_size_of_code_manager_table@basic_dotnet_info@pe_bliss@@QBEIXZ 00410ac1 f   pe_dotnet.obj
 0001:0000fac5       ?get_size_of_export_address_table_jumps@basic_dotnet_info@pe_bliss@@QBEIXZ 00410ac5 f   pe_dotnet.obj
 0001:0000fac9       ?get_size_of_managed_native_header@basic_dotnet_info@pe_bliss@@QBEIXZ 00410ac9 f   pe_dotnet.obj
 0001:0000facd       ?get_size_of_metadata@basic_dotnet_info@pe_bliss@@QBEIXZ 00410acd f   pe_dotnet.obj
 0001:0000fad1       ?get_size_of_resources@basic_dotnet_info@pe_bliss@@QBEIXZ 00410ad1 f   pe_dotnet.obj
 0001:0000fad5       ?get_size_of_strong_name_signature@basic_dotnet_info@pe_bliss@@QBEIXZ 00410ad5 f   pe_dotnet.obj
 0001:0000fad9       ?get_size_of_vtable_fixups@basic_dotnet_info@pe_bliss@@QBEIXZ 00410ad9 f   pe_dotnet.obj
 0001:0000fadd       ?is_32bit_required@basic_dotnet_info@pe_bliss@@QBE_NXZ 00410add f   pe_dotnet.obj
 0001:0000fae5       ?is_il_library@basic_dotnet_info@pe_bliss@@QBE_NXZ 00410ae5 f   pe_dotnet.obj
 0001:0000faee       ?is_il_only@basic_dotnet_info@pe_bliss@@QBE_NXZ 00410aee f   pe_dotnet.obj
 0001:0000faf4       ?is_native_entry_point@basic_dotnet_info@pe_bliss@@QBE_NXZ 00410af4 f   pe_dotnet.obj
 0001:0000fafd       ??0pe_exception@pe_bliss@@QAE@ABV?$basic_string@DU?$char_traits@D@std@@V?$allocator@D@2@@std@@W4exception_id@01@@Z 00410afd f   pe_exception.obj
 0001:0000fb1c       ??0pe_exception@pe_bliss@@QAE@PBDW4exception_id@01@@Z 00410b1c f   pe_exception.obj
 0001:0000fb3b       ?get_id@pe_exception@pe_bliss@@QBE?AW4exception_id@12@XZ 00410b3b f   pe_exception.obj
 0001:0000fb3f       ??$_Destroy_range@V?$allocator@Vexception_entry@pe_bliss@@@std@@@std@@YGXPAVexception_entry@pe_bliss@@QAV12@AAV?$allocator@Vexception_entry@pe_bliss@@@0@@Z 00410b3f f i pe_exception_directory.obj
 0001:0000fb42       ??$_Emplace_reallocate@Vexception_entry@pe_bliss@@@?$vector@Vexception_entry@pe_bliss@@V?$allocator@Vexception_entry@pe_bliss@@@std@@@std@@QAEPAVexception_entry@pe_bliss@@QAV23@$$QAV23@@Z 00410b42 f i pe_exception_directory.obj
 0001:0000fc23       ??$_Get_size_of_n@$0BE@@std@@YGII@Z 00410c23 f i pe_exception_directory.obj
 0001:0000fc3a       ??$_Uninitialized_move@PAVexception_entry@pe_bliss@@V?$allocator@Vexception_entry@pe_bliss@@@std@@@std@@YGPAVexception_entry@pe_bliss@@QAV12@0PAV12@AAV?$allocator@Vexception_entry@pe_bliss@@@0@@Z 00410c3a f i pe_exception_directory.obj
 0001:0000fc64       ??$section_data_from_rva@Uimage_runtime_function_entry@pe_win@pe_bliss@@@pe_base@pe_bliss@@QBE?AUimage_runtime_function_entry@pe_win@1@IW4section_data_type@1@_N@Z 00410c64 f i pe_exception_directory.obj
 0001:0000fd0f       ??$section_data_from_rva@Uunwind_info@pe_win@pe_bliss@@@pe_base@pe_bliss@@QBE?AUunwind_info@pe_win@1@IW4section_data_type@1@_N@Z 00410d0f f i pe_exception_directory.obj
 0001:0000fdcd       ??0?$vector@Vexception_entry@pe_bliss@@V?$allocator@Vexception_entry@pe_bliss@@@std@@@std@@QAE@$$QAV01@@Z 00410dcd f i pe_exception_directory.obj
 0001:0000fdfa       ??0exception_entry@pe_bliss@@QAE@ABUimage_runtime_function_entry@pe_win@1@ABUunwind_info@31@@Z 00410dfa f   pe_exception_directory.obj
 0001:0000fe43       ??0exception_entry@pe_bliss@@QAE@XZ 00410e43 f   pe_exception_directory.obj
 0001:0000fe57       ?_Calculate_growth@?$vector@Vexception_entry@pe_bliss@@V?$allocator@Vexception_entry@pe_bliss@@@std@@@std@@ABEII@Z 00410e57 f i pe_exception_directory.obj
 0001:0000fe80       ?_Change_array@?$vector@Vexception_entry@pe_bliss@@V?$allocator@Vexception_entry@pe_bliss@@@std@@@std@@AAEXQAVexception_entry@pe_bliss@@II@Z 00410e80 f i pe_exception_directory.obj
 0001:0000febc       ?_Xlength@?$vector@Vexception_entry@pe_bliss@@V?$allocator@Vexception_entry@pe_bliss@@@std@@@std@@CGXXZ 00410ebc f i pe_exception_directory.obj
 0001:0000fec7       ?deallocate@?$allocator@Vexception_entry@pe_bliss@@@std@@QAEXQAVexception_entry@pe_bliss@@I@Z 00410ec7 f i pe_exception_directory.obj
 0001:0000fed9       ?get_begin_address@exception_entry@pe_bliss@@QBEIXZ 00410ed9 f   pe_exception_directory.obj
 0001:0000fedc       ?get_end_address@exception_entry@pe_bliss@@QBEIXZ 00410edc f   pe_exception_directory.obj
 0001:0000fee0       ?get_exception_directory_data@pe_bliss@@YG?BV?$vector@Vexception_entry@pe_bliss@@V?$allocator@Vexception_entry@pe_bliss@@@std@@@std@@ABVpe_base@1@@Z 00410ee0 f   pe_exception_directory.obj
 0001:000100c9       ?get_flags@exception_entry@pe_bliss@@QBEEXZ 004110c9 f   pe_exception_directory.obj
 0001:000100cd       ?get_frame_pointer_register_number@exception_entry@pe_bliss@@QBEEXZ 004110cd f   pe_exception_directory.obj
 0001:000100d1       ?get_number_of_unwind_slots@exception_entry@pe_bliss@@QBEEXZ 004110d1 f   pe_exception_directory.obj
 0001:000100d5       ?get_scaled_rsp_offset@exception_entry@pe_bliss@@QBEEXZ 004110d5 f   pe_exception_directory.obj
 0001:000100d9       ?get_size_of_prolog@exception_entry@pe_bliss@@QBEEXZ 004110d9 f   pe_exception_directory.obj
 0001:000100dd       ?get_unwind_info_address@exception_entry@pe_bliss@@QBEIXZ 004110dd f   pe_exception_directory.obj
 0001:000100e1       ?get_unwind_info_version@exception_entry@pe_bliss@@QBEEXZ 004110e1 f   pe_exception_directory.obj
 0001:000100e5       ?has_exception_handler@exception_entry@pe_bliss@@QBE_NXZ 004110e5 f   pe_exception_directory.obj
 0001:000100eb       ?has_termination_handler@exception_entry@pe_bliss@@QBE_NXZ 004110eb f   pe_exception_directory.obj
 0001:000100f3       ?is_chaininfo@exception_entry@pe_bliss@@QBE_NXZ 004110f3 f   pe_exception_directory.obj
 0001:000100fc       ?uses_frame_pointer@exception_entry@pe_bliss@@QBE_NXZ 004110fc f   pe_exception_directory.obj
 0001:00010104       ??$?0ABV?$basic_string@DU?$char_traits@D@std@@V?$allocator@D@2@@std@@@?$_Tree_temp_node@V?$allocator@U?$_Tree_node@V?$basic_string@DU?$char_traits@D@std@@V?$allocator@D@2@@std@@PAX@std@@@std@@@std@@QAE@AAV?$allocator@U?$_Tree_node@V?$basic_string@DU?$char_traits@D@std@@V?$allocator@D@2@@std@@PAX@std@@@1@PAU?$_Tree_node@V?$basic_string@DU?$char_traits@D@std@@V?$allocator@D@2@@std@@PAX@1@ABV?$basic_string@DU?$char_traits@D@std@@V?$allocator@D@2@@1@@Z 00411104 f i pe_exports.obj
 0001:00010157       ??$?0G@?$_Tree_temp_node@V?$allocator@U?$_Tree_node@GPAX@std@@@std@@@std@@QAE@AAV?$allocator@U?$_Tree_node@GPAX@std@@@1@PAU?$_Tree_node@GPAX@1@$$QAG@Z 00411157 f i pe_exports.obj
 0001:000101a2       ??$?0U?$pair@V?$basic_string@DU?$char_traits@D@std@@V?$allocator@D@2@@std@@G@std@@@?$_Tree_temp_node@V?$allocator@U?$_Tree_node@U?$pair@$$CBV?$basic_string@DU?$char_traits@D@std@@V?$allocator@D@2@@std@@G@std@@PAX@std@@@std@@@std@@QAE@AAV?$allocator@U?$_Tree_node@U?$pair@$$CBV?$basic_string@DU?$char_traits@D@std@@V?$allocator@D@2@@std@@G@std@@PAX@std@@@1@PAU?$_Tree_node@U?$pair@$$CBV?$basic_string@DU?$char_traits@D@std@@V?$allocator@D@2@@std@@G@std@@PAX@1@$$QAU?$pair@V?$basic_string@DU?$char_traits@D@std@@V?$allocator@D@2@@std@@G@1@@Z 004111a2 f i pe_exports.obj
 0001:000101fd       ??$?8DU?$char_traits@D@std@@V?$allocator@D@1@@std@@YG_NABV?$basic_string@DU?$char_traits@D@std@@V?$allocator@D@2@@0@0@Z 004111fd f i pe_exports.obj
 0001:0001020d       ??$?MDU?$char_traits@D@std@@V?$allocator@D@1@@std@@YG_NABV?$basic_string@DU?$char_traits@D@std@@V?$allocator@D@2@@0@0@Z 0041120d f i pe_exports.obj
 0001:00010220       ??$_Construct_in_place@PAU?$_Tree_node@GPAX@std@@AAPAU12@@std@@YGXAAPAU?$_Tree_node@GPAX@0@0@Z 00411220 f i pe_exports.obj
 0001:0001022f       ??$_Construct_in_place@PAU?$_Tree_node@GPAX@std@@ABQAU12@@std@@YGXAAPAU?$_Tree_node@GPAX@0@ABQAU10@@Z 0041122f f i pe_exports.obj
 0001:0001023e       ??$_Construct_in_place@PAU?$_Tree_node@U?$pair@$$CBV?$basic_string@DU?$char_traits@D@std@@V?$allocator@D@2@@std@@G@std@@PAX@std@@AAPAU12@@std@@YGXAAPAU?$_Tree_node@U?$pair@$$CBV?$basic_string@DU?$char_traits@D@std@@V?$allocator@D@2@@std@@G@std@@PAX@0@0@Z 0041123e f i pe_exports.obj
 0001:0001024d       ??$_Construct_in_place@PAU?$_Tree_node@U?$pair@$$CBV?$basic_string@DU?$char_traits@D@std@@V?$allocator@D@2@@std@@G@std@@PAX@std@@ABQAU12@@std@@YGXAAPAU?$_Tree_node@U?$pair@$$CBV?$basic_string@DU?$char_traits@D@std@@V?$allocator@D@2@@std@@G@std@@PAX@0@ABQAU10@@Z 0041124d f i pe_exports.obj
 0001:0001025c       ??$_Construct_in_place@PAU?$_Tree_node@V?$basic_string@DU?$char_traits@D@std@@V?$allocator@D@2@@std@@PAX@std@@AAPAU12@@std@@YGXAAPAU?$_Tree_node@V?$basic_string@DU?$char_traits@D@std@@V?$allocator@D@2@@std@@PAX@0@0@Z 0041125c f i pe_exports.obj
 0001:0001026b       ??$_Construct_in_place@PAU?$_Tree_node@V?$basic_string@DU?$char_traits@D@std@@V?$allocator@D@2@@std@@PAX@std@@ABQAU12@@std@@YGXAAPAU?$_Tree_node@V?$basic_string@DU?$char_traits@D@std@@V?$allocator@D@2@@std@@PAX@0@ABQAU10@@Z 0041126b f i pe_exports.obj
 0001:0001027a       ??$_Destroy_in_place@PAU?$_Tree_node@GPAX@std@@@std@@YGXAAPAU?$_Tree_node@GPAX@0@@Z 0041127a f i pe_exports.obj
 0001:0001027d       ??$_Destroy_in_place@PAU?$_Tree_node@U?$pair@$$CBV?$basic_string@DU?$char_traits@D@std@@V?$allocator@D@2@@std@@G@std@@PAX@std@@@std@@YGXAAPAU?$_Tree_node@U?$pair@$$CBV?$basic_string@DU?$char_traits@D@std@@V?$allocator@D@2@@std@@G@std@@PAX@0@@Z 0041127d f i pe_exports.obj
 0001:00010280       ??$_Destroy_in_place@PAU?$_Tree_node@V?$basic_string@DU?$char_traits@D@std@@V?$allocator@D@2@@std@@PAX@std@@@std@@YGXAAPAU?$_Tree_node@V?$basic_string@DU?$char_traits@D@std@@V?$allocator@D@2@@std@@PAX@0@@Z 00411280 f i pe_exports.obj
 0001:00010283       ??$_Destroy_range@V?$allocator@Vexported_function@pe_bliss@@@std@@@std@@YGXPAVexported_function@pe_bliss@@QAV12@AAV?$allocator@Vexported_function@pe_bliss@@@0@@Z 00411283 f i pe_exports.obj
 0001:000102a0       ??$_Emplace@ABV?$basic_string@DU?$char_traits@D@std@@V?$allocator@D@2@@std@@@?$_Tree@V?$_Tset_traits@V?$basic_string@DU?$char_traits@D@std@@V?$allocator@D@2@@std@@U?$less@V?$basic_string@DU?$char_traits@D@std@@V?$allocator@D@2@@std@@@2@V?$allocator@V?$basic_string@DU?$char_traits@D@std@@V?$allocator@D@2@@std@@@2@$0A@@std@@@std@@IAE?AU?$pair@PAU?$_Tree_node@V?$basic_string@DU?$char_traits@D@std@@V?$allocator@D@2@@std@@PAX@std@@_N@1@ABV?$basic_string@DU?$char_traits@D@std@@V?$allocator@D@2@@1@@Z 004112a0 f i pe_exports.obj
 0001:00010328       ??$_Emplace@G@?$_Tree@V?$_Tset_traits@GU?$less@G@std@@V?$allocator@G@2@$0A@@std@@@std@@IAE?AU?$pair@PAU?$_Tree_node@GPAX@std@@_N@1@$$QAG@Z 00411328 f i pe_exports.obj
 0001:000103ba       ??$_Emplace@U?$pair@V?$basic_string@DU?$char_traits@D@std@@V?$allocator@D@2@@std@@G@std@@@?$_Tree@V?$_Tmap_traits@V?$basic_string@DU?$char_traits@D@std@@V?$allocator@D@2@@std@@GU?$less@V?$basic_string@DU?$char_traits@D@std@@V?$allocator@D@2@@std@@@2@V?$allocator@U?$pair@$$CBV?$basic_string@DU?$char_traits@D@std@@V?$allocator@D@2@@std@@G@std@@@2@$0A@@std@@@std@@IAE?AU?$pair@PAU?$_Tree_node@U?$pair@$$CBV?$basic_string@DU?$char_traits@D@std@@V?$allocator@D@2@@std@@G@std@@PAX@std@@_N@1@$$QAU?$pair@V?$basic_string@DU?$char_traits@D@std@@V?$allocator@D@2@@std@@G@1@@Z 004113ba f i pe_exports.obj
 0001:00010442       ??$_Emplace_reallocate@ABVexported_function@pe_bliss@@@?$vector@Vexported_function@pe_bliss@@V?$allocator@Vexported_function@pe_bliss@@@std@@@std@@QAEPAVexported_function@pe_bliss@@QAV23@ABV23@@Z 00411442 f i pe_exports.obj
 0001:0001052d       ??$_Erase_head@V?$allocator@U?$_Tree_node@GPAX@std@@@std@@@?$_Tree_val@U?$_Tree_simple_types@G@std@@@std@@QAEXAAV?$allocator@U?$_Tree_node@GPAX@std@@@1@@Z 0041152d f i pe_exports.obj
 0001:0001054d       ??$_Erase_head@V?$allocator@U?$_Tree_node@U?$pair@$$CBV?$basic_string@DU?$char_traits@D@std@@V?$allocator@D@2@@std@@G@std@@PAX@std@@@std@@@?$_Tree_val@U?$_Tree_simple_types@U?$pair@$$CBV?$basic_string@DU?$char_traits@D@std@@V?$allocator@D@2@@std@@G@std@@@std@@@std@@QAEXAAV?$allocator@U?$_Tree_node@U?$pair@$$CBV?$basic_string@DU?$char_traits@D@std@@V?$allocator@D@2@@std@@G@std@@PAX@std@@@1@@Z 0041154d f i pe_exports.obj
 0001:0001056d       ??$_Erase_head@V?$allocator@U?$_Tree_node@V?$basic_string@DU?$char_traits@D@std@@V?$allocator@D@2@@std@@PAX@std@@@std@@@?$_Tree_val@U?$_Tree_simple_types@V?$basic_string@DU?$char_traits@D@std@@V?$allocator@D@2@@std@@@std@@@std@@QAEXAAV?$allocator@U?$_Tree_node@V?$basic_string@DU?$char_traits@D@std@@V?$allocator@D@2@@std@@PAX@std@@@1@@Z 0041156d f i pe_exports.obj
 0001:0001058d       ??$_Erase_tree@V?$allocator@U?$_Tree_node@GPAX@std@@@std@@@?$_Tree_val@U?$_Tree_simple_types@G@std@@@std@@QAEXAAV?$allocator@U?$_Tree_node@GPAX@std@@@1@PAU?$_Tree_node@GPAX@1@@Z 0041158d f i pe_exports.obj
 0001:000105be       ??$_Erase_tree@V?$allocator@U?$_Tree_node@U?$pair@$$CBV?$basic_string@DU?$char_traits@D@std@@V?$allocator@D@2@@std@@G@std@@PAX@std@@@std@@@?$_Tree_val@U?$_Tree_simple_types@U?$pair@$$CBV?$basic_string@DU?$char_traits@D@std@@V?$allocator@D@2@@std@@G@std@@@std@@@std@@QAEXAAV?$allocator@U?$_Tree_node@U?$pair@$$CBV?$basic_string@DU?$char_traits@D@std@@V?$allocator@D@2@@std@@G@std@@PAX@std@@@1@PAU?$_Tree_node@U?$pair@$$CBV?$basic_string@DU?$char_traits@D@std@@V?$allocator@D@2@@std@@G@std@@PAX@1@@Z 004115be f i pe_exports.obj
 0001:000105ed       ??$_Erase_tree@V?$allocator@U?$_Tree_node@V?$basic_string@DU?$char_traits@D@std@@V?$allocator@D@2@@std@@PAX@std@@@std@@@?$_Tree_val@U?$_Tree_simple_types@V?$basic_string@DU?$char_traits@D@std@@V?$allocator@D@2@@std@@@std@@@std@@QAEXAAV?$allocator@U?$_Tree_node@V?$basic_string@DU?$char_traits@D@std@@V?$allocator@D@2@@std@@PAX@std@@@1@PAU?$_Tree_node@V?$basic_string@DU?$char_traits@D@std@@V?$allocator@D@2@@std@@PAX@1@@Z 004115ed f i pe_exports.obj
 0001:0001061c       ??$_Find_lower_bound@G@?$_Tree@V?$_Tset_traits@GU?$less@G@std@@V?$allocator@G@2@$0A@@std@@@std@@IBE?AU?$_Tree_find_result@PAU?$_Tree_node@GPAX@std@@@1@ABG@Z 0041161c f i pe_exports.obj
 0001:00010660       ??$_Find_lower_bound@V?$basic_string@DU?$char_traits@D@std@@V?$allocator@D@2@@std@@@?$_Tree@V?$_Tmap_traits@V?$basic_string@DU?$char_traits@D@std@@V?$allocator@D@2@@std@@GU?$less@V?$basic_string@DU?$char_traits@D@std@@V?$allocator@D@2@@std@@@2@V?$allocator@U?$pair@$$CBV?$basic_string@DU?$char_traits@D@std@@V?$allocator@D@2@@std@@G@std@@@2@$0A@@std@@@std@@IBE?AU?$_Tree_find_result@PAU?$_Tree_node@U?$pair@$$CBV?$basic_string@DU?$char_traits@D@std@@V?$allocator@D@2@@std@@G@std@@PAX@std@@@1@ABV?$basic_string@DU?$char_traits@D@std@@V?$allocator@D@2@@1@@Z 00411660 f i pe_exports.obj
 0001:000106ae       ??$_Find_lower_bound@V?$basic_string@DU?$char_traits@D@std@@V?$allocator@D@2@@std@@@?$_Tree@V?$_Tset_traits@V?$basic_string@DU?$char_traits@D@std@@V?$allocator@D@2@@std@@U?$less@V?$basic_string@DU?$char_traits@D@std@@V?$allocator@D@2@@std@@@2@V?$allocator@V?$basic_string@DU?$char_traits@D@std@@V?$allocator@D@2@@std@@@2@$0A@@std@@@std@@IBE?AU?$_Tree_find_result@PAU?$_Tree_node@V?$basic_string@DU?$char_traits@D@std@@V?$allocator@D@2@@std@@PAX@std@@@1@ABV?$basic_string@DU?$char_traits@D@std@@V?$allocator@D@2@@1@@Z 004116ae f i pe_exports.obj
 0001:000106fc       ??$_Freenode@V?$allocator@U?$_Tree_node@U?$pair@$$CBV?$basic_string@DU?$char_traits@D@std@@V?$allocator@D@2@@std@@G@std@@PAX@std@@@std@@@?$_Tree_node@U?$pair@$$CBV?$basic_string@DU?$char_traits@D@std@@V?$allocator@D@2@@std@@G@std@@PAX@std@@SGXAAV?$allocator@U?$_Tree_node@U?$pair@$$CBV?$basic_string@DU?$char_traits@D@std@@V?$allocator@D@2@@std@@G@std@@PAX@std@@@1@PAU01@@Z 004116fc f i pe_exports.obj
 0001:00010717       ??$_Freenode@V?$allocator@U?$_Tree_node@V?$basic_string@DU?$char_traits@D@std@@V?$allocator@D@2@@std@@PAX@std@@@std@@@?$_Tree_node@V?$basic_string@DU?$char_traits@D@std@@V?$allocator@D@2@@std@@PAX@std@@SGXAAV?$allocator@U?$_Tree_node@V?$basic_string@DU?$char_traits@D@std@@V?$allocator@D@2@@std@@PAX@std@@@1@PAU01@@Z 00411717 f i pe_exports.obj
 0001:00010732       ??$_Get_size_of_n@$0EA@@std@@YGII@Z 00411732 f i pe_exports.obj
 0001:00010749       ??$_Guess_median_unchecked@PAVexported_function@pe_bliss@@Uordinal_sorter@2@@std@@YGXPAVexported_function@pe_bliss@@00Uordinal_sorter@2@@Z 00411749 f i pe_exports.obj
 0001:000107d5       ??$_Insertion_sort_unchecked@PAVexported_function@pe_bliss@@Uordinal_sorter@2@@std@@YGPAVexported_function@pe_bliss@@PAV12@QAV12@Uordinal_sorter@2@@Z 004117d5 f i pe_exports.obj
 0001:00010874       ??$_Lower_bound_duplicate@G@?$_Tree@V?$_Tset_traits@GU?$less@G@std@@V?$allocator@G@2@$0A@@std@@@std@@IBE_NQAU?$_Tree_node@GPAX@1@ABG@Z 00411874 f i pe_exports.obj
 0001:00010894       ??$_Lower_bound_duplicate@V?$basic_string@DU?$char_traits@D@std@@V?$allocator@D@2@@std@@@?$_Tree@V?$_Tmap_traits@V?$basic_string@DU?$char_traits@D@std@@V?$allocator@D@2@@std@@GU?$less@V?$basic_string@DU?$char_traits@D@std@@V?$allocator@D@2@@std@@@2@V?$allocator@U?$pair@$$CBV?$basic_string@DU?$char_traits@D@std@@V?$allocator@D@2@@std@@G@std@@@2@$0A@@std@@@std@@IBE_NQAU?$_Tree_node@U?$pair@$$CBV?$basic_string@DU?$char_traits@D@std@@V?$allocator@D@2@@std@@G@std@@PAX@1@ABV?$basic_string@DU?$char_traits@D@std@@V?$allocator@D@2@@1@@Z 00411894 f i pe_exports.obj
 0001:000108b8       ??$_Lower_bound_duplicate@V?$basic_string@DU?$char_traits@D@std@@V?$allocator@D@2@@std@@@?$_Tree@V?$_Tset_traits@V?$basic_string@DU?$char_traits@D@std@@V?$allocator@D@2@@std@@U?$less@V?$basic_string@DU?$char_traits@D@std@@V?$allocator@D@2@@std@@@2@V?$allocator@V?$basic_string@DU?$char_traits@D@std@@V?$allocator@D@2@@std@@@2@$0A@@std@@@std@@IBE_NQAU?$_Tree_node@V?$basic_string@DU?$char_traits@D@std@@V?$allocator@D@2@@std@@PAX@1@ABV?$basic_string@DU?$char_traits@D@std@@V?$allocator@D@2@@1@@Z 004118b8 f i pe_exports.obj
 0001:000108dc       ??$_Make_heap_unchecked@PAVexported_function@pe_bliss@@Uordinal_sorter@2@@std@@YGXPAVexported_function@pe_bliss@@0Uordinal_sorter@2@@Z 004118dc f i pe_exports.obj
 0001:00010937       ??$_Med3_unchecked@PAVexported_function@pe_bliss@@Uordinal_sorter@2@@std@@YGXPAVexported_function@pe_bliss@@00Uordinal_sorter@2@@Z 00411937 f i pe_exports.obj
 0001:00010979       ??$_Move_backward_unchecked@PAVexported_function@pe_bliss@@PAV12@@std@@YGPAVexported_function@pe_bliss@@PAV12@00@Z 00411979 f i pe_exports.obj
 0001:000109a1       ??$_Partition_by_median_guess_unchecked@PAVexported_function@pe_bliss@@Uordinal_sorter@2@@std@@YG?AU?$pair@PAVexported_function@pe_bliss@@PAV12@@0@PAVexported_function@pe_bliss@@0Uordinal_sorter@3@@Z 004119a1 f i pe_exports.obj
 0001:00010b00       ??$_Pop_heap_hole_by_index@PAVexported_function@pe_bliss@@V12@Uordinal_sorter@2@@std@@YGXPAVexported_function@pe_bliss@@HH$$QAV12@Uordinal_sorter@2@@Z 00411b00 f i pe_exports.obj
 0001:00010b8e       ??$_Pop_heap_hole_unchecked@PAVexported_function@pe_bliss@@V12@Uordinal_sorter@2@@std@@YGXPAVexported_function@pe_bliss@@00$$QAV12@Uordinal_sorter@2@@Z 00411b8e f i pe_exports.obj
 0001:00010bba       ??$_Pop_heap_unchecked@PAVexported_function@pe_bliss@@Uordinal_sorter@2@@std@@YGXPAVexported_function@pe_bliss@@0Uordinal_sorter@2@@Z 00411bba f i pe_exports.obj
 0001:00010c05       ??$_Push_heap_by_index@PAVexported_function@pe_bliss@@V12@Uordinal_sorter@2@@std@@YGXPAVexported_function@pe_bliss@@HH$$QAV12@Uordinal_sorter@2@@Z 00411c05 f i pe_exports.obj
 0001:00010c51       ??$_Sort_heap_unchecked@PAVexported_function@pe_bliss@@Uordinal_sorter@2@@std@@YGXPAVexported_function@pe_bliss@@0Uordinal_sorter@2@@Z 00411c51 f i pe_exports.obj
 0001:00010c88       ??$_Sort_unchecked@PAVexported_function@pe_bliss@@Uordinal_sorter@2@@std@@YGXPAVexported_function@pe_bliss@@0HUordinal_sorter@2@@Z 00411c88 f i pe_exports.obj
 0001:00010d33       ??$_Traits_compare@U?$char_traits@D@std@@@std@@YGHQBDI0I@Z 00411d33 f i pe_exports.obj
 0001:00010d68       ??$_Traits_equal@U?$char_traits@D@std@@@std@@YG_NQBDI0I@Z 00411d68 f i pe_exports.obj
 0001:00010d90       ??$_Uninitialized_move@PAVexported_function@pe_bliss@@V?$allocator@Vexported_function@pe_bliss@@@std@@@std@@YGPAVexported_function@pe_bliss@@QAV12@0PAV12@AAV?$allocator@Vexported_function@pe_bliss@@@0@@Z 00411d90 f i pe_exports.obj
 0001:00010dc2       ??$exchange@PAU?$_Tree_node@GPAX@std@@$$T@std@@YGPAU?$_Tree_node@GPAX@0@AAPAU10@$$QA$$T@Z 00411dc2 f i pe_exports.obj
 0001:00010dd3       ??$exchange@PAU?$_Tree_node@GPAX@std@@AAPAU12@@std@@YGPAU?$_Tree_node@GPAX@0@AAPAU10@0@Z 00411dd3 f i pe_exports.obj
 0001:00010de4       ??$exchange@PAU?$_Tree_node@U?$pair@$$CBV?$basic_string@DU?$char_traits@D@std@@V?$allocator@D@2@@std@@G@std@@PAX@std@@$$T@std@@YGPAU?$_Tree_node@U?$pair@$$CBV?$basic_string@DU?$char_traits@D@std@@V?$allocator@D@2@@std@@G@std@@PAX@0@AAPAU10@$$QA$$T@Z 00411de4 f i pe_exports.obj
 0001:00010df5       ??$exchange@PAU?$_Tree_node@U?$pair@$$CBV?$basic_string@DU?$char_traits@D@std@@V?$allocator@D@2@@std@@G@std@@PAX@std@@AAPAU12@@std@@YGPAU?$_Tree_node@U?$pair@$$CBV?$basic_string@DU?$char_traits@D@std@@V?$allocator@D@2@@std@@G@std@@PAX@0@AAPAU10@0@Z 00411df5 f i pe_exports.obj
 0001:00010e06       ??$exchange@PAU?$_Tree_node@V?$basic_string@DU?$char_traits@D@std@@V?$allocator@D@2@@std@@PAX@std@@$$T@std@@YGPAU?$_Tree_node@V?$basic_string@DU?$char_traits@D@std@@V?$allocator@D@2@@std@@PAX@0@AAPAU10@$$QA$$T@Z 00411e06 f i pe_exports.obj
 0001:00010e17       ??$exchange@PAU?$_Tree_node@V?$basic_string@DU?$char_traits@D@std@@V?$allocator@D@2@@std@@PAX@std@@AAPAU12@@std@@YGPAU?$_Tree_node@V?$basic_string@DU?$char_traits@D@std@@V?$allocator@D@2@@std@@PAX@0@AAPAU10@0@Z 00411e17 f i pe_exports.obj
 0001:00010e28       ??$iter_swap@PAVexported_function@pe_bliss@@PAV12@@std@@YGXPAVexported_function@pe_bliss@@0@Z 00411e28 f i pe_exports.obj
 0001:00010e2d       ??$section_data_from_rva@G@pe_base@pe_bliss@@QBEGIW4section_data_type@1@_N@Z 00411e2d f i pe_exports.obj
 0001:00010ed6       ??$section_data_from_rva@I@pe_base@pe_bliss@@QBEIIW4section_data_type@1@_N@Z 00411ed6 f i pe_exports.obj
 0001:00010f7d       ??$section_data_from_rva@Uimage_export_directory@pe_win@pe_bliss@@@pe_base@pe_bliss@@QBE?AUimage_export_directory@pe_win@1@IW4section_data_type@1@_N@Z 00411f7d f i pe_exports.obj
 0001:0001102d       ??$sort@V?$_Vector_iterator@V?$_Vector_val@U?$_Simple_types@Vexported_function@pe_bliss@@@std@@@std@@@std@@Uordinal_sorter@pe_bliss@@@std@@YGXV?$_Vector_iterator@V?$_Vector_val@U?$_Simple_types@Vexported_function@pe_bliss@@@std@@@std@@@0@0Uordinal_sorter@pe_bliss@@@Z 0041202d f i pe_exports.obj
 0001:0001104c       ??$swap@Vexported_function@pe_bliss@@X@std@@YGXAAVexported_function@pe_bliss@@0@Z 0041204c f i pe_exports.obj
 0001:00011088       ??0?$vector@Vexported_function@pe_bliss@@V?$allocator@Vexported_function@pe_bliss@@@std@@@std@@QAE@$$QAV01@@Z 00412088 f i pe_exports.obj
 0001:000110b5       ??0export_info@pe_bliss@@QAE@XZ 004120b5 f   pe_exports.obj
 0001:000110e3       ??0exported_function@pe_bliss@@QAE@$$QAV01@@Z 004120e3 f i pe_exports.obj
 0001:0001112a       ??0exported_function@pe_bliss@@QAE@ABV01@@Z 0041212a f i pe_exports.obj
 0001:00011181       ??0exported_function@pe_bliss@@QAE@XZ 00412181 f   pe_exports.obj
 0001:000111af       ??1?$_Tree_temp_node@V?$allocator@U?$_Tree_node@U?$pair@$$CBV?$basic_string@DU?$char_traits@D@std@@V?$allocator@D@2@@std@@G@std@@PAX@std@@@std@@@std@@QAE@XZ 004121af f i pe_exports.obj
 0001:000111d4       ??1?$_Tree_temp_node@V?$allocator@U?$_Tree_node@V?$basic_string@DU?$char_traits@D@std@@V?$allocator@D@2@@std@@PAX@std@@@std@@@std@@QAE@XZ 004121d4 f i pe_exports.obj
 0001:000111f9       ??4exported_function@pe_bliss@@QAEAAV01@$$QAV01@@Z 004121f9 f i pe_exports.obj
 0001:00011240       ??E?$_Tree_unchecked_const_iterator@V?$_Tree_val@U?$_Tree_simple_types@U?$pair@$$CBV?$basic_string@DU?$char_traits@D@std@@V?$allocator@D@2@@std@@G@std@@@std@@@std@@U_Iterator_base0@2@@std@@QAEAAV01@XZ 00412240 f i pe_exports.obj
 0001:00011273       ??Rordinal_sorter@pe_bliss@@QBE_NABVexported_function@1@0@Z 00412273 f   pe_exports.obj
 0001:00011287       ??_Gexported_function@pe_bliss@@QAEPAXI@Z 00412287 f i pe_exports.obj
 0001:000112b1       ?_Calculate_growth@?$vector@Vexported_function@pe_bliss@@V?$allocator@Vexported_function@pe_bliss@@@std@@@std@@ABEII@Z 004122b1 f i pe_exports.obj
 0001:000112d8       ?_Change_array@?$vector@Vexported_function@pe_bliss@@V?$allocator@Vexported_function@pe_bliss@@@std@@@std@@AAEXQAVexported_function@pe_bliss@@II@Z 004122d8 f i pe_exports.obj
 0001:0001131d       ?_Destroy@?$vector@Vexported_function@pe_bliss@@V?$allocator@Vexported_function@pe_bliss@@@std@@@std@@AAEXPAVexported_function@pe_bliss@@0@Z 0041231d f i pe_exports.obj
 0001:0001132e       ?_Equal@?$basic_string@DU?$char_traits@D@std@@V?$allocator@D@2@@std@@QBE_NABV12@@Z 0041232e f i pe_exports.obj
 0001:00011358       ?_Insert_node@?$_Tree_val@U?$_Tree_simple_types@G@std@@@std@@QAEPAU?$_Tree_node@GPAX@2@U?$_Tree_id@PAU?$_Tree_node@GPAX@std@@@2@QAU32@@Z 00412358 f i pe_exports.obj
 0001:00011457       ?_Insert_node@?$_Tree_val@U?$_Tree_simple_types@U?$pair@$$CBV?$basic_string@DU?$char_traits@D@std@@V?$allocator@D@2@@std@@G@std@@@std@@@std@@QAEPAU?$_Tree_node@U?$pair@$$CBV?$basic_string@DU?$char_traits@D@std@@V?$allocator@D@2@@std@@G@std@@PAX@2@U?$_Tree_id@PAU?$_Tree_node@U?$pair@$$CBV?$basic_string@DU?$char_traits@D@std@@V?$allocator@D@2@@std@@G@std@@PAX@std@@@2@QAU32@@Z 00412457 f i pe_exports.obj
 0001:00011556       ?_Insert_node@?$_Tree_val@U?$_Tree_simple_types@V?$basic_string@DU?$char_traits@D@std@@V?$allocator@D@2@@std@@@std@@@std@@QAEPAU?$_Tree_node@V?$basic_string@DU?$char_traits@D@std@@V?$allocator@D@2@@std@@PAX@2@U?$_Tree_id@PAU?$_Tree_node@V?$basic_string@DU?$char_traits@D@std@@V?$allocator@D@2@@std@@PAX@std@@@2@QAU32@@Z 00412556 f i pe_exports.obj
 0001:00011655       ?_Lrotate@?$_Tree_val@U?$_Tree_simple_types@G@std@@@std@@QAEXPAU?$_Tree_node@GPAX@2@@Z 00412655 f i pe_exports.obj
 0001:00011696       ?_Lrotate@?$_Tree_val@U?$_Tree_simple_types@U?$pair@$$CBV?$basic_string@DU?$char_traits@D@std@@V?$allocator@D@2@@std@@G@std@@@std@@@std@@QAEXPAU?$_Tree_node@U?$pair@$$CBV?$basic_string@DU?$char_traits@D@std@@V?$allocator@D@2@@std@@G@std@@PAX@2@@Z 00412696 f i pe_exports.obj
 0001:000116d7       ?_Lrotate@?$_Tree_val@U?$_Tree_simple_types@V?$basic_string@DU?$char_traits@D@std@@V?$allocator@D@2@@std@@@std@@@std@@QAEXPAU?$_Tree_node@V?$basic_string@DU?$char_traits@D@std@@V?$allocator@D@2@@std@@PAX@2@@Z 004126d7 f i pe_exports.obj
 0001:00011718       ?_Min@?$_Tree_val@U?$_Tree_simple_types@U?$pair@$$CBV?$basic_string@DU?$char_traits@D@std@@V?$allocator@D@2@@std@@G@std@@@std@@@std@@SGPAU?$_Tree_node@U?$pair@$$CBV?$basic_string@DU?$char_traits@D@std@@V?$allocator@D@2@@std@@G@std@@PAX@2@PAU32@@Z 00412718 f i pe_exports.obj
 0001:00011733       ?_Rrotate@?$_Tree_val@U?$_Tree_simple_types@G@std@@@std@@QAEXPAU?$_Tree_node@GPAX@2@@Z 00412733 f i pe_exports.obj
 0001:00011776       ?_Rrotate@?$_Tree_val@U?$_Tree_simple_types@U?$pair@$$CBV?$basic_string@DU?$char_traits@D@std@@V?$allocator@D@2@@std@@G@std@@@std@@@std@@QAEXPAU?$_Tree_node@U?$pair@$$CBV?$basic_string@DU?$char_traits@D@std@@V?$allocator@D@2@@std@@G@std@@PAX@2@@Z 00412776 f i pe_exports.obj
 0001:000117b9       ?_Rrotate@?$_Tree_val@U?$_Tree_simple_types@V?$basic_string@DU?$char_traits@D@std@@V?$allocator@D@2@@std@@@std@@@std@@QAEXPAU?$_Tree_node@V?$basic_string@DU?$char_traits@D@std@@V?$allocator@D@2@@std@@PAX@2@@Z 004127b9 f i pe_exports.obj
 0001:000117fc       ?_Tidy@?$vector@Vexported_function@pe_bliss@@V?$allocator@Vexported_function@pe_bliss@@@std@@@std@@AAEXXZ 004127fc f i pe_exports.obj
 0001:0001182b       ?_Xlength@?$vector@Vexported_function@pe_bliss@@V?$allocator@Vexported_function@pe_bliss@@@std@@@std@@CGXXZ 0041282b f i pe_exports.obj
 0001:00011836       ?compare@?$basic_string@DU?$char_traits@D@std@@V?$allocator@D@2@@std@@QBEHABV12@@Z 00412836 f i pe_exports.obj
 0001:00011860       ?deallocate@?$allocator@Vexported_function@pe_bliss@@@std@@QAEXQAVexported_function@pe_bliss@@I@Z 00412860 f i pe_exports.obj
 0001:00011874       ?exported_name_exists@pe_bliss@@YG_NABV?$basic_string@DU?$char_traits@D@std@@V?$allocator@D@2@@std@@ABV?$vector@Vexported_function@pe_bliss@@V?$allocator@Vexported_function@pe_bliss@@@std@@@3@@Z 00412874 f   pe_exports.obj
 0001:000118a9       ?exported_ordinal_exists@pe_bliss@@YG_NGABV?$vector@Vexported_function@pe_bliss@@V?$allocator@Vexported_function@pe_bliss@@@std@@@std@@@Z 004128a9 f   pe_exports.obj
 0001:000118d0       ?get_characteristics@export_info@pe_bliss@@QBEIXZ 004128d0 f   pe_exports.obj
 0001:000118d3       ?get_export_ordinal_limits@pe_bliss@@YG?BU?$pair@GG@std@@ABV?$vector@Vexported_function@pe_bliss@@V?$allocator@Vexported_function@pe_bliss@@@std@@@3@@Z 004128d3 f   pe_exports.obj
 0001:00011939       ?get_exported_functions@pe_bliss@@YG?BV?$vector@Vexported_function@pe_bliss@@V?$allocator@Vexported_function@pe_bliss@@@std@@@std@@ABVpe_base@1@@Z 00412939 f   pe_exports.obj
 0001:0001194f       ?get_exported_functions@pe_bliss@@YG?BV?$vector@Vexported_function@pe_bliss@@V?$allocator@Vexported_function@pe_bliss@@@std@@@std@@ABVpe_base@1@AAVexport_info@1@@Z 0041294f f   pe_exports.obj
 0001:00011967       ?get_exported_functions@pe_bliss@@YG?BV?$vector@Vexported_function@pe_bliss@@V?$allocator@Vexported_function@pe_bliss@@@std@@@std@@ABVpe_base@1@PAVexport_info@1@@Z 00412967 f   pe_exports.obj
 0001:00012094       ?get_forwarded_name@exported_function@pe_bliss@@QBEABV?$basic_string@DU?$char_traits@D@std@@V?$allocator@D@2@@std@@XZ 00413094 f   pe_exports.obj
 0001:00012098       ?get_major_version@export_info@pe_bliss@@QBEGXZ 00413098 f   pe_exports.obj
 0001:0001209d       ?get_minor_version@export_info@pe_bliss@@QBEGXZ 0041309d f   pe_exports.obj
 0001:000120a2       ?get_name@export_info@pe_bliss@@QBEABV?$basic_string@DU?$char_traits@D@std@@V?$allocator@D@2@@std@@XZ 004130a2 f   pe_exports.obj
 0001:000120a6       ?get_name@exported_function@pe_bliss@@QBEABV?$basic_string@DU?$char_traits@D@std@@V?$allocator@D@2@@std@@XZ 004130a6 f   pe_exports.obj
 0001:000120aa       ?get_name_ordinal@exported_function@pe_bliss@@QBEGXZ 004130aa f   pe_exports.obj
 0001:000120af       ?get_number_of_functions@export_info@pe_bliss@@QBEIXZ 004130af f   pe_exports.obj
 0001:000120b3       ?get_number_of_names@export_info@pe_bliss@@QBEIXZ 004130b3 f   pe_exports.obj
 0001:000120b7       ?get_ordinal@exported_function@pe_bliss@@QBEGXZ 004130b7 f   pe_exports.obj
 0001:000120bb       ?get_ordinal_base@export_info@pe_bliss@@QBEIXZ 004130bb f   pe_exports.obj
 0001:000120bf       ?get_rva@exported_function@pe_bliss@@QBEIXZ 004130bf f   pe_exports.obj
 0001:000120c3       ?get_rva_of_functions@export_info@pe_bliss@@QBEIXZ 004130c3 f   pe_exports.obj
 0001:000120c7       ?get_rva_of_name_ordinals@export_info@pe_bliss@@QBEIXZ 004130c7 f   pe_exports.obj
 0001:000120cb       ?get_rva_of_names@export_info@pe_bliss@@QBEIXZ 004130cb f   pe_exports.obj
 0001:000120cf       ?get_timestamp@export_info@pe_bliss@@QBEIXZ 004130cf f   pe_exports.obj
 0001:000120d3       ?has_name@exported_function@pe_bliss@@QBE_NXZ 004130d3 f   pe_exports.obj
 0001:000120d7       ?is_forwarded@exported_function@pe_bliss@@QBE_NXZ 004130d7 f   pe_exports.obj
 0001:000120db       ?rebuild_exports@pe_bliss@@YG?BVimage_directory@1@AAVpe_base@1@ABVexport_info@1@V?$vector@Vexported_function@pe_bliss@@V?$allocator@Vexported_function@pe_bliss@@@std@@@std@@AAVsection@1@I_N4@Z 004130db f   pe_exports.obj
 0001:00012706       ?set_characteristics@export_info@pe_bliss@@QAEXI@Z 00413706 f   pe_exports.obj
 0001:0001270f       ?set_forwarded_name@exported_function@pe_bliss@@QAEXABV?$basic_string@DU?$char_traits@D@std@@V?$allocator@D@2@@std@@@Z 0041370f f   pe_exports.obj
 0001:0001272f       ?set_major_version@export_info@pe_bliss@@QAEXG@Z 0041372f f   pe_exports.obj
 0001:0001273b       ?set_minor_version@export_info@pe_bliss@@QAEXG@Z 0041373b f   pe_exports.obj
 0001:00012747       ?set_name@export_info@pe_bliss@@QAEXABV?$basic_string@DU?$char_traits@D@std@@V?$allocator@D@2@@std@@@Z 00413747 f   pe_exports.obj
 0001:0001274f       ?set_name@exported_function@pe_bliss@@QAEXABV?$basic_string@DU?$char_traits@D@std@@V?$allocator@D@2@@std@@@Z 0041374f f   pe_exports.obj
 0001:0001276f       ?set_name_ordinal@exported_function@pe_bliss@@QAEXG@Z 0041376f f   pe_exports.obj
 0001:0001277b       ?set_number_of_functions@export_info@pe_bliss@@QAEXI@Z 0041377b f   pe_exports.obj
 0001:00012785       ?set_number_of_names@export_info@pe_bliss@@QAEXI@Z 00413785 f   pe_exports.obj
 0001:0001278f       ?set_ordinal@exported_function@pe_bliss@@QAEXG@Z 0041378f f   pe_exports.obj
 0001:0001279a       ?set_ordinal_base@export_info@pe_bliss@@QAEXI@Z 0041379a f   pe_exports.obj
 0001:000127a4       ?set_rva@exported_function@pe_bliss@@QAEXI@Z 004137a4 f   pe_exports.obj
 0001:000127ae       ?set_rva_of_functions@export_info@pe_bliss@@QAEXI@Z 004137ae f   pe_exports.obj
 0001:000127b8       ?set_rva_of_name_ordinals@export_info@pe_bliss@@QAEXI@Z 004137b8 f   pe_exports.obj
 0001:000127c2       ?set_rva_of_names@export_info@pe_bliss@@QAEXI@Z 004137c2 f   pe_exports.obj
 0001:000127cc       ?set_timestamp@export_info@pe_bliss@@QAEXI@Z 004137cc f   pe_exports.obj
 0001:000127d6       ??_E?$pe_properties_generic@V?$pe_types@Uimage_nt_headers32@pe_win@pe_bliss@@Uimage_optional_header32@23@$0BAL@I$0IAAAAAAA@Uimage_tls_directory32@23@Uimage_load_config_directory32@23@@pe_bliss@@@pe_bliss@@UAEPAXI@Z 004137d6 f i pe_factory.obj
 0001:000127d6       ??_G?$pe_properties_generic@V?$pe_types@Uimage_nt_headers32@pe_win@pe_bliss@@Uimage_optional_header32@23@$0BAL@I$0IAAAAAAA@Uimage_tls_directory32@23@Uimage_load_config_directory32@23@@pe_bliss@@@pe_bliss@@UAEPAXI@Z 004137d6 f i pe_factory.obj
 0001:000127f8       ??_G?$pe_properties_generic@V?$pe_types@Uimage_nt_headers64@pe_win@pe_bliss@@Uimage_optional_header64@23@$0CAL@_K$0?IAAAAAAAAAAAAAAA@Uimage_tls_directory64@23@Uimage_load_config_directory64@23@@pe_bliss@@@pe_bliss@@UAEPAXI@Z 004137f8 f i pe_factory.obj
 0001:000127f8       ??_E?$pe_properties_generic@V?$pe_types@Uimage_nt_headers64@pe_win@pe_bliss@@Uimage_optional_header64@23@$0CAL@_K$0?IAAAAAAAAAAAAAAA@Uimage_tls_directory64@23@Uimage_load_config_directory64@23@@pe_bliss@@@pe_bliss@@UAEPAXI@Z 004137f8 f i pe_factory.obj
 0001:0001281a       ??_Epe_properties@pe_bliss@@UAEPAXI@Z 0041381a f i pe_factory.obj
 0001:0001281a       ??_Gpe_properties@pe_bliss@@UAEPAXI@Z 0041381a f i pe_factory.obj
 0001:00012839       ?create_pe@pe_factory@pe_bliss@@SG?AVpe_base@2@AAV?$basic_istream@DU?$char_traits@D@std@@@std@@_N@Z 00413839 f   pe_factory.obj
 0001:00012914       ??$_Destroy_range@V?$allocator@Vimport_library@pe_bliss@@@std@@@std@@YGXPAVimport_library@pe_bliss@@QAV12@AAV?$allocator@Vimport_library@pe_bliss@@@0@@Z 00413914 f i pe_imports.obj
 0001:00012931       ??$_Destroy_range@V?$allocator@Vimported_function@pe_bliss@@@std@@@std@@YGXPAVimported_function@pe_bliss@@QAV12@AAV?$allocator@Vimported_function@pe_bliss@@@0@@Z 00413931 f i pe_imports.obj
 0001:0001294c       ??$_Emplace_reallocate@ABVimport_library@pe_bliss@@@?$vector@Vimport_library@pe_bliss@@V?$allocator@Vimport_library@pe_bliss@@@std@@@std@@QAEPAVimport_library@pe_bliss@@QAV23@ABV23@@Z 0041394c f i pe_imports.obj
 0001:00012a43       ??$_Emplace_reallocate@ABVimported_function@pe_bliss@@@?$vector@Vimported_function@pe_bliss@@V?$allocator@Vimported_function@pe_bliss@@@std@@@std@@QAEPAVimported_function@pe_bliss@@QAV23@ABV23@@Z 00413a43 f i pe_imports.obj
 0001:00012b3a       ??$_Get_size_of_n@$0DA@@std@@YGII@Z 00413b3a f i pe_imports.obj
 0001:00012b51       ??$_Uninitialized_copy@PAVimport_library@pe_bliss@@V?$allocator@Vimport_library@pe_bliss@@@std@@@std@@YGPAVimport_library@pe_bliss@@QAV12@0PAV12@AAV?$allocator@Vimport_library@pe_bliss@@@0@@Z 00413b51 f i pe_imports.obj
 0001:00012b83       ??$_Uninitialized_copy@PAVimported_function@pe_bliss@@V?$allocator@Vimported_function@pe_bliss@@@std@@@std@@YGPAVimported_function@pe_bliss@@QAV12@0PAV12@AAV?$allocator@Vimported_function@pe_bliss@@@0@@Z 00413b83 f i pe_imports.obj
 0001:00012bb5       ??$_Uninitialized_move@PAVimport_library@pe_bliss@@V?$allocator@Vimport_library@pe_bliss@@@std@@@std@@YGPAVimport_library@pe_bliss@@QAV12@0PAV12@AAV?$allocator@Vimport_library@pe_bliss@@@0@@Z 00413bb5 f i pe_imports.obj
 0001:00012be7       ??$_Uninitialized_move@PAVimported_function@pe_bliss@@V?$allocator@Vimported_function@pe_bliss@@@std@@@std@@YGPAVimported_function@pe_bliss@@QAV12@0PAV12@AAV?$allocator@Vimported_function@pe_bliss@@@0@@Z 00413be7 f i pe_imports.obj
 0001:00012c19       ??$emplace_back@ABVimported_function@pe_bliss@@@?$vector@Vimported_function@pe_bliss@@V?$allocator@Vimported_function@pe_bliss@@@std@@@std@@QAEXABVimported_function@pe_bliss@@@Z 00413c19 f i pe_imports.obj
 0001:00012c3f       ??$get_imported_functions_base@V?$pe_types@Uimage_nt_headers32@pe_win@pe_bliss@@Uimage_optional_header32@23@$0BAL@I$0IAAAAAAA@Uimage_tls_directory32@23@Uimage_load_config_directory32@23@@pe_bliss@@@pe_bliss@@YG?BV?$vector@Vimport_library@pe_bliss@@V?$allocator@Vimport_library@pe_bliss@@@std@@@std@@ABVpe_base@0@@Z 00413c3f f i pe_imports.obj
 0001:00013167       ??$get_imported_functions_base@V?$pe_types@Uimage_nt_headers64@pe_win@pe_bliss@@Uimage_optional_header64@23@$0CAL@_K$0?IAAAAAAAAAAAAAAA@Uimage_tls_directory64@23@Uimage_load_config_directory64@23@@pe_bliss@@@pe_bliss@@YG?BV?$vector@Vimport_library@pe_bliss@@V?$allocator@Vimport_library@pe_bliss@@@std@@@std@@ABVpe_base@0@@Z 00414167 f i pe_imports.obj
 0001:000136ad       ??$rebuild_imports_base@V?$pe_types@Uimage_nt_headers32@pe_win@pe_bliss@@Uimage_optional_header32@23@$0BAL@I$0IAAAAAAA@Uimage_tls_directory32@23@Uimage_load_config_directory32@23@@pe_bliss@@@pe_bliss@@YG?BVimage_directory@0@AAVpe_base@0@ABV?$vector@Vimport_library@pe_bliss@@V?$allocator@Vimport_library@pe_bliss@@@std@@@std@@AAVsection@0@ABVimport_rebuilder_settings@0@@Z 004146ad f i pe_imports.obj
 0001:00013f53       ??$rebuild_imports_base@V?$pe_types@Uimage_nt_headers64@pe_win@pe_bliss@@Uimage_optional_header64@23@$0CAL@_K$0?IAAAAAAAAAAAAAAA@Uimage_tls_directory64@23@Uimage_load_config_directory64@23@@pe_bliss@@@pe_bliss@@YG?BVimage_directory@0@AAVpe_base@0@ABV?$vector@Vimport_library@pe_bliss@@V?$allocator@Vimport_library@pe_bliss@@@std@@@std@@AAVsection@0@ABVimport_rebuilder_settings@0@@Z 00414f53 f i pe_imports.obj
 0001:00014861       ??$section_data_from_rva@Uimage_import_descriptor@pe_win@pe_bliss@@@pe_base@pe_bliss@@QBE?AUimage_import_descriptor@pe_win@1@IW4section_data_type@1@_N@Z 00415861 f i pe_imports.obj
 0001:00014911       ??$section_data_from_rva@_K@pe_base@pe_bliss@@QBE_KIW4section_data_type@1@_N@Z 00415911 f i pe_imports.obj
 0001:000149bf       ??0?$vector@Vimport_library@pe_bliss@@V?$allocator@Vimport_library@pe_bliss@@@std@@@std@@QAE@$$QAV01@@Z 004159bf f i pe_imports.obj
 0001:000149ec       ??0?$vector@Vimport_library@pe_bliss@@V?$allocator@Vimport_library@pe_bliss@@@std@@@std@@QAE@ABV01@@Z 004159ec f i pe_imports.obj
 0001:00014a2f       ??0?$vector@Vimported_function@pe_bliss@@V?$allocator@Vimported_function@pe_bliss@@@std@@@std@@QAE@$$QAV01@@Z 00415a2f f i pe_imports.obj
 0001:00014a5c       ??0?$vector@Vimported_function@pe_bliss@@V?$allocator@Vimported_function@pe_bliss@@@std@@@std@@QAE@ABV01@@Z 00415a5c f i pe_imports.obj
 0001:00014a9f       ??0import_library@pe_bliss@@QAE@$$QAV01@@Z 00415a9f f i pe_imports.obj
 0001:00014ad2       ??0import_library@pe_bliss@@QAE@ABV01@@Z 00415ad2 f i pe_imports.obj
 0001:00014b0d       ??0import_library@pe_bliss@@QAE@XZ 00415b0d f   pe_imports.obj
 0001:00014b30       ??0import_rebuilder_settings@pe_bliss@@QAE@_N0@Z 00415b30 f   pe_imports.obj
 0001:00014b56       ??0imported_function@pe_bliss@@QAE@$$QAV01@@Z 00415b56 f i pe_imports.obj
 0001:00014b87       ??0imported_function@pe_bliss@@QAE@ABV01@@Z 00415b87 f i pe_imports.obj
 0001:00014bc0       ??0imported_function@pe_bliss@@QAE@XZ 00415bc0 f   pe_imports.obj
 0001:00014bdc       ??_Gimport_library@pe_bliss@@QAEPAXI@Z 00415bdc f i pe_imports.obj
 0001:00014c05       ?_Buy_raw@?$vector@Vimport_library@pe_bliss@@V?$allocator@Vimport_library@pe_bliss@@@std@@@std@@AAEXI@Z 00415c05 f i pe_imports.obj
 0001:00014c2b       ?_Buy_raw@?$vector@Vimported_function@pe_bliss@@V?$allocator@Vimported_function@pe_bliss@@@std@@@std@@AAEXI@Z 00415c2b f i pe_imports.obj
 0001:00014c51       ?_Calculate_growth@?$vector@Vimport_library@pe_bliss@@V?$allocator@Vimport_library@pe_bliss@@@std@@@std@@ABEII@Z 00415c51 f i pe_imports.obj
 0001:00014c7a       ?_Calculate_growth@?$vector@Vimported_function@pe_bliss@@V?$allocator@Vimported_function@pe_bliss@@@std@@@std@@ABEII@Z 00415c7a f i pe_imports.obj
 0001:00014ca3       ?_Change_array@?$vector@Vimport_library@pe_bliss@@V?$allocator@Vimport_library@pe_bliss@@@std@@@std@@AAEXQAVimport_library@pe_bliss@@II@Z 00415ca3 f i pe_imports.obj
 0001:00014cea       ?_Change_array@?$vector@Vimported_function@pe_bliss@@V?$allocator@Vimported_function@pe_bliss@@@std@@@std@@AAEXQAVimported_function@pe_bliss@@II@Z 00415cea f i pe_imports.obj
 0001:00014d31       ?_Destroy@?$vector@Vimport_library@pe_bliss@@V?$allocator@Vimport_library@pe_bliss@@@std@@@std@@AAEXPAVimport_library@pe_bliss@@0@Z 00415d31 f i pe_imports.obj
 0001:00014d42       ?_Destroy@?$vector@Vimported_function@pe_bliss@@V?$allocator@Vimported_function@pe_bliss@@@std@@@std@@AAEXPAVimported_function@pe_bliss@@0@Z 00415d42 f i pe_imports.obj
 0001:00014d53       ?_Tidy@?$vector@Vimport_library@pe_bliss@@V?$allocator@Vimport_library@pe_bliss@@@std@@@std@@AAEXXZ 00415d53 f i pe_imports.obj
 0001:00014d88       ?_Tidy@?$vector@Vimported_function@pe_bliss@@V?$allocator@Vimported_function@pe_bliss@@@std@@@std@@AAEXXZ 00415d88 f i pe_imports.obj
 0001:00014dbd       ?_Xlength@?$vector@Vimport_library@pe_bliss@@V?$allocator@Vimport_library@pe_bliss@@@std@@@std@@CGXXZ 00415dbd f i pe_imports.obj
 0001:00014dc8       ?_Xlength@?$vector@Vimported_function@pe_bliss@@V?$allocator@Vimported_function@pe_bliss@@@std@@@std@@CGXXZ 00415dc8 f i pe_imports.obj
 0001:00014dd3       ?add_import@import_library@pe_bliss@@QAEXABVimported_function@2@@Z 00415dd3 f   pe_imports.obj
 0001:00014ddb       ?auto_set_to_pe_headers@import_rebuilder_settings@pe_bliss@@QAEX_N@Z 00415ddb f   pe_imports.obj
 0001:00014de5       ?auto_set_to_pe_headers@import_rebuilder_settings@pe_bliss@@QBE_NXZ 00415de5 f   pe_imports.obj
 0001:00014de9       ?auto_strip_last_section_enabled@import_rebuilder_settings@pe_bliss@@QBE_NXZ 00415de9 f   pe_imports.obj
 0001:00014ded       ?build_original_iat@import_rebuilder_settings@pe_bliss@@QAEX_N@Z 00415ded f   pe_imports.obj
 0001:00014df7       ?build_original_iat@import_rebuilder_settings@pe_bliss@@QBE_NXZ 00415df7 f   pe_imports.obj
 0001:00014dfb       ?clear_imports@import_library@pe_bliss@@QAEXXZ 00415dfb f   pe_imports.obj
 0001:00014e11       ?deallocate@?$allocator@Vimport_library@pe_bliss@@@std@@QAEXQAVimport_library@pe_bliss@@I@Z 00415e11 f i pe_imports.obj
 0001:00014e23       ?deallocate@?$allocator@Vimported_function@pe_bliss@@@std@@QAEXQAVimported_function@pe_bliss@@I@Z 00415e23 f i pe_imports.obj
 0001:00014e35       ?enable_auto_strip_last_section@import_rebuilder_settings@pe_bliss@@QAEX_N@Z 00415e35 f   pe_imports.obj
 0001:00014e3f       ?fill_missing_original_iats@import_rebuilder_settings@pe_bliss@@QAEX_N@Z 00415e3f f   pe_imports.obj
 0001:00014e49       ?fill_missing_original_iats@import_rebuilder_settings@pe_bliss@@QBE_NXZ 00415e49 f   pe_imports.obj
 0001:00014e4d       ?get_hint@imported_function@pe_bliss@@QBEGXZ 00415e4d f   pe_imports.obj
 0001:00014e52       ?get_iat_va@imported_function@pe_bliss@@QBE_KXZ 00415e52 f   pe_imports.obj
 0001:00014e59       ?get_imported_functions@import_library@pe_bliss@@QBEABV?$vector@Vimported_function@pe_bliss@@V?$allocator@Vimported_function@pe_bliss@@@std@@@std@@XZ 00415e59 f   pe_imports.obj
 0001:00014e5d       ?get_imported_functions@pe_bliss@@YG?BV?$vector@Vimport_library@pe_bliss@@V?$allocator@Vimport_library@pe_bliss@@@std@@@std@@ABVpe_base@1@@Z 00415e5d f   pe_imports.obj
 0001:00014ebc       ?get_name@import_library@pe_bliss@@QBEABV?$basic_string@DU?$char_traits@D@std@@V?$allocator@D@2@@std@@XZ 00415ebc f   pe_imports.obj
 0001:00014ebf       ?get_name@imported_function@pe_bliss@@QBEABV?$basic_string@DU?$char_traits@D@std@@V?$allocator@D@2@@std@@XZ 00415ebf f   pe_imports.obj
 0001:00014ec2       ?get_offset_from_section_start@import_rebuilder_settings@pe_bliss@@QBEIXZ 00415ec2 f   pe_imports.obj
 0001:00014ec5       ?get_ordinal@imported_function@pe_bliss@@QBEGXZ 00415ec5 f   pe_imports.obj
 0001:00014eca       ?get_rva_to_iat@import_library@pe_bliss@@QBEIXZ 00415eca f   pe_imports.obj
 0001:00014ece       ?get_rva_to_original_iat@import_library@pe_bliss@@QBEIXZ 00415ece f   pe_imports.obj
 0001:00014ed2       ?get_timestamp@import_library@pe_bliss@@QBEIXZ 00415ed2 f   pe_imports.obj
 0001:00014ed6       ?has_name@imported_function@pe_bliss@@QBE_NXZ 00415ed6 f   pe_imports.obj
 0001:00014ede       ?rebuild_imports@pe_bliss@@YG?BVimage_directory@1@AAVpe_base@1@ABV?$vector@Vimport_library@pe_bliss@@V?$allocator@Vimport_library@pe_bliss@@@std@@@std@@AAVsection@1@ABVimport_rebuilder_settings@1@@Z 00415ede f   pe_imports.obj
 0001:00014f23       ?rewrite_iat_and_original_iat_contents@import_rebuilder_settings@pe_bliss@@QBE_NXZ 00415f23 f   pe_imports.obj
 0001:00014f27       ?save_iat_and_original_iat_rvas@import_rebuilder_settings@pe_bliss@@QAEX_N0@Z 00415f27 f   pe_imports.obj
 0001:00014f42       ?save_iat_and_original_iat_rvas@import_rebuilder_settings@pe_bliss@@QBE_NXZ 00415f42 f   pe_imports.obj
 0001:00014f46       ?set_hint@imported_function@pe_bliss@@QAEXG@Z 00415f46 f   pe_imports.obj
 0001:00014f52       ?set_iat_va@imported_function@pe_bliss@@QAEX_K@Z 00415f52 f   pe_imports.obj
 0001:00014f63       ?set_name@import_library@pe_bliss@@QAEXABV?$basic_string@DU?$char_traits@D@std@@V?$allocator@D@2@@std@@@Z 00415f63 f   pe_imports.obj
 0001:00014f68       ?set_name@imported_function@pe_bliss@@QAEXABV?$basic_string@DU?$char_traits@D@std@@V?$allocator@D@2@@std@@@Z 00415f68 f   pe_imports.obj
 0001:00014f6d       ?set_offset_from_section_start@import_rebuilder_settings@pe_bliss@@QAEXI@Z 00415f6d f   pe_imports.obj
 0001:00014f76       ?set_ordinal@imported_function@pe_bliss@@QAEXG@Z 00415f76 f   pe_imports.obj
 0001:00014f82       ?set_rva_to_iat@import_library@pe_bliss@@QAEXI@Z 00415f82 f   pe_imports.obj
 0001:00014f8c       ?set_rva_to_original_iat@import_library@pe_bliss@@QAEXI@Z 00415f8c f   pe_imports.obj
 0001:00014f96       ?set_timestamp@import_library@pe_bliss@@QAEXI@Z 00415f96 f   pe_imports.obj
 0001:00014fa0       ?zero_directory_entry_iat@import_rebuilder_settings@pe_bliss@@QAEX_N@Z 00415fa0 f   pe_imports.obj
 0001:00014faa       ?zero_directory_entry_iat@import_rebuilder_settings@pe_bliss@@QBE_NXZ 00415faa f   pe_imports.obj
 0001:00014fae       ??$?0Uimage_load_config_directory32@pe_win@pe_bliss@@@image_config_info@pe_bliss@@QAE@ABUimage_load_config_directory32@pe_win@1@@Z 00415fae f i pe_load_config.obj
 0001:00015062       ??$?0Uimage_load_config_directory64@pe_win@pe_bliss@@@image_config_info@pe_bliss@@QAE@ABUimage_load_config_directory64@pe_win@1@@Z 00416062 f i pe_load_config.obj
 0001:00015132       ??$_Copy_backward_memmove@PAIPAI@std@@YGPAIPAI00@Z 00416132 f i pe_load_config.obj
 0001:00015151       ??$_Copy_memmove@PAIPAI@std@@YGPAIPAI00@Z 00416151 f i pe_load_config.obj
 0001:00015175       ??$_Destroy_range@V?$allocator@I@std@@@std@@YGXPAIQAIAAV?$allocator@I@0@@Z 00416175 f i pe_load_config.obj
 0001:00015178       ??$_Emplace_reallocate@ABI@?$vector@IV?$allocator@I@std@@@std@@QAEPAIQAIABI@Z 00416178 f i pe_load_config.obj
 0001:00015244       ??$_Get_size_of_n@$03@std@@YGII@Z 00416244 f i pe_load_config.obj
 0001:0001525b       ??$_Guess_median_unchecked@PAIU?$less@X@std@@@std@@YGXPAI00U?$less@X@0@@Z 0041625b f i pe_load_config.obj
 0001:000152ea       ??$_Insertion_sort_unchecked@PAIU?$less@X@std@@@std@@YGPAIPAIQAIU?$less@X@0@@Z 004162ea f i pe_load_config.obj
 0001:0001533e       ??$_Make_heap_unchecked@PAIU?$less@X@std@@@std@@YGXPAI0U?$less@X@0@@Z 0041633e f i pe_load_config.obj
 0001:00015376       ??$_Med3_unchecked@PAIU?$less@X@std@@@std@@YGXPAI00U?$less@X@0@@Z 00416376 f i pe_load_config.obj
 0001:000153ab       ??$_Move_backward_unchecked@PAIPAI@std@@YGPAIPAI00@Z 004163ab f i pe_load_config.obj
 0001:000153b0       ??$_Partition_by_median_guess_unchecked@PAIU?$less@X@std@@@std@@YG?AU?$pair@PAIPAI@0@PAI0U?$less@X@0@@Z 004163b0 f i pe_load_config.obj
 0001:000154c8       ??$_Pop_heap_hole_by_index@PAIIU?$less@X@std@@@std@@YGXPAIHH$$QAIU?$less@X@0@@Z 004164c8 f i pe_load_config.obj
 0001:00015531       ??$_Pop_heap_hole_unchecked@PAIIU?$less@X@std@@@std@@YGXPAI00$$QAIU?$less@X@0@@Z 00416531 f i pe_load_config.obj
 0001:00015559       ??$_Pop_heap_unchecked@PAIU?$less@X@std@@@std@@YGXPAI0U?$less@X@0@@Z 00416559 f i pe_load_config.obj
 0001:00015589       ??$_Push_heap_by_index@PAIIU?$less@X@std@@@std@@YGXPAIHH$$QAIU?$less@X@0@@Z 00416589 f i pe_load_config.obj
 0001:000155bd       ??$_Sort_heap_unchecked@PAIU?$less@X@std@@@std@@YGXPAI0U?$less@X@0@@Z 004165bd f i pe_load_config.obj
 0001:000155ee       ??$_Sort_unchecked@PAIU?$less@X@std@@@std@@YGXPAI0HU?$less@X@0@@Z 004165ee f i pe_load_config.obj
 0001:00015699       ??$_Uninitialized_copy@PAIV?$allocator@I@std@@@std@@YGPAIQAI0PAIAAV?$allocator@I@0@@Z 00416699 f i pe_load_config.obj
 0001:000156bd       ??$_Uninitialized_move@PAIV?$allocator@I@std@@@std@@YGPAIQAI0PAIAAV?$allocator@I@0@@Z 004166bd f i pe_load_config.obj
 0001:000156e1       ??$emplace_back@ABI@?$vector@IV?$allocator@I@std@@@std@@QAEXABI@Z 004166e1 f i pe_load_config.obj
 0001:00015704       ??$get_image_config_base@V?$pe_types@Uimage_nt_headers32@pe_win@pe_bliss@@Uimage_optional_header32@23@$0BAL@I$0IAAAAAAA@Uimage_tls_directory32@23@Uimage_load_config_directory32@23@@pe_bliss@@@pe_bliss@@YG?BVimage_config_info@0@ABVpe_base@0@@Z 00416704 f i pe_load_config.obj
 0001:00015858       ??$get_image_config_base@V?$pe_types@Uimage_nt_headers64@pe_win@pe_bliss@@Uimage_optional_header64@23@$0CAL@_K$0?IAAAAAAAAAAAAAAA@Uimage_tls_directory64@23@Uimage_load_config_directory64@23@@pe_bliss@@@pe_bliss@@YG?BVimage_config_info@0@ABVpe_base@0@@Z 00416858 f i pe_load_config.obj
 0001:00015a73       ??$iter_swap@PAIPAI@std@@YGXPAI0@Z 00416a73 f i pe_load_config.obj
 0001:00015a88       ??$rebuild_image_config_base@V?$pe_types@Uimage_nt_headers32@pe_win@pe_bliss@@Uimage_optional_header32@23@$0BAL@I$0IAAAAAAA@Uimage_tls_directory32@23@Uimage_load_config_directory32@23@@pe_bliss@@@pe_bliss@@YG?BVimage_directory@0@AAVpe_base@0@ABVimage_config_info@0@AAVsection@0@I_N333@Z 00416a88 f i pe_load_config.obj
 0001:00015e26       ??$rebuild_image_config_base@V?$pe_types@Uimage_nt_headers64@pe_win@pe_bliss@@Uimage_optional_header64@23@$0CAL@_K$0?IAAAAAAAAAAAAAAA@Uimage_tls_directory64@23@Uimage_load_config_directory64@23@@pe_bliss@@@pe_bliss@@YG?BVimage_directory@0@AAVpe_base@0@ABVimage_config_info@0@AAVsection@0@I_N333@Z 00416e26 f i pe_load_config.obj
 0001:0001624e       ??$section_data_from_rva@Uimage_load_config_directory32@pe_win@pe_bliss@@@pe_base@pe_bliss@@QBE?AUimage_load_config_directory32@pe_win@1@IW4section_data_type@1@_N@Z 0041724e f i pe_load_config.obj
 0001:000162fe       ??$section_data_from_rva@Uimage_load_config_directory64@pe_win@pe_bliss@@@pe_base@pe_bliss@@QBE?AUimage_load_config_directory64@pe_win@1@IW4section_data_type@1@_N@Z 004172fe f i pe_load_config.obj
 0001:000163ae       ??$sort@V?$_Vector_iterator@V?$_Vector_val@U?$_Simple_types@I@std@@@std@@@std@@@std@@YGXV?$_Vector_iterator@V?$_Vector_val@U?$_Simple_types@I@std@@@std@@@0@0@Z 004173ae f i pe_load_config.obj
 0001:000163c3       ??$sort@V?$_Vector_iterator@V?$_Vector_val@U?$_Simple_types@I@std@@@std@@@std@@U?$less@X@2@@std@@YGXV?$_Vector_iterator@V?$_Vector_val@U?$_Simple_types@I@std@@@std@@@0@0U?$less@X@0@@Z 004173c3 f i pe_load_config.obj
 0001:000163e2       ??$swap@IX@std@@YGXAAI0@Z  004173e2 f i pe_load_config.obj
 0001:000163f7       ??0?$vector@IV?$allocator@I@std@@@std@@QAE@ABV01@@Z 004173f7 f i pe_load_config.obj
 0001:00016435       ??0image_config_info@pe_bliss@@QAE@ABV01@@Z 00417435 f i pe_load_config.obj
 0001:00016508       ??0image_config_info@pe_bliss@@QAE@XZ 00417508 f   pe_load_config.obj
 0001:00016578       ?_Buy_raw@?$vector@IV?$allocator@I@std@@@std@@AAEXI@Z 00417578 f i pe_load_config.obj
 0001:0001659c       ?_Calculate_growth@?$vector@IV?$allocator@I@std@@@std@@ABEII@Z 0041759c f i pe_load_config.obj
 0001:000165c3       ?_Change_array@?$vector@IV?$allocator@I@std@@@std@@AAEXQAIII@Z 004175c3 f i pe_load_config.obj
 0001:000165f9       ?_Tidy@?$vector@IV?$allocator@I@std@@@std@@AAEXXZ 004175f9 f i pe_load_config.obj
 0001:0001661d       ?_Xlength@?$vector@IV?$allocator@I@std@@@std@@CGXXZ 0041761d f i pe_load_config.obj
 0001:00016628       ?add_lock_prefix_rva@image_config_info@pe_bliss@@QAEXI@Z 00417628 f   pe_load_config.obj
 0001:00016638       ?add_se_handler_rva@image_config_info@pe_bliss@@QAEXI@Z 00417638 f   pe_load_config.obj
 0001:00016648       ?clear_lock_prefix_list@image_config_info@pe_bliss@@QAEXXZ 00417648 f   pe_load_config.obj
 0001:00016652       ?clear_se_handler_list@image_config_info@pe_bliss@@QAEXXZ 00417652 f   pe_load_config.obj
 0001:00016659       ?deallocate@?$allocator@I@std@@QAEXQAII@Z 00417659 f i pe_load_config.obj
 0001:0001666d       ?get_critical_section_default_timeout@image_config_info@pe_bliss@@QBEIXZ 0041766d f   pe_load_config.obj
 0001:00016671       ?get_decommit_free_block_threshold@image_config_info@pe_bliss@@QBE_KXZ 00417671 f   pe_load_config.obj
 0001:00016678       ?get_decommit_total_free_threshold@image_config_info@pe_bliss@@QBE_KXZ 00417678 f   pe_load_config.obj
 0001:0001667f       ?get_edit_list_va@image_config_info@pe_bliss@@QBE_KXZ 0041767f f   pe_load_config.obj
 0001:00016686       ?get_global_flags_clear@image_config_info@pe_bliss@@QBEIXZ 00417686 f   pe_load_config.obj
 0001:0001668a       ?get_global_flags_set@image_config_info@pe_bliss@@QBEIXZ 0041768a f   pe_load_config.obj
 0001:0001668e       ?get_image_config@pe_bliss@@YG?BVimage_config_info@1@ABVpe_base@1@@Z 0041768e f   pe_load_config.obj
 0001:00016708       ?get_lock_prefix_rvas@image_config_info@pe_bliss@@QAEAAV?$vector@IV?$allocator@I@std@@@std@@XZ 00417708 f   pe_load_config.obj
 0001:0001670c       ?get_lock_prefix_rvas@image_config_info@pe_bliss@@QBEABV?$vector@IV?$allocator@I@std@@@std@@XZ 0041770c f   pe_load_config.obj
 0001:00016710       ?get_lock_prefix_table_va@image_config_info@pe_bliss@@QBE_KXZ 00417710 f   pe_load_config.obj
 0001:00016717       ?get_major_version@image_config_info@pe_bliss@@QBEGXZ 00417717 f   pe_load_config.obj
 0001:0001671c       ?get_max_allocation_size@image_config_info@pe_bliss@@QBE_KXZ 0041771c f   pe_load_config.obj
 0001:00016723       ?get_minor_version@image_config_info@pe_bliss@@QBEGXZ 00417723 f   pe_load_config.obj
 0001:00016728       ?get_process_affinity_mask@image_config_info@pe_bliss@@QBE_KXZ 00417728 f   pe_load_config.obj
 0001:0001672f       ?get_process_heap_flags@image_config_info@pe_bliss@@QBEIXZ 0041772f f   pe_load_config.obj
 0001:00016733       ?get_se_handler_count@image_config_info@pe_bliss@@QBE_KXZ 00417733 f   pe_load_config.obj
 0001:0001673a       ?get_se_handler_rvas@image_config_info@pe_bliss@@QAEAAV?$vector@IV?$allocator@I@std@@@std@@XZ 0041773a f   pe_load_config.obj
 0001:0001673e       ?get_se_handler_rvas@image_config_info@pe_bliss@@QBEABV?$vector@IV?$allocator@I@std@@@std@@XZ 0041773e f   pe_load_config.obj
 0001:00016742       ?get_se_handler_table_va@image_config_info@pe_bliss@@QBE_KXZ 00417742 f   pe_load_config.obj
 0001:00016749       ?get_security_cookie_va@image_config_info@pe_bliss@@QBE_KXZ 00417749 f   pe_load_config.obj
 0001:00016750       ?get_service_pack_version@image_config_info@pe_bliss@@QBEGXZ 00417750 f   pe_load_config.obj
 0001:00016755       ?get_time_stamp@image_config_info@pe_bliss@@QBEIXZ 00417755 f   pe_load_config.obj
 0001:00016758       ?get_virtual_memory_threshold@image_config_info@pe_bliss@@QBE_KXZ 00417758 f   pe_load_config.obj
 0001:0001675f       ?rebuild_image_config@pe_bliss@@YG?BVimage_directory@1@AAVpe_base@1@ABVimage_config_info@1@AAVsection@1@I_N333@Z 0041775f f   pe_load_config.obj
 0001:000167b0       ?set_critical_section_default_timeout@image_config_info@pe_bliss@@QAEXI@Z 004177b0 f   pe_load_config.obj
 0001:000167ba       ?set_decommit_free_block_threshold@image_config_info@pe_bliss@@QAEX_K@Z 004177ba f   pe_load_config.obj
 0001:000167cb       ?set_decommit_total_free_threshold@image_config_info@pe_bliss@@QAEX_K@Z 004177cb f   pe_load_config.obj
 0001:000167dc       ?set_edit_list_va@image_config_info@pe_bliss@@QAEX_K@Z 004177dc f   pe_load_config.obj
 0001:000167ed       ?set_global_flags_clear@image_config_info@pe_bliss@@QAEXI@Z 004177ed f   pe_load_config.obj
 0001:000167f7       ?set_global_flags_set@image_config_info@pe_bliss@@QAEXI@Z 004177f7 f   pe_load_config.obj
 0001:00016801       ?set_lock_prefix_table_va@image_config_info@pe_bliss@@QAEX_K@Z 00417801 f   pe_load_config.obj
 0001:00016812       ?set_major_version@image_config_info@pe_bliss@@QAEXG@Z 00417812 f   pe_load_config.obj
 0001:0001681e       ?set_max_allocation_size@image_config_info@pe_bliss@@QAEX_K@Z 0041781e f   pe_load_config.obj
 0001:0001682f       ?set_minor_version@image_config_info@pe_bliss@@QAEXG@Z 0041782f f   pe_load_config.obj
 0001:0001683b       ?set_process_affinity_mask@image_config_info@pe_bliss@@QAEX_K@Z 0041783b f   pe_load_config.obj
 0001:0001684c       ?set_process_heap_flags@image_config_info@pe_bliss@@QAEXI@Z 0041784c f   pe_load_config.obj
 0001:00016856       ?set_se_handler_table_va@image_config_info@pe_bliss@@QAEX_K@Z 00417856 f   pe_load_config.obj
 0001:00016867       ?set_security_cookie_va@image_config_info@pe_bliss@@QAEX_K@Z 00417867 f   pe_load_config.obj
 0001:00016878       ?set_service_pack_version@image_config_info@pe_bliss@@QAEXG@Z 00417878 f   pe_load_config.obj
 0001:00016884       ?set_time_stamp@image_config_info@pe_bliss@@QAEXI@Z 00417884 f   pe_load_config.obj
 0001:0001688d       ?set_virtual_memory_threshold@image_config_info@pe_bliss@@QAEX_K@Z 0041788d f   pe_load_config.obj
 0001:0001689e       ??1pe_properties@pe_bliss@@UAE@XZ 0041789e f   pe_properties.obj
 0001:000168a5       ?clear_characteristics_flags@pe_properties@pe_bliss@@QAEXG@Z 004178a5 f   pe_properties.obj
 0001:000168cb       ?set_characteristics_flags@pe_properties@pe_bliss@@QAEXG@Z 004178cb f   pe_properties.obj
 0001:000168ed       ??0?$pe_properties_generic@V?$pe_types@Uimage_nt_headers32@pe_win@pe_bliss@@Uimage_optional_header32@23@$0BAL@I$0IAAAAAAA@Uimage_tls_directory32@23@Uimage_load_config_directory32@23@@pe_bliss@@@pe_bliss@@QAE@ABV01@@Z 004178ed f i pe_properties_generic.obj
 0001:0001690d       ??0?$pe_properties_generic@V?$pe_types@Uimage_nt_headers64@pe_win@pe_bliss@@Uimage_optional_header64@23@$0CAL@_K$0?IAAAAAAAAAAAAAAA@Uimage_tls_directory64@23@Uimage_load_config_directory64@23@@pe_bliss@@@pe_bliss@@QAE@ABV01@@Z 0041790d f i pe_properties_generic.obj
 0001:0001692d       ??1?$pe_properties_generic@V?$pe_types@Uimage_nt_headers32@pe_win@pe_bliss@@Uimage_optional_header32@23@$0BAL@I$0IAAAAAAA@Uimage_tls_directory32@23@Uimage_load_config_directory32@23@@pe_bliss@@@pe_bliss@@UAE@XZ 0041792d f i pe_properties_generic.obj
 0001:00016938       ??1?$pe_properties_generic@V?$pe_types@Uimage_nt_headers64@pe_win@pe_bliss@@Uimage_optional_header64@23@$0CAL@_K$0?IAAAAAAAAAAAAAAA@Uimage_tls_directory64@23@Uimage_load_config_directory64@23@@pe_bliss@@@pe_bliss@@UAE@XZ 00417938 f i pe_properties_generic.obj
 0001:00016943       ?create_pe@?$pe_properties_generic@V?$pe_types@Uimage_nt_headers32@pe_win@pe_bliss@@Uimage_optional_header32@23@$0BAL@I$0IAAAAAAA@Uimage_tls_directory32@23@Uimage_load_config_directory32@23@@pe_bliss@@@pe_bliss@@UAEXIG@Z 00417943 f i pe_properties_generic.obj
 0001:000169c0       ?create_pe@?$pe_properties_generic@V?$pe_types@Uimage_nt_headers64@pe_win@pe_bliss@@Uimage_optional_header64@23@$0CAL@_K$0?IAAAAAAAAAAAAAAA@Uimage_tls_directory64@23@Uimage_load_config_directory64@23@@pe_bliss@@@pe_bliss@@UAEXIG@Z 004179c0 f i pe_properties_generic.obj
 0001:00016a55       ?directory_exists@?$pe_properties_generic@V?$pe_types@Uimage_nt_headers32@pe_win@pe_bliss@@Uimage_optional_header32@23@$0BAL@I$0IAAAAAAA@Uimage_tls_directory32@23@Uimage_load_config_directory32@23@@pe_bliss@@@pe_bliss@@UBE_NI@Z 00417a55 f i pe_properties_generic.obj
 0001:00016a72       ?directory_exists@?$pe_properties_generic@V?$pe_types@Uimage_nt_headers64@pe_win@pe_bliss@@Uimage_optional_header64@23@$0CAL@_K$0?IAAAAAAAAAAAAAAA@Uimage_tls_directory64@23@Uimage_load_config_directory64@23@@pe_bliss@@@pe_bliss@@UBE_NI@Z 00417a72 f i pe_properties_generic.obj
 0001:00016a95       ?duplicate@?$pe_properties_generic@V?$pe_types@Uimage_nt_headers32@pe_win@pe_bliss@@Uimage_optional_header32@23@$0BAL@I$0IAAAAAAA@Uimage_tls_directory32@23@Uimage_load_config_directory32@23@@pe_bliss@@@pe_bliss@@UBE?AV?$auto_ptr@Vpe_properties@pe_bliss@@@std@@XZ 00417a95 f i pe_properties_generic.obj
 0001:00016aca       ?duplicate@?$pe_properties_generic@V?$pe_types@Uimage_nt_headers64@pe_win@pe_bliss@@Uimage_optional_header64@23@$0CAL@_K$0?IAAAAAAAAAAAAAAA@Uimage_tls_directory64@23@Uimage_load_config_directory64@23@@pe_bliss@@@pe_bliss@@UBE?AV?$auto_ptr@Vpe_properties@pe_bliss@@@std@@XZ 00417aca f i pe_properties_generic.obj
 0001:00016aff       ?get_base_of_code@?$pe_properties_generic@V?$pe_types@Uimage_nt_headers32@pe_win@pe_bliss@@Uimage_optional_header32@23@$0BAL@I$0IAAAAAAA@Uimage_tls_directory32@23@Uimage_load_config_directory32@23@@pe_bliss@@@pe_bliss@@UBEIXZ 00417aff f i pe_properties_generic.obj
 0001:00016b03       ?get_base_of_code@?$pe_properties_generic@V?$pe_types@Uimage_nt_headers64@pe_win@pe_bliss@@Uimage_optional_header64@23@$0CAL@_K$0?IAAAAAAAAAAAAAAA@Uimage_tls_directory64@23@Uimage_load_config_directory64@23@@pe_bliss@@@pe_bliss@@UBEIXZ 00417b03 f i pe_properties_generic.obj
 0001:00016b07       ?get_characteristics@?$pe_properties_generic@V?$pe_types@Uimage_nt_headers32@pe_win@pe_bliss@@Uimage_optional_header32@23@$0BAL@I$0IAAAAAAA@Uimage_tls_directory32@23@Uimage_load_config_directory32@23@@pe_bliss@@@pe_bliss@@UBEGXZ 00417b07 f i pe_properties_generic.obj
 0001:00016b0c       ?get_characteristics@?$pe_properties_generic@V?$pe_types@Uimage_nt_headers64@pe_win@pe_bliss@@Uimage_optional_header64@23@$0CAL@_K$0?IAAAAAAAAAAAAAAA@Uimage_tls_directory64@23@Uimage_load_config_directory64@23@@pe_bliss@@@pe_bliss@@UBEGXZ 00417b0c f i pe_properties_generic.obj
 0001:00016b11       ?get_checksum@?$pe_properties_generic@V?$pe_types@Uimage_nt_headers32@pe_win@pe_bliss@@Uimage_optional_header32@23@$0BAL@I$0IAAAAAAA@Uimage_tls_directory32@23@Uimage_load_config_directory32@23@@pe_bliss@@@pe_bliss@@UBEIXZ 00417b11 f i pe_properties_generic.obj
 0001:00016b15       ?get_checksum@?$pe_properties_generic@V?$pe_types@Uimage_nt_headers64@pe_win@pe_bliss@@Uimage_optional_header64@23@$0CAL@_K$0?IAAAAAAAAAAAAAAA@Uimage_tls_directory64@23@Uimage_load_config_directory64@23@@pe_bliss@@@pe_bliss@@UBEIXZ 00417b15 f i pe_properties_generic.obj
 0001:00016b19       ?get_directory_rva@?$pe_properties_generic@V?$pe_types@Uimage_nt_headers32@pe_win@pe_bliss@@Uimage_optional_header32@23@$0BAL@I$0IAAAAAAA@Uimage_tls_directory32@23@Uimage_load_config_directory32@23@@pe_bliss@@@pe_bliss@@UBEII@Z 00417b19 f i pe_properties_generic.obj
 0001:00016b4d       ?get_directory_rva@?$pe_properties_generic@V?$pe_types@Uimage_nt_headers64@pe_win@pe_bliss@@Uimage_optional_header64@23@$0CAL@_K$0?IAAAAAAAAAAAAAAA@Uimage_tls_directory64@23@Uimage_load_config_directory64@23@@pe_bliss@@@pe_bliss@@UBEII@Z 00417b4d f i pe_properties_generic.obj
 0001:00016b87       ?get_directory_size@?$pe_properties_generic@V?$pe_types@Uimage_nt_headers32@pe_win@pe_bliss@@Uimage_optional_header32@23@$0BAL@I$0IAAAAAAA@Uimage_tls_directory32@23@Uimage_load_config_directory32@23@@pe_bliss@@@pe_bliss@@UBEII@Z 00417b87 f i pe_properties_generic.obj
 0001:00016bbe       ?get_directory_size@?$pe_properties_generic@V?$pe_types@Uimage_nt_headers64@pe_win@pe_bliss@@Uimage_optional_header64@23@$0CAL@_K$0?IAAAAAAAAAAAAAAA@Uimage_tls_directory64@23@Uimage_load_config_directory64@23@@pe_bliss@@@pe_bliss@@UBEII@Z 00417bbe f i pe_properties_generic.obj
 0001:00016bf8       ?get_dll_characteristics@?$pe_properties_generic@V?$pe_types@Uimage_nt_headers32@pe_win@pe_bliss@@Uimage_optional_header32@23@$0BAL@I$0IAAAAAAA@Uimage_tls_directory32@23@Uimage_load_config_directory32@23@@pe_bliss@@@pe_bliss@@UBEGXZ 00417bf8 f i pe_properties_generic.obj
 0001:00016bfd       ?get_dll_characteristics@?$pe_properties_generic@V?$pe_types@Uimage_nt_headers64@pe_win@pe_bliss@@Uimage_optional_header64@23@$0CAL@_K$0?IAAAAAAAAAAAAAAA@Uimage_tls_directory64@23@Uimage_load_config_directory64@23@@pe_bliss@@@pe_bliss@@UBEGXZ 00417bfd f i pe_properties_generic.obj
 0001:00016c02       ?get_ep@?$pe_properties_generic@V?$pe_types@Uimage_nt_headers32@pe_win@pe_bliss@@Uimage_optional_header32@23@$0BAL@I$0IAAAAAAA@Uimage_tls_directory32@23@Uimage_load_config_directory32@23@@pe_bliss@@@pe_bliss@@UBEIXZ 00417c02 f i pe_properties_generic.obj
 0001:00016c06       ?get_ep@?$pe_properties_generic@V?$pe_types@Uimage_nt_headers64@pe_win@pe_bliss@@Uimage_optional_header64@23@$0CAL@_K$0?IAAAAAAAAAAAAAAA@Uimage_tls_directory64@23@Uimage_load_config_directory64@23@@pe_bliss@@@pe_bliss@@UBEIXZ 00417c06 f i pe_properties_generic.obj
 0001:00016c0a       ?get_file_alignment@?$pe_properties_generic@V?$pe_types@Uimage_nt_headers32@pe_win@pe_bliss@@Uimage_optional_header32@23@$0BAL@I$0IAAAAAAA@Uimage_tls_directory32@23@Uimage_load_config_directory32@23@@pe_bliss@@@pe_bliss@@UBEIXZ 00417c0a f i pe_properties_generic.obj
 0001:00016c0e       ?get_file_alignment@?$pe_properties_generic@V?$pe_types@Uimage_nt_headers64@pe_win@pe_bliss@@Uimage_optional_header64@23@$0CAL@_K$0?IAAAAAAAAAAAAAAA@Uimage_tls_directory64@23@Uimage_load_config_directory64@23@@pe_bliss@@@pe_bliss@@UBEIXZ 00417c0e f i pe_properties_generic.obj
 0001:00016c12       ?get_heap_size_commit_32@?$pe_properties_generic@V?$pe_types@Uimage_nt_headers32@pe_win@pe_bliss@@Uimage_optional_header32@23@$0BAL@I$0IAAAAAAA@Uimage_tls_directory32@23@Uimage_load_config_directory32@23@@pe_bliss@@@pe_bliss@@UBEIXZ 00417c12 f i pe_properties_generic.obj
 0001:00016c16       ?get_heap_size_commit_32@?$pe_properties_generic@V?$pe_types@Uimage_nt_headers64@pe_win@pe_bliss@@Uimage_optional_header64@23@$0CAL@_K$0?IAAAAAAAAAAAAAAA@Uimage_tls_directory64@23@Uimage_load_config_directory64@23@@pe_bliss@@@pe_bliss@@UBEIXZ 00417c16 f i pe_properties_generic.obj
 0001:00016c1a       ?get_heap_size_commit_64@?$pe_properties_generic@V?$pe_types@Uimage_nt_headers32@pe_win@pe_bliss@@Uimage_optional_header32@23@$0BAL@I$0IAAAAAAA@Uimage_tls_directory32@23@Uimage_load_config_directory32@23@@pe_bliss@@@pe_bliss@@UBE_KXZ 00417c1a f i pe_properties_generic.obj
 0001:00016c20       ?get_heap_size_commit_64@?$pe_properties_generic@V?$pe_types@Uimage_nt_headers64@pe_win@pe_bliss@@Uimage_optional_header64@23@$0CAL@_K$0?IAAAAAAAAAAAAAAA@Uimage_tls_directory64@23@Uimage_load_config_directory64@23@@pe_bliss@@@pe_bliss@@UBE_KXZ 00417c20 f i pe_properties_generic.obj
 0001:00016c2a       ?get_heap_size_reserve_32@?$pe_properties_generic@V?$pe_types@Uimage_nt_headers32@pe_win@pe_bliss@@Uimage_optional_header32@23@$0BAL@I$0IAAAAAAA@Uimage_tls_directory32@23@Uimage_load_config_directory32@23@@pe_bliss@@@pe_bliss@@UBEIXZ 00417c2a f i pe_properties_generic.obj
 0001:00016c2e       ?get_heap_size_reserve_32@?$pe_properties_generic@V?$pe_types@Uimage_nt_headers64@pe_win@pe_bliss@@Uimage_optional_header64@23@$0CAL@_K$0?IAAAAAAAAAAAAAAA@Uimage_tls_directory64@23@Uimage_load_config_directory64@23@@pe_bliss@@@pe_bliss@@UBEIXZ 00417c2e f i pe_properties_generic.obj
 0001:00016c32       ?get_heap_size_reserve_64@?$pe_properties_generic@V?$pe_types@Uimage_nt_headers32@pe_win@pe_bliss@@Uimage_optional_header32@23@$0BAL@I$0IAAAAAAA@Uimage_tls_directory32@23@Uimage_load_config_directory32@23@@pe_bliss@@@pe_bliss@@UBE_KXZ 00417c32 f i pe_properties_generic.obj
 0001:00016c38       ?get_heap_size_reserve_64@?$pe_properties_generic@V?$pe_types@Uimage_nt_headers64@pe_win@pe_bliss@@Uimage_optional_header64@23@$0CAL@_K$0?IAAAAAAAAAAAAAAA@Uimage_tls_directory64@23@Uimage_load_config_directory64@23@@pe_bliss@@@pe_bliss@@UBE_KXZ 00417c38 f i pe_properties_generic.obj
 0001:00016c3f       ?get_image_base_32@?$pe_properties_generic@V?$pe_types@Uimage_nt_headers32@pe_win@pe_bliss@@Uimage_optional_header32@23@$0BAL@I$0IAAAAAAA@Uimage_tls_directory32@23@Uimage_load_config_directory32@23@@pe_bliss@@@pe_bliss@@UBEIXZ 00417c3f f i pe_properties_generic.obj
 0001:00016c43       ?get_image_base_32@?$pe_properties_generic@V?$pe_types@Uimage_nt_headers64@pe_win@pe_bliss@@Uimage_optional_header64@23@$0CAL@_K$0?IAAAAAAAAAAAAAAA@Uimage_tls_directory64@23@Uimage_load_config_directory64@23@@pe_bliss@@@pe_bliss@@UBEIXZ 00417c43 f i pe_properties_generic.obj
 0001:00016c47       ?get_image_base_64@?$pe_properties_generic@V?$pe_types@Uimage_nt_headers32@pe_win@pe_bliss@@Uimage_optional_header32@23@$0BAL@I$0IAAAAAAA@Uimage_tls_directory32@23@Uimage_load_config_directory32@23@@pe_bliss@@@pe_bliss@@UBE_KXZ 00417c47 f i pe_properties_generic.obj
 0001:00016c4d       ?get_image_base_64@?$pe_properties_generic@V?$pe_types@Uimage_nt_headers64@pe_win@pe_bliss@@Uimage_optional_header64@23@$0CAL@_K$0?IAAAAAAAAAAAAAAA@Uimage_tls_directory64@23@Uimage_load_config_directory64@23@@pe_bliss@@@pe_bliss@@UBE_KXZ 00417c4d f i pe_properties_generic.obj
 0001:00016c54       ?get_machine@?$pe_properties_generic@V?$pe_types@Uimage_nt_headers32@pe_win@pe_bliss@@Uimage_optional_header32@23@$0BAL@I$0IAAAAAAA@Uimage_tls_directory32@23@Uimage_load_config_directory32@23@@pe_bliss@@@pe_bliss@@UBEGXZ 00417c54 f i pe_properties_generic.obj
 0001:00016c59       ?get_machine@?$pe_properties_generic@V?$pe_types@Uimage_nt_headers64@pe_win@pe_bliss@@Uimage_optional_header64@23@$0CAL@_K$0?IAAAAAAAAAAAAAAA@Uimage_tls_directory64@23@Uimage_load_config_directory64@23@@pe_bliss@@@pe_bliss@@UBEGXZ 00417c59 f i pe_properties_generic.obj
 0001:00016c5e       ?get_magic@?$pe_properties_generic@V?$pe_types@Uimage_nt_headers32@pe_win@pe_bliss@@Uimage_optional_header32@23@$0BAL@I$0IAAAAAAA@Uimage_tls_directory32@23@Uimage_load_config_directory32@23@@pe_bliss@@@pe_bliss@@UBEIXZ 00417c5e f i pe_properties_generic.obj
 0001:00016c63       ?get_magic@?$pe_properties_generic@V?$pe_types@Uimage_nt_headers64@pe_win@pe_bliss@@Uimage_optional_header64@23@$0CAL@_K$0?IAAAAAAAAAAAAAAA@Uimage_tls_directory64@23@Uimage_load_config_directory64@23@@pe_bliss@@@pe_bliss@@UBEIXZ 00417c63 f i pe_properties_generic.obj
 0001:00016c68       ?get_major_os_version@?$pe_properties_generic@V?$pe_types@Uimage_nt_headers32@pe_win@pe_bliss@@Uimage_optional_header32@23@$0BAL@I$0IAAAAAAA@Uimage_tls_directory32@23@Uimage_load_config_directory32@23@@pe_bliss@@@pe_bliss@@UBEGXZ 00417c68 f i pe_properties_generic.obj
 0001:00016c6d       ?get_major_os_version@?$pe_properties_generic@V?$pe_types@Uimage_nt_headers64@pe_win@pe_bliss@@Uimage_optional_header64@23@$0CAL@_K$0?IAAAAAAAAAAAAAAA@Uimage_tls_directory64@23@Uimage_load_config_directory64@23@@pe_bliss@@@pe_bliss@@UBEGXZ 00417c6d f i pe_properties_generic.obj
 0001:00016c72       ?get_major_subsystem_version@?$pe_properties_generic@V?$pe_types@Uimage_nt_headers32@pe_win@pe_bliss@@Uimage_optional_header32@23@$0BAL@I$0IAAAAAAA@Uimage_tls_directory32@23@Uimage_load_config_directory32@23@@pe_bliss@@@pe_bliss@@UBEGXZ 00417c72 f i pe_properties_generic.obj
 0001:00016c77       ?get_major_subsystem_version@?$pe_properties_generic@V?$pe_types@Uimage_nt_headers64@pe_win@pe_bliss@@Uimage_optional_header64@23@$0CAL@_K$0?IAAAAAAAAAAAAAAA@Uimage_tls_directory64@23@Uimage_load_config_directory64@23@@pe_bliss@@@pe_bliss@@UBEGXZ 00417c77 f i pe_properties_generic.obj
 0001:00016c7c       ?get_minor_os_version@?$pe_properties_generic@V?$pe_types@Uimage_nt_headers32@pe_win@pe_bliss@@Uimage_optional_header32@23@$0BAL@I$0IAAAAAAA@Uimage_tls_directory32@23@Uimage_load_config_directory32@23@@pe_bliss@@@pe_bliss@@UBEGXZ 00417c7c f i pe_properties_generic.obj
 0001:00016c81       ?get_minor_os_version@?$pe_properties_generic@V?$pe_types@Uimage_nt_headers64@pe_win@pe_bliss@@Uimage_optional_header64@23@$0CAL@_K$0?IAAAAAAAAAAAAAAA@Uimage_tls_directory64@23@Uimage_load_config_directory64@23@@pe_bliss@@@pe_bliss@@UBEGXZ 00417c81 f i pe_properties_generic.obj
 0001:00016c86       ?get_minor_subsystem_version@?$pe_properties_generic@V?$pe_types@Uimage_nt_headers32@pe_win@pe_bliss@@Uimage_optional_header32@23@$0BAL@I$0IAAAAAAA@Uimage_tls_directory32@23@Uimage_load_config_directory32@23@@pe_bliss@@@pe_bliss@@UBEGXZ 00417c86 f i pe_properties_generic.obj
 0001:00016c8b       ?get_minor_subsystem_version@?$pe_properties_generic@V?$pe_types@Uimage_nt_headers64@pe_win@pe_bliss@@Uimage_optional_header64@23@$0CAL@_K$0?IAAAAAAAAAAAAAAA@Uimage_tls_directory64@23@Uimage_load_config_directory64@23@@pe_bliss@@@pe_bliss@@UBEGXZ 00417c8b f i pe_properties_generic.obj
 0001:00016c90       ?get_needed_magic@?$pe_properties_generic@V?$pe_types@Uimage_nt_headers32@pe_win@pe_bliss@@Uimage_optional_header32@23@$0BAL@I$0IAAAAAAA@Uimage_tls_directory32@23@Uimage_load_config_directory32@23@@pe_bliss@@@pe_bliss@@UBEIXZ 00417c90 f i pe_properties_generic.obj
 0001:00016c96       ?get_needed_magic@?$pe_properties_generic@V?$pe_types@Uimage_nt_headers64@pe_win@pe_bliss@@Uimage_optional_header64@23@$0CAL@_K$0?IAAAAAAAAAAAAAAA@Uimage_tls_directory64@23@Uimage_load_config_directory64@23@@pe_bliss@@@pe_bliss@@UBEIXZ 00417c96 f i pe_properties_generic.obj
 0001:00016c9c       ?get_nt_headers_ptr@?$pe_properties_generic@V?$pe_types@Uimage_nt_headers32@pe_win@pe_bliss@@Uimage_optional_header32@23@$0BAL@I$0IAAAAAAA@Uimage_tls_directory32@23@Uimage_load_config_directory32@23@@pe_bliss@@@pe_bliss@@UAEPADXZ 00417c9c f i pe_properties_generic.obj
 0001:00016ca0       ?get_nt_headers_ptr@?$pe_properties_generic@V?$pe_types@Uimage_nt_headers32@pe_win@pe_bliss@@Uimage_optional_header32@23@$0BAL@I$0IAAAAAAA@Uimage_tls_directory32@23@Uimage_load_config_directory32@23@@pe_bliss@@@pe_bliss@@UBEPBDXZ 00417ca0 f i pe_properties_generic.obj
 0001:00016ca4       ?get_nt_headers_ptr@?$pe_properties_generic@V?$pe_types@Uimage_nt_headers64@pe_win@pe_bliss@@Uimage_optional_header64@23@$0CAL@_K$0?IAAAAAAAAAAAAAAA@Uimage_tls_directory64@23@Uimage_load_config_directory64@23@@pe_bliss@@@pe_bliss@@UAEPADXZ 00417ca4 f i pe_properties_generic.obj
 0001:00016ca8       ?get_nt_headers_ptr@?$pe_properties_generic@V?$pe_types@Uimage_nt_headers64@pe_win@pe_bliss@@Uimage_optional_header64@23@$0CAL@_K$0?IAAAAAAAAAAAAAAA@Uimage_tls_directory64@23@Uimage_load_config_directory64@23@@pe_bliss@@@pe_bliss@@UBEPBDXZ 00417ca8 f i pe_properties_generic.obj
 0001:00016cac       ?get_number_of_rvas_and_sizes@?$pe_properties_generic@V?$pe_types@Uimage_nt_headers32@pe_win@pe_bliss@@Uimage_optional_header32@23@$0BAL@I$0IAAAAAAA@Uimage_tls_directory32@23@Uimage_load_config_directory32@23@@pe_bliss@@@pe_bliss@@UBEIXZ 00417cac f i pe_properties_generic.obj
 0001:00016cb0       ?get_number_of_rvas_and_sizes@?$pe_properties_generic@V?$pe_types@Uimage_nt_headers64@pe_win@pe_bliss@@Uimage_optional_header64@23@$0CAL@_K$0?IAAAAAAAAAAAAAAA@Uimage_tls_directory64@23@Uimage_load_config_directory64@23@@pe_bliss@@@pe_bliss@@UBEIXZ 00417cb0 f i pe_properties_generic.obj
 0001:00016cb7       ?get_number_of_sections@?$pe_properties_generic@V?$pe_types@Uimage_nt_headers32@pe_win@pe_bliss@@Uimage_optional_header32@23@$0BAL@I$0IAAAAAAA@Uimage_tls_directory32@23@Uimage_load_config_directory32@23@@pe_bliss@@@pe_bliss@@UBEGXZ 00417cb7 f i pe_properties_generic.obj
 0001:00016cbc       ?get_number_of_sections@?$pe_properties_generic@V?$pe_types@Uimage_nt_headers64@pe_win@pe_bliss@@Uimage_optional_header64@23@$0CAL@_K$0?IAAAAAAAAAAAAAAA@Uimage_tls_directory64@23@Uimage_load_config_directory64@23@@pe_bliss@@@pe_bliss@@UBEGXZ 00417cbc f i pe_properties_generic.obj
 0001:00016cc1       ?get_pe_signature@?$pe_properties_generic@V?$pe_types@Uimage_nt_headers32@pe_win@pe_bliss@@Uimage_optional_header32@23@$0BAL@I$0IAAAAAAA@Uimage_tls_directory32@23@Uimage_load_config_directory32@23@@pe_bliss@@@pe_bliss@@UBEIXZ 00417cc1 f i pe_properties_generic.obj
 0001:00016cc5       ?get_pe_signature@?$pe_properties_generic@V?$pe_types@Uimage_nt_headers64@pe_win@pe_bliss@@Uimage_optional_header64@23@$0CAL@_K$0?IAAAAAAAAAAAAAAA@Uimage_tls_directory64@23@Uimage_load_config_directory64@23@@pe_bliss@@@pe_bliss@@UBEIXZ 00417cc5 f i pe_properties_generic.obj
 0001:00016cc9       ?get_pe_type@?$pe_properties_generic@V?$pe_types@Uimage_nt_headers32@pe_win@pe_bliss@@Uimage_optional_header32@23@$0BAL@I$0IAAAAAAA@Uimage_tls_directory32@23@Uimage_load_config_directory32@23@@pe_bliss@@@pe_bliss@@UBE?AW4pe_type@2@XZ 00417cc9 f i pe_properties_generic.obj
 0001:00016ccc       ?get_pe_type@?$pe_properties_generic@V?$pe_types@Uimage_nt_headers64@pe_win@pe_bliss@@Uimage_optional_header64@23@$0CAL@_K$0?IAAAAAAAAAAAAAAA@Uimage_tls_directory64@23@Uimage_load_config_directory64@23@@pe_bliss@@@pe_bliss@@UBE?AW4pe_type@2@XZ 00417ccc f i pe_properties_generic.obj
 0001:00016cd0       ?get_section_alignment@?$pe_properties_generic@V?$pe_types@Uimage_nt_headers32@pe_win@pe_bliss@@Uimage_optional_header32@23@$0BAL@I$0IAAAAAAA@Uimage_tls_directory32@23@Uimage_load_config_directory32@23@@pe_bliss@@@pe_bliss@@UBEIXZ 00417cd0 f i pe_properties_generic.obj
 0001:00016cd4       ?get_section_alignment@?$pe_properties_generic@V?$pe_types@Uimage_nt_headers64@pe_win@pe_bliss@@Uimage_optional_header64@23@$0CAL@_K$0?IAAAAAAAAAAAAAAA@Uimage_tls_directory64@23@Uimage_load_config_directory64@23@@pe_bliss@@@pe_bliss@@UBEIXZ 00417cd4 f i pe_properties_generic.obj
 0001:00016cd8       ?get_size_of_headers@?$pe_properties_generic@V?$pe_types@Uimage_nt_headers32@pe_win@pe_bliss@@Uimage_optional_header32@23@$0BAL@I$0IAAAAAAA@Uimage_tls_directory32@23@Uimage_load_config_directory32@23@@pe_bliss@@@pe_bliss@@UBEIXZ 00417cd8 f i pe_properties_generic.obj
 0001:00016cdc       ?get_size_of_headers@?$pe_properties_generic@V?$pe_types@Uimage_nt_headers64@pe_win@pe_bliss@@Uimage_optional_header64@23@$0CAL@_K$0?IAAAAAAAAAAAAAAA@Uimage_tls_directory64@23@Uimage_load_config_directory64@23@@pe_bliss@@@pe_bliss@@UBEIXZ 00417cdc f i pe_properties_generic.obj
 0001:00016ce0       ?get_size_of_image@?$pe_properties_generic@V?$pe_types@Uimage_nt_headers32@pe_win@pe_bliss@@Uimage_optional_header32@23@$0BAL@I$0IAAAAAAA@Uimage_tls_directory32@23@Uimage_load_config_directory32@23@@pe_bliss@@@pe_bliss@@UBEIXZ 00417ce0 f i pe_properties_generic.obj
 0001:00016ce4       ?get_size_of_image@?$pe_properties_generic@V?$pe_types@Uimage_nt_headers64@pe_win@pe_bliss@@Uimage_optional_header64@23@$0CAL@_K$0?IAAAAAAAAAAAAAAA@Uimage_tls_directory64@23@Uimage_load_config_directory64@23@@pe_bliss@@@pe_bliss@@UBEIXZ 00417ce4 f i pe_properties_generic.obj
 0001:00016ce8       ?get_size_of_optional_header@?$pe_properties_generic@V?$pe_types@Uimage_nt_headers32@pe_win@pe_bliss@@Uimage_optional_header32@23@$0BAL@I$0IAAAAAAA@Uimage_tls_directory32@23@Uimage_load_config_directory32@23@@pe_bliss@@@pe_bliss@@UBEGXZ 00417ce8 f i pe_properties_generic.obj
 0001:00016ced       ?get_size_of_optional_header@?$pe_properties_generic@V?$pe_types@Uimage_nt_headers64@pe_win@pe_bliss@@Uimage_optional_header64@23@$0CAL@_K$0?IAAAAAAAAAAAAAAA@Uimage_tls_directory64@23@Uimage_load_config_directory64@23@@pe_bliss@@@pe_bliss@@UBEGXZ 00417ced f i pe_properties_generic.obj
 0001:00016cf2       ?get_sizeof_nt_header@?$pe_properties_generic@V?$pe_types@Uimage_nt_headers32@pe_win@pe_bliss@@Uimage_optional_header32@23@$0BAL@I$0IAAAAAAA@Uimage_tls_directory32@23@Uimage_load_config_directory32@23@@pe_bliss@@@pe_bliss@@UBEIXZ 00417cf2 f i pe_properties_generic.obj
 0001:00016cf8       ?get_sizeof_nt_header@?$pe_properties_generic@V?$pe_types@Uimage_nt_headers64@pe_win@pe_bliss@@Uimage_optional_header64@23@$0CAL@_K$0?IAAAAAAAAAAAAAAA@Uimage_tls_directory64@23@Uimage_load_config_directory64@23@@pe_bliss@@@pe_bliss@@UBEIXZ 00417cf8 f i pe_properties_generic.obj
 0001:00016cfe       ?get_sizeof_opt_headers@?$pe_properties_generic@V?$pe_types@Uimage_nt_headers32@pe_win@pe_bliss@@Uimage_optional_header32@23@$0BAL@I$0IAAAAAAA@Uimage_tls_directory32@23@Uimage_load_config_directory32@23@@pe_bliss@@@pe_bliss@@UBEIXZ 00417cfe f i pe_properties_generic.obj
 0001:00016d04       ?get_sizeof_opt_headers@?$pe_properties_generic@V?$pe_types@Uimage_nt_headers64@pe_win@pe_bliss@@Uimage_optional_header64@23@$0CAL@_K$0?IAAAAAAAAAAAAAAA@Uimage_tls_directory64@23@Uimage_load_config_directory64@23@@pe_bliss@@@pe_bliss@@UBEIXZ 00417d04 f i pe_properties_generic.obj
 0001:00016d0a       ?get_stack_size_commit_32@?$pe_properties_generic@V?$pe_types@Uimage_nt_headers32@pe_win@pe_bliss@@Uimage_optional_header32@23@$0BAL@I$0IAAAAAAA@Uimage_tls_directory32@23@Uimage_load_config_directory32@23@@pe_bliss@@@pe_bliss@@UBEIXZ 00417d0a f i pe_properties_generic.obj
 0001:00016d0e       ?get_stack_size_commit_32@?$pe_properties_generic@V?$pe_types@Uimage_nt_headers64@pe_win@pe_bliss@@Uimage_optional_header64@23@$0CAL@_K$0?IAAAAAAAAAAAAAAA@Uimage_tls_directory64@23@Uimage_load_config_directory64@23@@pe_bliss@@@pe_bliss@@UBEIXZ 00417d0e f i pe_properties_generic.obj
 0001:00016d12       ?get_stack_size_commit_64@?$pe_properties_generic@V?$pe_types@Uimage_nt_headers32@pe_win@pe_bliss@@Uimage_optional_header32@23@$0BAL@I$0IAAAAAAA@Uimage_tls_directory32@23@Uimage_load_config_directory32@23@@pe_bliss@@@pe_bliss@@UBE_KXZ 00417d12 f i pe_properties_generic.obj
 0001:00016d18       ?get_stack_size_commit_64@?$pe_properties_generic@V?$pe_types@Uimage_nt_headers64@pe_win@pe_bliss@@Uimage_optional_header64@23@$0CAL@_K$0?IAAAAAAAAAAAAAAA@Uimage_tls_directory64@23@Uimage_load_config_directory64@23@@pe_bliss@@@pe_bliss@@UBE_KXZ 00417d18 f i pe_properties_generic.obj
 0001:00016d1f       ?get_stack_size_reserve_32@?$pe_properties_generic@V?$pe_types@Uimage_nt_headers32@pe_win@pe_bliss@@Uimage_optional_header32@23@$0BAL@I$0IAAAAAAA@Uimage_tls_directory32@23@Uimage_load_config_directory32@23@@pe_bliss@@@pe_bliss@@UBEIXZ 00417d1f f i pe_properties_generic.obj
 0001:00016d23       ?get_stack_size_reserve_32@?$pe_properties_generic@V?$pe_types@Uimage_nt_headers64@pe_win@pe_bliss@@Uimage_optional_header64@23@$0CAL@_K$0?IAAAAAAAAAAAAAAA@Uimage_tls_directory64@23@Uimage_load_config_directory64@23@@pe_bliss@@@pe_bliss@@UBEIXZ 00417d23 f i pe_properties_generic.obj
 0001:00016d27       ?get_stack_size_reserve_64@?$pe_properties_generic@V?$pe_types@Uimage_nt_headers32@pe_win@pe_bliss@@Uimage_optional_header32@23@$0BAL@I$0IAAAAAAA@Uimage_tls_directory32@23@Uimage_load_config_directory32@23@@pe_bliss@@@pe_bliss@@UBE_KXZ 00417d27 f i pe_properties_generic.obj
 0001:00016d2d       ?get_stack_size_reserve_64@?$pe_properties_generic@V?$pe_types@Uimage_nt_headers64@pe_win@pe_bliss@@Uimage_optional_header64@23@$0CAL@_K$0?IAAAAAAAAAAAAAAA@Uimage_tls_directory64@23@Uimage_load_config_directory64@23@@pe_bliss@@@pe_bliss@@UBE_KXZ 00417d2d f i pe_properties_generic.obj
 0001:00016d34       ?get_subsystem@?$pe_properties_generic@V?$pe_types@Uimage_nt_headers32@pe_win@pe_bliss@@Uimage_optional_header32@23@$0BAL@I$0IAAAAAAA@Uimage_tls_directory32@23@Uimage_load_config_directory32@23@@pe_bliss@@@pe_bliss@@UBEGXZ 00417d34 f i pe_properties_generic.obj
 0001:00016d39       ?get_subsystem@?$pe_properties_generic@V?$pe_types@Uimage_nt_headers64@pe_win@pe_bliss@@Uimage_optional_header64@23@$0CAL@_K$0?IAAAAAAAAAAAAAAA@Uimage_tls_directory64@23@Uimage_load_config_directory64@23@@pe_bliss@@@pe_bliss@@UBEGXZ 00417d39 f i pe_properties_generic.obj
 0001:00016d3e       ?get_time_date_stamp@?$pe_properties_generic@V?$pe_types@Uimage_nt_headers32@pe_win@pe_bliss@@Uimage_optional_header32@23@$0BAL@I$0IAAAAAAA@Uimage_tls_directory32@23@Uimage_load_config_directory32@23@@pe_bliss@@@pe_bliss@@UBEIXZ 00417d3e f i pe_properties_generic.obj
 0001:00016d42       ?get_time_date_stamp@?$pe_properties_generic@V?$pe_types@Uimage_nt_headers64@pe_win@pe_bliss@@Uimage_optional_header64@23@$0CAL@_K$0?IAAAAAAAAAAAAAAA@Uimage_tls_directory64@23@Uimage_load_config_directory64@23@@pe_bliss@@@pe_bliss@@UBEIXZ 00417d42 f i pe_properties_generic.obj
 0001:00016d46       ?remove_directory@?$pe_properties_generic@V?$pe_types@Uimage_nt_headers32@pe_win@pe_bliss@@Uimage_optional_header32@23@$0BAL@I$0IAAAAAAA@Uimage_tls_directory32@23@Uimage_load_config_directory32@23@@pe_bliss@@@pe_bliss@@UAEXI@Z 00417d46 f i pe_properties_generic.obj
 0001:00016da8       ?remove_directory@?$pe_properties_generic@V?$pe_types@Uimage_nt_headers64@pe_win@pe_bliss@@Uimage_optional_header64@23@$0CAL@_K$0?IAAAAAAAAAAAAAAA@Uimage_tls_directory64@23@Uimage_load_config_directory64@23@@pe_bliss@@@pe_bliss@@UAEXI@Z 00417da8 f i pe_properties_generic.obj
 0001:00016e0d       ?rva_to_va_32@?$pe_properties_generic@V?$pe_types@Uimage_nt_headers32@pe_win@pe_bliss@@Uimage_optional_header32@23@$0BAL@I$0IAAAAAAA@Uimage_tls_directory32@23@Uimage_load_config_directory32@23@@pe_bliss@@@pe_bliss@@UBEII@Z 00417e0d f i pe_properties_generic.obj
 0001:00016e46       ?rva_to_va_32@?$pe_properties_generic@V?$pe_types@Uimage_nt_headers64@pe_win@pe_bliss@@Uimage_optional_header64@23@$0CAL@_K$0?IAAAAAAAAAAAAAAA@Uimage_tls_directory64@23@Uimage_load_config_directory64@23@@pe_bliss@@@pe_bliss@@UBEII@Z 00417e46 f i pe_properties_generic.obj
 0001:00016e7f       ?rva_to_va_64@?$pe_properties_generic@V?$pe_types@Uimage_nt_headers32@pe_win@pe_bliss@@Uimage_optional_header32@23@$0BAL@I$0IAAAAAAA@Uimage_tls_directory32@23@Uimage_load_config_directory32@23@@pe_bliss@@@pe_bliss@@UBE_KI@Z 00417e7f f i pe_properties_generic.obj
 0001:00016e8d       ?rva_to_va_64@?$pe_properties_generic@V?$pe_types@Uimage_nt_headers64@pe_win@pe_bliss@@Uimage_optional_header64@23@$0CAL@_K$0?IAAAAAAAAAAAAAAA@Uimage_tls_directory64@23@Uimage_load_config_directory64@23@@pe_bliss@@@pe_bliss@@UBE_KI@Z 00417e8d f i pe_properties_generic.obj
 0001:00016e9c       ?set_base_of_code@?$pe_properties_generic@V?$pe_types@Uimage_nt_headers32@pe_win@pe_bliss@@Uimage_optional_header32@23@$0BAL@I$0IAAAAAAA@Uimage_tls_directory32@23@Uimage_load_config_directory32@23@@pe_bliss@@@pe_bliss@@UAEXI@Z 00417e9c f i pe_properties_generic.obj
 0001:00016ea6       ?set_base_of_code@?$pe_properties_generic@V?$pe_types@Uimage_nt_headers64@pe_win@pe_bliss@@Uimage_optional_header64@23@$0CAL@_K$0?IAAAAAAAAAAAAAAA@Uimage_tls_directory64@23@Uimage_load_config_directory64@23@@pe_bliss@@@pe_bliss@@UAEXI@Z 00417ea6 f i pe_properties_generic.obj
 0001:00016eb0       ?set_characteristics@?$pe_properties_generic@V?$pe_types@Uimage_nt_headers32@pe_win@pe_bliss@@Uimage_optional_header32@23@$0BAL@I$0IAAAAAAA@Uimage_tls_directory32@23@Uimage_load_config_directory32@23@@pe_bliss@@@pe_bliss@@UAEXG@Z 00417eb0 f i pe_properties_generic.obj
 0001:00016ebc       ?set_characteristics@?$pe_properties_generic@V?$pe_types@Uimage_nt_headers64@pe_win@pe_bliss@@Uimage_optional_header64@23@$0CAL@_K$0?IAAAAAAAAAAAAAAA@Uimage_tls_directory64@23@Uimage_load_config_directory64@23@@pe_bliss@@@pe_bliss@@UAEXG@Z 00417ebc f i pe_properties_generic.obj
 0001:00016ec8       ?set_checksum@?$pe_properties_generic@V?$pe_types@Uimage_nt_headers32@pe_win@pe_bliss@@Uimage_optional_header32@23@$0BAL@I$0IAAAAAAA@Uimage_tls_directory32@23@Uimage_load_config_directory32@23@@pe_bliss@@@pe_bliss@@UAEXI@Z 00417ec8 f i pe_properties_generic.obj
 0001:00016ed2       ?set_checksum@?$pe_properties_generic@V?$pe_types@Uimage_nt_headers64@pe_win@pe_bliss@@Uimage_optional_header64@23@$0CAL@_K$0?IAAAAAAAAAAAAAAA@Uimage_tls_directory64@23@Uimage_load_config_directory64@23@@pe_bliss@@@pe_bliss@@UAEXI@Z 00417ed2 f i pe_properties_generic.obj
 0001:00016edc       ?set_directory_rva@?$pe_properties_generic@V?$pe_types@Uimage_nt_headers32@pe_win@pe_bliss@@Uimage_optional_header32@23@$0BAL@I$0IAAAAAAA@Uimage_tls_directory32@23@Uimage_load_config_directory32@23@@pe_bliss@@@pe_bliss@@UAEXII@Z 00417edc f i pe_properties_generic.obj
 0001:00016f13       ?set_directory_rva@?$pe_properties_generic@V?$pe_types@Uimage_nt_headers64@pe_win@pe_bliss@@Uimage_optional_header64@23@$0CAL@_K$0?IAAAAAAAAAAAAAAA@Uimage_tls_directory64@23@Uimage_load_config_directory64@23@@pe_bliss@@@pe_bliss@@UAEXII@Z 00417f13 f i pe_properties_generic.obj
 0001:00016f50       ?set_directory_size@?$pe_properties_generic@V?$pe_types@Uimage_nt_headers32@pe_win@pe_bliss@@Uimage_optional_header32@23@$0BAL@I$0IAAAAAAA@Uimage_tls_directory32@23@Uimage_load_config_directory32@23@@pe_bliss@@@pe_bliss@@UAEXII@Z 00417f50 f i pe_properties_generic.obj
 0001:00016f8a       ?set_directory_size@?$pe_properties_generic@V?$pe_types@Uimage_nt_headers64@pe_win@pe_bliss@@Uimage_optional_header64@23@$0CAL@_K$0?IAAAAAAAAAAAAAAA@Uimage_tls_directory64@23@Uimage_load_config_directory64@23@@pe_bliss@@@pe_bliss@@UAEXII@Z 00417f8a f i pe_properties_generic.obj
 0001:00016fc7       ?set_dll_characteristics@?$pe_properties_generic@V?$pe_types@Uimage_nt_headers32@pe_win@pe_bliss@@Uimage_optional_header32@23@$0BAL@I$0IAAAAAAA@Uimage_tls_directory32@23@Uimage_load_config_directory32@23@@pe_bliss@@@pe_bliss@@UAEXG@Z 00417fc7 f i pe_properties_generic.obj
 0001:00016fd3       ?set_dll_characteristics@?$pe_properties_generic@V?$pe_types@Uimage_nt_headers64@pe_win@pe_bliss@@Uimage_optional_header64@23@$0CAL@_K$0?IAAAAAAAAAAAAAAA@Uimage_tls_directory64@23@Uimage_load_config_directory64@23@@pe_bliss@@@pe_bliss@@UAEXG@Z 00417fd3 f i pe_properties_generic.obj
 0001:00016fdf       ?set_ep@?$pe_properties_generic@V?$pe_types@Uimage_nt_headers32@pe_win@pe_bliss@@Uimage_optional_header32@23@$0BAL@I$0IAAAAAAA@Uimage_tls_directory32@23@Uimage_load_config_directory32@23@@pe_bliss@@@pe_bliss@@UAEXI@Z 00417fdf f i pe_properties_generic.obj
 0001:00016fe9       ?set_ep@?$pe_properties_generic@V?$pe_types@Uimage_nt_headers64@pe_win@pe_bliss@@Uimage_optional_header64@23@$0CAL@_K$0?IAAAAAAAAAAAAAAA@Uimage_tls_directory64@23@Uimage_load_config_directory64@23@@pe_bliss@@@pe_bliss@@UAEXI@Z 00417fe9 f i pe_properties_generic.obj
 0001:00016ff3       ?set_file_alignment_unchecked@?$pe_properties_generic@V?$pe_types@Uimage_nt_headers32@pe_win@pe_bliss@@Uimage_optional_header32@23@$0BAL@I$0IAAAAAAA@Uimage_tls_directory32@23@Uimage_load_config_directory32@23@@pe_bliss@@@pe_bliss@@UAEXI@Z 00417ff3 f i pe_properties_generic.obj
 0001:00016ffd       ?set_file_alignment_unchecked@?$pe_properties_generic@V?$pe_types@Uimage_nt_headers64@pe_win@pe_bliss@@Uimage_optional_header64@23@$0CAL@_K$0?IAAAAAAAAAAAAAAA@Uimage_tls_directory64@23@Uimage_load_config_directory64@23@@pe_bliss@@@pe_bliss@@UAEXI@Z 00417ffd f i pe_properties_generic.obj
 0001:00017007       ?set_heap_size_commit@?$pe_properties_generic@V?$pe_types@Uimage_nt_headers32@pe_win@pe_bliss@@Uimage_optional_header32@23@$0BAL@I$0IAAAAAAA@Uimage_tls_directory32@23@Uimage_load_config_directory32@23@@pe_bliss@@@pe_bliss@@UAEXI@Z 00418007 f i pe_properties_generic.obj
 0001:00017011       ?set_heap_size_commit@?$pe_properties_generic@V?$pe_types@Uimage_nt_headers32@pe_win@pe_bliss@@Uimage_optional_header32@23@$0BAL@I$0IAAAAAAA@Uimage_tls_directory32@23@Uimage_load_config_directory32@23@@pe_bliss@@@pe_bliss@@UAEX_K@Z 00418011 f i pe_properties_generic.obj
 0001:0001701b       ?set_heap_size_commit@?$pe_properties_generic@V?$pe_types@Uimage_nt_headers64@pe_win@pe_bliss@@Uimage_optional_header64@23@$0CAL@_K$0?IAAAAAAAAAAAAAAA@Uimage_tls_directory64@23@Uimage_load_config_directory64@23@@pe_bliss@@@pe_bliss@@UAEXI@Z 0041801b f i pe_properties_generic.obj
 0001:0001702c       ?set_heap_size_commit@?$pe_properties_generic@V?$pe_types@Uimage_nt_headers64@pe_win@pe_bliss@@Uimage_optional_header64@23@$0CAL@_K$0?IAAAAAAAAAAAAAAA@Uimage_tls_directory64@23@Uimage_load_config_directory64@23@@pe_bliss@@@pe_bliss@@UAEX_K@Z 0041802c f i pe_properties_generic.obj
 0001:00017040       ?set_heap_size_reserve@?$pe_properties_generic@V?$pe_types@Uimage_nt_headers32@pe_win@pe_bliss@@Uimage_optional_header32@23@$0BAL@I$0IAAAAAAA@Uimage_tls_directory32@23@Uimage_load_config_directory32@23@@pe_bliss@@@pe_bliss@@UAEXI@Z 00418040 f i pe_properties_generic.obj
 0001:0001704a       ?set_heap_size_reserve@?$pe_properties_generic@V?$pe_types@Uimage_nt_headers32@pe_win@pe_bliss@@Uimage_optional_header32@23@$0BAL@I$0IAAAAAAA@Uimage_tls_directory32@23@Uimage_load_config_directory32@23@@pe_bliss@@@pe_bliss@@UAEX_K@Z 0041804a f i pe_properties_generic.obj
 0001:00017054       ?set_heap_size_reserve@?$pe_properties_generic@V?$pe_types@Uimage_nt_headers64@pe_win@pe_bliss@@Uimage_optional_header64@23@$0CAL@_K$0?IAAAAAAAAAAAAAAA@Uimage_tls_directory64@23@Uimage_load_config_directory64@23@@pe_bliss@@@pe_bliss@@UAEXI@Z 00418054 f i pe_properties_generic.obj
 0001:00017062       ?set_heap_size_reserve@?$pe_properties_generic@V?$pe_types@Uimage_nt_headers64@pe_win@pe_bliss@@Uimage_optional_header64@23@$0CAL@_K$0?IAAAAAAAAAAAAAAA@Uimage_tls_directory64@23@Uimage_load_config_directory64@23@@pe_bliss@@@pe_bliss@@UAEX_K@Z 00418062 f i pe_properties_generic.obj
 0001:00017073       ?set_image_base@?$pe_properties_generic@V?$pe_types@Uimage_nt_headers32@pe_win@pe_bliss@@Uimage_optional_header32@23@$0BAL@I$0IAAAAAAA@Uimage_tls_directory32@23@Uimage_load_config_directory32@23@@pe_bliss@@@pe_bliss@@UAEXI@Z 00418073 f i pe_properties_generic.obj
 0001:0001707d       ?set_image_base@?$pe_properties_generic@V?$pe_types@Uimage_nt_headers64@pe_win@pe_bliss@@Uimage_optional_header64@23@$0CAL@_K$0?IAAAAAAAAAAAAAAA@Uimage_tls_directory64@23@Uimage_load_config_directory64@23@@pe_bliss@@@pe_bliss@@UAEXI@Z 0041807d f i pe_properties_generic.obj
 0001:0001708b       ?set_image_base_64@?$pe_properties_generic@V?$pe_types@Uimage_nt_headers32@pe_win@pe_bliss@@Uimage_optional_header32@23@$0BAL@I$0IAAAAAAA@Uimage_tls_directory32@23@Uimage_load_config_directory32@23@@pe_bliss@@@pe_bliss@@UAEX_K@Z 0041808b f i pe_properties_generic.obj
 0001:00017095       ?set_image_base_64@?$pe_properties_generic@V?$pe_types@Uimage_nt_headers64@pe_win@pe_bliss@@Uimage_optional_header64@23@$0CAL@_K$0?IAAAAAAAAAAAAAAA@Uimage_tls_directory64@23@Uimage_load_config_directory64@23@@pe_bliss@@@pe_bliss@@UAEX_K@Z 00418095 f i pe_properties_generic.obj
 0001:000170a6       ?set_machine@?$pe_properties_generic@V?$pe_types@Uimage_nt_headers32@pe_win@pe_bliss@@Uimage_optional_header32@23@$0BAL@I$0IAAAAAAA@Uimage_tls_directory32@23@Uimage_load_config_directory32@23@@pe_bliss@@@pe_bliss@@UAEXG@Z 004180a6 f i pe_properties_generic.obj
 0001:000170b2       ?set_machine@?$pe_properties_generic@V?$pe_types@Uimage_nt_headers64@pe_win@pe_bliss@@Uimage_optional_header64@23@$0CAL@_K$0?IAAAAAAAAAAAAAAA@Uimage_tls_directory64@23@Uimage_load_config_directory64@23@@pe_bliss@@@pe_bliss@@UAEXG@Z 004180b2 f i pe_properties_generic.obj
 0001:000170be       ?set_number_of_rvas_and_sizes@?$pe_properties_generic@V?$pe_types@Uimage_nt_headers32@pe_win@pe_bliss@@Uimage_optional_header32@23@$0BAL@I$0IAAAAAAA@Uimage_tls_directory32@23@Uimage_load_config_directory32@23@@pe_bliss@@@pe_bliss@@UAEXI@Z 004180be f i pe_properties_generic.obj
 0001:000170c8       ?set_number_of_rvas_and_sizes@?$pe_properties_generic@V?$pe_types@Uimage_nt_headers64@pe_win@pe_bliss@@Uimage_optional_header64@23@$0CAL@_K$0?IAAAAAAAAAAAAAAA@Uimage_tls_directory64@23@Uimage_load_config_directory64@23@@pe_bliss@@@pe_bliss@@UAEXI@Z 004180c8 f i pe_properties_generic.obj
 0001:000170d5       ?set_number_of_sections@?$pe_properties_generic@V?$pe_types@Uimage_nt_headers32@pe_win@pe_bliss@@Uimage_optional_header32@23@$0BAL@I$0IAAAAAAA@Uimage_tls_directory32@23@Uimage_load_config_directory32@23@@pe_bliss@@@pe_bliss@@UAEXG@Z 004180d5 f i pe_properties_generic.obj
 0001:000170e1       ?set_number_of_sections@?$pe_properties_generic@V?$pe_types@Uimage_nt_headers64@pe_win@pe_bliss@@Uimage_optional_header64@23@$0CAL@_K$0?IAAAAAAAAAAAAAAA@Uimage_tls_directory64@23@Uimage_load_config_directory64@23@@pe_bliss@@@pe_bliss@@UAEXG@Z 004180e1 f i pe_properties_generic.obj
 0001:000170ed       ?set_os_version@?$pe_properties_generic@V?$pe_types@Uimage_nt_headers32@pe_win@pe_bliss@@Uimage_optional_header32@23@$0BAL@I$0IAAAAAAA@Uimage_tls_directory32@23@Uimage_load_config_directory32@23@@pe_bliss@@@pe_bliss@@UAEXGG@Z 004180ed f i pe_properties_generic.obj
 0001:00017102       ?set_os_version@?$pe_properties_generic@V?$pe_types@Uimage_nt_headers64@pe_win@pe_bliss@@Uimage_optional_header64@23@$0CAL@_K$0?IAAAAAAAAAAAAAAA@Uimage_tls_directory64@23@Uimage_load_config_directory64@23@@pe_bliss@@@pe_bliss@@UAEXGG@Z 00418102 f i pe_properties_generic.obj
 0001:00017117       ?set_size_of_headers@?$pe_properties_generic@V?$pe_types@Uimage_nt_headers32@pe_win@pe_bliss@@Uimage_optional_header32@23@$0BAL@I$0IAAAAAAA@Uimage_tls_directory32@23@Uimage_load_config_directory32@23@@pe_bliss@@@pe_bliss@@UAEXI@Z 00418117 f i pe_properties_generic.obj
 0001:00017121       ?set_size_of_headers@?$pe_properties_generic@V?$pe_types@Uimage_nt_headers64@pe_win@pe_bliss@@Uimage_optional_header64@23@$0CAL@_K$0?IAAAAAAAAAAAAAAA@Uimage_tls_directory64@23@Uimage_load_config_directory64@23@@pe_bliss@@@pe_bliss@@UAEXI@Z 00418121 f i pe_properties_generic.obj
 0001:0001712b       ?set_size_of_image@?$pe_properties_generic@V?$pe_types@Uimage_nt_headers32@pe_win@pe_bliss@@Uimage_optional_header32@23@$0BAL@I$0IAAAAAAA@Uimage_tls_directory32@23@Uimage_load_config_directory32@23@@pe_bliss@@@pe_bliss@@UAEXI@Z 0041812b f i pe_properties_generic.obj
 0001:00017135       ?set_size_of_image@?$pe_properties_generic@V?$pe_types@Uimage_nt_headers64@pe_win@pe_bliss@@Uimage_optional_header64@23@$0CAL@_K$0?IAAAAAAAAAAAAAAA@Uimage_tls_directory64@23@Uimage_load_config_directory64@23@@pe_bliss@@@pe_bliss@@UAEXI@Z 00418135 f i pe_properties_generic.obj
 0001:0001713f       ?set_size_of_optional_header@?$pe_properties_generic@V?$pe_types@Uimage_nt_headers32@pe_win@pe_bliss@@Uimage_optional_header32@23@$0BAL@I$0IAAAAAAA@Uimage_tls_directory32@23@Uimage_load_config_directory32@23@@pe_bliss@@@pe_bliss@@UAEXG@Z 0041813f f i pe_properties_generic.obj
 0001:0001714b       ?set_size_of_optional_header@?$pe_properties_generic@V?$pe_types@Uimage_nt_headers64@pe_win@pe_bliss@@Uimage_optional_header64@23@$0CAL@_K$0?IAAAAAAAAAAAAAAA@Uimage_tls_directory64@23@Uimage_load_config_directory64@23@@pe_bliss@@@pe_bliss@@UAEXG@Z 0041814b f i pe_properties_generic.obj
 0001:00017157       ?set_stack_size_commit@?$pe_properties_generic@V?$pe_types@Uimage_nt_headers32@pe_win@pe_bliss@@Uimage_optional_header32@23@$0BAL@I$0IAAAAAAA@Uimage_tls_directory32@23@Uimage_load_config_directory32@23@@pe_bliss@@@pe_bliss@@UAEXI@Z 00418157 f i pe_properties_generic.obj
 0001:00017161       ?set_stack_size_commit@?$pe_properties_generic@V?$pe_types@Uimage_nt_headers32@pe_win@pe_bliss@@Uimage_optional_header32@23@$0BAL@I$0IAAAAAAA@Uimage_tls_directory32@23@Uimage_load_config_directory32@23@@pe_bliss@@@pe_bliss@@UAEX_K@Z 00418161 f i pe_properties_generic.obj
 0001:0001716b       ?set_stack_size_commit@?$pe_properties_generic@V?$pe_types@Uimage_nt_headers64@pe_win@pe_bliss@@Uimage_optional_header64@23@$0CAL@_K$0?IAAAAAAAAAAAAAAA@Uimage_tls_directory64@23@Uimage_load_config_directory64@23@@pe_bliss@@@pe_bliss@@UAEXI@Z 0041816b f i pe_properties_generic.obj
 0001:00017179       ?set_stack_size_commit@?$pe_properties_generic@V?$pe_types@Uimage_nt_headers64@pe_win@pe_bliss@@Uimage_optional_header64@23@$0CAL@_K$0?IAAAAAAAAAAAAAAA@Uimage_tls_directory64@23@Uimage_load_config_directory64@23@@pe_bliss@@@pe_bliss@@UAEX_K@Z 00418179 f i pe_properties_generic.obj
 0001:0001718a       ?set_stack_size_reserve@?$pe_properties_generic@V?$pe_types@Uimage_nt_headers32@pe_win@pe_bliss@@Uimage_optional_header32@23@$0BAL@I$0IAAAAAAA@Uimage_tls_directory32@23@Uimage_load_config_directory32@23@@pe_bliss@@@pe_bliss@@UAEXI@Z 0041818a f i pe_properties_generic.obj
 0001:00017194       ?set_stack_size_reserve@?$pe_properties_generic@V?$pe_types@Uimage_nt_headers32@pe_win@pe_bliss@@Uimage_optional_header32@23@$0BAL@I$0IAAAAAAA@Uimage_tls_directory32@23@Uimage_load_config_directory32@23@@pe_bliss@@@pe_bliss@@UAEX_K@Z 00418194 f i pe_properties_generic.obj
 0001:0001719e       ?set_stack_size_reserve@?$pe_properties_generic@V?$pe_types@Uimage_nt_headers64@pe_win@pe_bliss@@Uimage_optional_header64@23@$0CAL@_K$0?IAAAAAAAAAAAAAAA@Uimage_tls_directory64@23@Uimage_load_config_directory64@23@@pe_bliss@@@pe_bliss@@UAEXI@Z 0041819e f i pe_properties_generic.obj
 0001:000171ac       ?set_stack_size_reserve@?$pe_properties_generic@V?$pe_types@Uimage_nt_headers64@pe_win@pe_bliss@@Uimage_optional_header64@23@$0CAL@_K$0?IAAAAAAAAAAAAAAA@Uimage_tls_directory64@23@Uimage_load_config_directory64@23@@pe_bliss@@@pe_bliss@@UAEX_K@Z 004181ac f i pe_properties_generic.obj
 0001:000171bd       ?set_subsystem@?$pe_properties_generic@V?$pe_types@Uimage_nt_headers32@pe_win@pe_bliss@@Uimage_optional_header32@23@$0BAL@I$0IAAAAAAA@Uimage_tls_directory32@23@Uimage_load_config_directory32@23@@pe_bliss@@@pe_bliss@@UAEXG@Z 004181bd f i pe_properties_generic.obj
 0001:000171c9       ?set_subsystem@?$pe_properties_generic@V?$pe_types@Uimage_nt_headers64@pe_win@pe_bliss@@Uimage_optional_header64@23@$0CAL@_K$0?IAAAAAAAAAAAAAAA@Uimage_tls_directory64@23@Uimage_load_config_directory64@23@@pe_bliss@@@pe_bliss@@UAEXG@Z 004181c9 f i pe_properties_generic.obj
 0001:000171d5       ?set_subsystem_version@?$pe_properties_generic@V?$pe_types@Uimage_nt_headers32@pe_win@pe_bliss@@Uimage_optional_header32@23@$0BAL@I$0IAAAAAAA@Uimage_tls_directory32@23@Uimage_load_config_directory32@23@@pe_bliss@@@pe_bliss@@UAEXGG@Z 004181d5 f i pe_properties_generic.obj
 0001:000171ea       ?set_subsystem_version@?$pe_properties_generic@V?$pe_types@Uimage_nt_headers64@pe_win@pe_bliss@@Uimage_optional_header64@23@$0CAL@_K$0?IAAAAAAAAAAAAAAA@Uimage_tls_directory64@23@Uimage_load_config_directory64@23@@pe_bliss@@@pe_bliss@@UAEXGG@Z 004181ea f i pe_properties_generic.obj
 0001:000171ff       ?set_time_date_stamp@?$pe_properties_generic@V?$pe_types@Uimage_nt_headers32@pe_win@pe_bliss@@Uimage_optional_header32@23@$0BAL@I$0IAAAAAAA@Uimage_tls_directory32@23@Uimage_load_config_directory32@23@@pe_bliss@@@pe_bliss@@UAEXI@Z 004181ff f i pe_properties_generic.obj
 0001:00017209       ?set_time_date_stamp@?$pe_properties_generic@V?$pe_types@Uimage_nt_headers64@pe_win@pe_bliss@@Uimage_optional_header64@23@$0CAL@_K$0?IAAAAAAAAAAAAAAA@Uimage_tls_directory64@23@Uimage_load_config_directory64@23@@pe_bliss@@@pe_bliss@@UAEXI@Z 00418209 f i pe_properties_generic.obj
 0001:00017213       ?strip_data_directories@?$pe_properties_generic@V?$pe_types@Uimage_nt_headers32@pe_win@pe_bliss@@Uimage_optional_header32@23@$0BAL@I$0IAAAAAAA@Uimage_tls_directory32@23@Uimage_load_config_directory32@23@@pe_bliss@@@pe_bliss@@UAEII_N@Z 00418213 f i pe_properties_generic.obj
 0001:00017256       ?strip_data_directories@?$pe_properties_generic@V?$pe_types@Uimage_nt_headers64@pe_win@pe_bliss@@Uimage_optional_header64@23@$0CAL@_K$0?IAAAAAAAAAAAAAAA@Uimage_tls_directory64@23@Uimage_load_config_directory64@23@@pe_bliss@@@pe_bliss@@UAEII_N@Z 00418256 f i pe_properties_generic.obj
 0001:000172a2       ?va_to_rva@?$pe_properties_generic@V?$pe_types@Uimage_nt_headers32@pe_win@pe_bliss@@Uimage_optional_header32@23@$0BAL@I$0IAAAAAAA@Uimage_tls_directory32@23@Uimage_load_config_directory32@23@@pe_bliss@@@pe_bliss@@UBEII_N@Z 004182a2 f i pe_properties_generic.obj
 0001:000172ed       ?va_to_rva@?$pe_properties_generic@V?$pe_types@Uimage_nt_headers32@pe_win@pe_bliss@@Uimage_optional_header32@23@$0BAL@I$0IAAAAAAA@Uimage_tls_directory32@23@Uimage_load_config_directory32@23@@pe_bliss@@@pe_bliss@@UBEI_K_N@Z 004182ed f i pe_properties_generic.obj
 0001:0001733a       ?va_to_rva@?$pe_properties_generic@V?$pe_types@Uimage_nt_headers64@pe_win@pe_bliss@@Uimage_optional_header64@23@$0CAL@_K$0?IAAAAAAAAAAAAAAA@Uimage_tls_directory64@23@Uimage_load_config_directory64@23@@pe_bliss@@@pe_bliss@@UBEII_N@Z 0041833a f i pe_properties_generic.obj
 0001:00017386       ?va_to_rva@?$pe_properties_generic@V?$pe_types@Uimage_nt_headers64@pe_win@pe_bliss@@Uimage_optional_header64@23@$0CAL@_K$0?IAAAAAAAAAAAAAAA@Uimage_tls_directory64@23@Uimage_load_config_directory64@23@@pe_bliss@@@pe_bliss@@UBEI_K_N@Z 00418386 f i pe_properties_generic.obj
 0001:000173d3       ?put@?$basic_ostream@DU?$char_traits@D@std@@@std@@QAEAAV12@D@Z 004183d3 f i pe_rebuilder.obj
 0001:0001749e       ?rebuild_pe@pe_bliss@@YGXAAVpe_base@1@AAUimage_dos_header@pe_win@1@_N22@Z 0041849e f   pe_rebuilder.obj
 0001:00017620       ?rebuild_pe@pe_bliss@@YGXAAVpe_base@1@AAV?$basic_ostream@DU?$char_traits@D@std@@@std@@_N22@Z 00418620 f   pe_rebuilder.obj
 0001:0001793c       ?sputc@?$basic_streambuf@DU?$char_traits@D@std@@@std@@QAEHD@Z 0041893c f i pe_rebuilder.obj
 0001:00017979       ?tellp@?$basic_ostream@DU?$char_traits@D@std@@@std@@QAE?AV?$fpos@U_Mbstatet@@@2@XZ 00418979 f i pe_rebuilder.obj
 0001:000179dc       ?write@?$basic_ostream@DU?$char_traits@D@std@@@std@@QAEAAV12@PBD_J@Z 004189dc f i pe_rebuilder.obj
 0001:00017ac2       ??$_Destroy_range@V?$allocator@Vrelocation_entry@pe_bliss@@@std@@@std@@YGXPAVrelocation_entry@pe_bliss@@QAV12@AAV?$allocator@Vrelocation_entry@pe_bliss@@@0@@Z 00418ac2 f i pe_relocations.obj
 0001:00017ac5       ??$_Destroy_range@V?$allocator@Vrelocation_table@pe_bliss@@@std@@@std@@YGXPAVrelocation_table@pe_bliss@@QAV12@AAV?$allocator@Vrelocation_table@pe_bliss@@@0@@Z 00418ac5 f i pe_relocations.obj
 0001:00017ae1       ??$_Emplace_reallocate@ABVrelocation_entry@pe_bliss@@@?$vector@Vrelocation_entry@pe_bliss@@V?$allocator@Vrelocation_entry@pe_bliss@@@std@@@std@@QAEPAVrelocation_entry@pe_bliss@@QAV23@ABV23@@Z 00418ae1 f i pe_relocations.obj
 0001:00017bad       ??$_Emplace_reallocate@ABVrelocation_table@pe_bliss@@@?$vector@Vrelocation_table@pe_bliss@@V?$allocator@Vrelocation_table@pe_bliss@@@std@@@std@@QAEPAVrelocation_table@pe_bliss@@QAV23@ABV23@@Z 00418bad f i pe_relocations.obj
 0001:00017c98       ??$_Get_size_of_n@$0BA@@std@@YGII@Z 00418c98 f i pe_relocations.obj
 0001:00017caf       ??$_Uninitialized_copy@PAVrelocation_entry@pe_bliss@@V?$allocator@Vrelocation_entry@pe_bliss@@@std@@@std@@YGPAVrelocation_entry@pe_bliss@@QAV12@0PAV12@AAV?$allocator@Vrelocation_entry@pe_bliss@@@0@@Z 00418caf f i pe_relocations.obj
 0001:00017ccc       ??$_Uninitialized_move@PAVrelocation_entry@pe_bliss@@V?$allocator@Vrelocation_entry@pe_bliss@@@std@@@std@@YGPAVrelocation_entry@pe_bliss@@QAV12@0PAV12@AAV?$allocator@Vrelocation_entry@pe_bliss@@@0@@Z 00418ccc f i pe_relocations.obj
 0001:00017ce9       ??$_Uninitialized_move@PAVrelocation_table@pe_bliss@@V?$allocator@Vrelocation_table@pe_bliss@@@std@@@std@@YGPAVrelocation_table@pe_bliss@@QAV12@0PAV12@AAV?$allocator@Vrelocation_table@pe_bliss@@@0@@Z 00418ce9 f i pe_relocations.obj
 0001:00017d1d       ??$construct@Vrelocation_table@pe_bliss@@ABV12@@?$_Default_allocator_traits@V?$allocator@Vrelocation_table@pe_bliss@@@std@@@std@@SGXAAV?$allocator@Vrelocation_table@pe_bliss@@@1@QAVrelocation_table@pe_bliss@@ABV34@@Z 00418d1d f i pe_relocations.obj
 0001:00017d38       ??$construct@Vrelocation_table@pe_bliss@@V12@@?$_Default_allocator_traits@V?$allocator@Vrelocation_table@pe_bliss@@@std@@@std@@SGXAAV?$allocator@Vrelocation_table@pe_bliss@@@1@QAVrelocation_table@pe_bliss@@$$QAV34@@Z 00418d38 f i pe_relocations.obj
 0001:00017d53       ??$emplace_back@ABVrelocation_entry@pe_bliss@@@?$vector@Vrelocation_entry@pe_bliss@@V?$allocator@Vrelocation_entry@pe_bliss@@@std@@@std@@QAEXABVrelocation_entry@pe_bliss@@@Z 00418d53 f i pe_relocations.obj
 0001:00017d76       ??$rebase_image_base@V?$pe_types@Uimage_nt_headers32@pe_win@pe_bliss@@Uimage_optional_header32@23@$0BAL@I$0IAAAAAAA@Uimage_tls_directory32@23@Uimage_load_config_directory32@23@@pe_bliss@@@pe_bliss@@YGXAAVpe_base@0@ABV?$vector@Vrelocation_table@pe_bliss@@V?$allocator@Vrelocation_table@pe_bliss@@@std@@@std@@_K@Z 00418d76 f i pe_relocations.obj
 0001:00017e34       ??$rebase_image_base@V?$pe_types@Uimage_nt_headers64@pe_win@pe_bliss@@Uimage_optional_header64@23@$0CAL@_K$0?IAAAAAAAAAAAAAAA@Uimage_tls_directory64@23@Uimage_load_config_directory64@23@@pe_bliss@@@pe_bliss@@YGXAAVpe_base@0@ABV?$vector@Vrelocation_table@pe_bliss@@V?$allocator@Vrelocation_table@pe_bliss@@@std@@@std@@_K@Z 00418e34 f i pe_relocations.obj
 0001:00017f13       ??$section_data_from_rva@Uimage_base_relocation@pe_win@pe_bliss@@@pe_base@pe_bliss@@QBE?AUimage_base_relocation@pe_win@1@IW4section_data_type@1@_N@Z 00418f13 f i pe_relocations.obj
 0001:00017fce       ??0?$vector@Vrelocation_entry@pe_bliss@@V?$allocator@Vrelocation_entry@pe_bliss@@@std@@@std@@QAE@$$QAV01@@Z 00418fce f i pe_relocations.obj
 0001:00017ffb       ??0?$vector@Vrelocation_entry@pe_bliss@@V?$allocator@Vrelocation_entry@pe_bliss@@@std@@@std@@QAE@ABV01@@Z 00418ffb f i pe_relocations.obj
 0001:00018039       ??0?$vector@Vrelocation_table@pe_bliss@@V?$allocator@Vrelocation_table@pe_bliss@@@std@@@std@@QAE@$$QAV01@@Z 00419039 f i pe_relocations.obj
 0001:00018066       ??0relocation_entry@pe_bliss@@QAE@G@Z 00419066 f   pe_relocations.obj
 0001:00018081       ??0relocation_entry@pe_bliss@@QAE@GG@Z 00419081 f   pe_relocations.obj
 0001:00018097       ??0relocation_entry@pe_bliss@@QAE@XZ 00419097 f   pe_relocations.obj
 0001:0001809e       ??0relocation_table@pe_bliss@@QAE@I@Z 0041909e f   pe_relocations.obj
 0001:000180b4       ??0relocation_table@pe_bliss@@QAE@XZ 004190b4 f   pe_relocations.obj
 0001:000180c4       ?_Buy_raw@?$vector@Vrelocation_entry@pe_bliss@@V?$allocator@Vrelocation_entry@pe_bliss@@@std@@@std@@AAEXI@Z 004190c4 f i pe_relocations.obj
 0001:000180e8       ?_Calculate_growth@?$vector@Vrelocation_entry@pe_bliss@@V?$allocator@Vrelocation_entry@pe_bliss@@@std@@@std@@ABEII@Z 004190e8 f i pe_relocations.obj
 0001:0001810f       ?_Calculate_growth@?$vector@Vrelocation_table@pe_bliss@@V?$allocator@Vrelocation_table@pe_bliss@@@std@@@std@@ABEII@Z 0041910f f i pe_relocations.obj
 0001:00018136       ?_Change_array@?$vector@Vrelocation_entry@pe_bliss@@V?$allocator@Vrelocation_entry@pe_bliss@@@std@@@std@@AAEXQAVrelocation_entry@pe_bliss@@II@Z 00419136 f i pe_relocations.obj
 0001:0001816c       ?_Change_array@?$vector@Vrelocation_table@pe_bliss@@V?$allocator@Vrelocation_table@pe_bliss@@@std@@@std@@AAEXQAVrelocation_table@pe_bliss@@II@Z 0041916c f i pe_relocations.obj
 0001:000181b1       ?_Destroy@?$vector@Vrelocation_table@pe_bliss@@V?$allocator@Vrelocation_table@pe_bliss@@@std@@@std@@AAEXPAVrelocation_table@pe_bliss@@0@Z 004191b1 f i pe_relocations.obj
 0001:000181c2       ?_Tidy@?$vector@Vrelocation_entry@pe_bliss@@V?$allocator@Vrelocation_entry@pe_bliss@@@std@@@std@@AAEXXZ 004191c2 f i pe_relocations.obj
 0001:000181e6       ?_Xlength@?$vector@Vrelocation_entry@pe_bliss@@V?$allocator@Vrelocation_entry@pe_bliss@@@std@@@std@@CGXXZ 004191e6 f i pe_relocations.obj
 0001:000181f1       ?_Xlength@?$vector@Vrelocation_table@pe_bliss@@V?$allocator@Vrelocation_table@pe_bliss@@@std@@@std@@CGXXZ 004191f1 f i pe_relocations.obj
 0001:000181fc       ?add_relocation@relocation_table@pe_bliss@@QAEXABVrelocation_entry@2@@Z 004191fc f   pe_relocations.obj
 0001:00018204       ?deallocate@?$allocator@Vrelocation_entry@pe_bliss@@@std@@QAEXQAVrelocation_entry@pe_bliss@@I@Z 00419204 f i pe_relocations.obj
 0001:00018218       ?deallocate@?$allocator@Vrelocation_table@pe_bliss@@@std@@QAEXQAVrelocation_table@pe_bliss@@I@Z 00419218 f i pe_relocations.obj
 0001:0001822c       ?get_item@relocation_entry@pe_bliss@@QBEGXZ 0041922c f   pe_relocations.obj
 0001:00018238       ?get_relocations@pe_bliss@@YG?BV?$vector@Vrelocation_table@pe_bliss@@V?$allocator@Vrelocation_table@pe_bliss@@@std@@@std@@ABVpe_base@1@_N@Z 00419238 f   pe_relocations.obj
 0001:000184f8       ?get_relocations@relocation_table@pe_bliss@@QAEAAV?$vector@Vrelocation_entry@pe_bliss@@V?$allocator@Vrelocation_entry@pe_bliss@@@std@@@std@@XZ 004194f8 f   pe_relocations.obj
 0001:000184fc       ?get_relocations@relocation_table@pe_bliss@@QBEABV?$vector@Vrelocation_entry@pe_bliss@@V?$allocator@Vrelocation_entry@pe_bliss@@@std@@@std@@XZ 004194fc f   pe_relocations.obj
 0001:00018500       ?get_rva@relocation_entry@pe_bliss@@QBEGXZ 00419500 f   pe_relocations.obj
 0001:00018504       ?get_rva@relocation_table@pe_bliss@@QBEIXZ 00419504 f   pe_relocations.obj
 0001:00018507       ?get_type@relocation_entry@pe_bliss@@QBEGXZ 00419507 f   pe_relocations.obj
 0001:0001850c       ?rebase_image@pe_bliss@@YGXAAVpe_base@1@ABV?$vector@Vrelocation_table@pe_bliss@@V?$allocator@Vrelocation_table@pe_bliss@@@std@@@std@@_K@Z 0041950c f   pe_relocations.obj
 0001:00018537       ?rebuild_relocations@pe_bliss@@YG?BVimage_directory@1@AAVpe_base@1@ABV?$vector@Vrelocation_table@pe_bliss@@V?$allocator@Vrelocation_table@pe_bliss@@@std@@@std@@AAVsection@1@I_N3@Z 00419537 f   pe_relocations.obj
 0001:0001878f       ?set_item@relocation_entry@pe_bliss@@QAEXG@Z 0041978f f   pe_relocations.obj
 0001:000187a8       ?set_rva@relocation_entry@pe_bliss@@QAEXG@Z 004197a8 f   pe_relocations.obj
 0001:000187b3       ?set_rva@relocation_table@pe_bliss@@QAEXI@Z 004197b3 f   pe_relocations.obj
 0001:000187bc       ?set_type@relocation_entry@pe_bliss@@QAEXG@Z 004197bc f   pe_relocations.obj
 0001:000187c8       ??$?0ABI@?$_Tree_temp_node@V?$allocator@U?$_Tree_node@IPAX@std@@@std@@@std@@QAE@AAV?$allocator@U?$_Tree_node@IPAX@std@@@1@PAU?$_Tree_node@IPAX@1@ABI@Z 004197c8 f i pe_resources.obj
 0001:00018811       ??$?8_WU?$char_traits@_W@std@@V?$allocator@_W@1@@std@@YG_NABV?$basic_string@_WU?$char_traits@_W@std@@V?$allocator@_W@2@@0@0@Z 00419811 f i pe_resources.obj
 0001:00018821       ??$?M_WU?$char_traits@_W@std@@V?$allocator@_W@1@@std@@YG_NABV?$basic_string@_WU?$char_traits@_W@std@@V?$allocator@_W@2@@0@0@Z 00419821 f i pe_resources.obj
 0001:00018834       ??$_Assign_range@PAVresource_directory_entry@pe_bliss@@@?$vector@Vresource_directory_entry@pe_bliss@@V?$allocator@Vresource_directory_entry@pe_bliss@@@std@@@std@@AAEXPAVresource_directory_entry@pe_bliss@@0Uforward_iterator_tag@1@@Z 00419834 f i pe_resources.obj
 0001:000188c3       ??$_Construct_in_place@PAU?$_Tree_node@IPAX@std@@AAPAU12@@std@@YGXAAPAU?$_Tree_node@IPAX@0@0@Z 004198c3 f i pe_resources.obj
 0001:000188d2       ??$_Construct_in_place@PAU?$_Tree_node@IPAX@std@@ABQAU12@@std@@YGXAAPAU?$_Tree_node@IPAX@0@ABQAU10@@Z 004198d2 f i pe_resources.obj
 0001:000188e1       ??$_Copy_unchecked@PAVresource_directory_entry@pe_bliss@@PAV12@@std@@YGPAVresource_directory_entry@pe_bliss@@PAV12@00@Z 004198e1 f i pe_resources.obj
 0001:00018909       ??$_Destroy_in_place@PAU?$_Tree_node@IPAX@std@@@std@@YGXAAPAU?$_Tree_node@IPAX@0@@Z 00419909 f i pe_resources.obj
 0001:0001890c       ??$_Destroy_range@V?$allocator@Vresource_directory_entry@pe_bliss@@@std@@@std@@YGXPAVresource_directory_entry@pe_bliss@@QAV12@AAV?$allocator@Vresource_directory_entry@pe_bliss@@@0@@Z 0041990c f i pe_resources.obj
 0001:00018929       ??$_Emplace@ABI@?$_Tree@V?$_Tset_traits@IU?$less@I@std@@V?$allocator@I@2@$0A@@std@@@std@@IAE?AU?$pair@PAU?$_Tree_node@IPAX@std@@_N@1@ABI@Z 00419929 f i pe_resources.obj
 0001:000189bb       ??$_Emplace_reallocate@ABVresource_directory_entry@pe_bliss@@@?$vector@Vresource_directory_entry@pe_bliss@@V?$allocator@Vresource_directory_entry@pe_bliss@@@std@@@std@@QAEPAVresource_directory_entry@pe_bliss@@QAV23@ABV23@@Z 004199bb f i pe_resources.obj
 0001:00018ab5       ??$_Erase_head@V?$allocator@U?$_Tree_node@IPAX@std@@@std@@@?$_Tree_val@U?$_Tree_simple_types@I@std@@@std@@QAEXAAV?$allocator@U?$_Tree_node@IPAX@std@@@1@@Z 00419ab5 f i pe_resources.obj
 0001:00018ad5       ??$_Erase_tree@V?$allocator@U?$_Tree_node@IPAX@std@@@std@@@?$_Tree_val@U?$_Tree_simple_types@I@std@@@std@@QAEXAAV?$allocator@U?$_Tree_node@IPAX@std@@@1@PAU?$_Tree_node@IPAX@1@@Z 00419ad5 f i pe_resources.obj
 0001:00018b06       ??$_Find_lower_bound@I@?$_Tree@V?$_Tset_traits@IU?$less@I@std@@V?$allocator@I@2@$0A@@std@@@std@@IBE?AU?$_Tree_find_result@PAU?$_Tree_node@IPAX@std@@@1@ABI@Z 00419b06 f i pe_resources.obj
 0001:00018b48       ??$_Get_size_of_n@$0CE@@std@@YGII@Z 00419b48 f i pe_resources.obj
 0001:00018b5f       ??$_Guess_median_unchecked@PAVresource_directory_entry@pe_bliss@@Uentry_sorter@2@@std@@YGXPAVresource_directory_entry@pe_bliss@@00Uentry_sorter@2@@Z 00419b5f f i pe_resources.obj
 0001:00018bed       ??$_Insertion_sort_unchecked@PAVresource_directory_entry@pe_bliss@@Uentry_sorter@2@@std@@YGPAVresource_directory_entry@pe_bliss@@PAV12@QAV12@Uentry_sorter@2@@Z 00419bed f i pe_resources.obj
 0001:00018cc6       ??$_Lower_bound_duplicate@I@?$_Tree@V?$_Tset_traits@IU?$less@I@std@@V?$allocator@I@2@$0A@@std@@@std@@IBE_NQAU?$_Tree_node@IPAX@1@ABI@Z 00419cc6 f i pe_resources.obj
 0001:00018ce4       ??$_Make_heap_unchecked@PAVresource_directory_entry@pe_bliss@@Uentry_sorter@2@@std@@YGXPAVresource_directory_entry@pe_bliss@@0Uentry_sorter@2@@Z 00419ce4 f i pe_resources.obj
 0001:00018d4b       ??$_Med3_unchecked@PAVresource_directory_entry@pe_bliss@@Uentry_sorter@2@@std@@YGXPAVresource_directory_entry@pe_bliss@@00Uentry_sorter@2@@Z 00419d4b f i pe_resources.obj
 0001:00018da2       ??$_Move_backward_unchecked@PAVresource_directory_entry@pe_bliss@@PAV12@@std@@YGPAVresource_directory_entry@pe_bliss@@PAV12@00@Z 00419da2 f i pe_resources.obj
 0001:00018dca       ??$_Partition_by_median_guess_unchecked@PAVresource_directory_entry@pe_bliss@@Uentry_sorter@2@@std@@YG?AU?$pair@PAVresource_directory_entry@pe_bliss@@PAV12@@0@PAVresource_directory_entry@pe_bliss@@0Uentry_sorter@3@@Z 00419dca f i pe_resources.obj
 0001:00018f80       ??$_Pocca@V?$allocator@Vresource_directory_entry@pe_bliss@@@std@@@std@@YGXAAV?$allocator@Vresource_directory_entry@pe_bliss@@@0@ABV10@@Z 00419f80 f i pe_resources.obj
 0001:00018f83       ??$_Pocma@V?$allocator@Vresource_directory_entry@pe_bliss@@@std@@@std@@YGXAAV?$allocator@Vresource_directory_entry@pe_bliss@@@0@0@Z 00419f83 f i pe_resources.obj
 0001:00018f86       ??$_Pop_heap_hole_by_index@PAVresource_directory_entry@pe_bliss@@V12@Uentry_sorter@2@@std@@YGXPAVresource_directory_entry@pe_bliss@@HH$$QAV12@Uentry_sorter@2@@Z 00419f86 f i pe_resources.obj
 0001:00019021       ??$_Pop_heap_hole_unchecked@PAVresource_directory_entry@pe_bliss@@V12@Uentry_sorter@2@@std@@YGXPAVresource_directory_entry@pe_bliss@@00$$QAV12@Uentry_sorter@2@@Z 0041a021 f i pe_resources.obj
 0001:00019050       ??$_Pop_heap_unchecked@PAVresource_directory_entry@pe_bliss@@Uentry_sorter@2@@std@@YGXPAVresource_directory_entry@pe_bliss@@0Uentry_sorter@2@@Z 0041a050 f i pe_resources.obj
 0001:0001909b       ??$_Push_heap_by_index@PAVresource_directory_entry@pe_bliss@@V12@Uentry_sorter@2@@std@@YGXPAVresource_directory_entry@pe_bliss@@HH$$QAV12@Uentry_sorter@2@@Z 0041a09b f i pe_resources.obj
 0001:000190f1       ??$_Refancy@PAVresource_directory_entry@pe_bliss@@$0A@@std@@YGPAVresource_directory_entry@pe_bliss@@PAV12@@Z 0041a0f1 f i pe_resources.obj
 0001:000190f8       ??$_Sort_heap_unchecked@PAVresource_directory_entry@pe_bliss@@Uentry_sorter@2@@std@@YGXPAVresource_directory_entry@pe_bliss@@0Uentry_sorter@2@@Z 0041a0f8 f i pe_resources.obj
 0001:0001912c       ??$_Sort_unchecked@PAVresource_directory_entry@pe_bliss@@Uentry_sorter@2@@std@@YGXPAVresource_directory_entry@pe_bliss@@0HUentry_sorter@2@@Z 0041a12c f i pe_resources.obj
 0001:000191ec       ??$_Traits_compare@U?$char_traits@_W@std@@@std@@YGHQB_WI0I@Z 0041a1ec f i pe_resources.obj
 0001:00019221       ??$_Traits_equal@U?$char_traits@_W@std@@@std@@YG_NQB_WI0I@Z 0041a221 f i pe_resources.obj
 0001:00019249       ??$_Uninitialized_copy@PAVresource_directory_entry@pe_bliss@@V?$allocator@Vresource_directory_entry@pe_bliss@@@std@@@std@@YGPAVresource_directory_entry@pe_bliss@@QAV12@0PAV12@AAV?$allocator@Vresource_directory_entry@pe_bliss@@@0@@Z 0041a249 f i pe_resources.obj
 0001:0001927b       ??$_Uninitialized_move@PAVresource_directory_entry@pe_bliss@@V?$allocator@Vresource_directory_entry@pe_bliss@@@std@@@std@@YGPAVresource_directory_entry@pe_bliss@@QAV12@0PAV12@AAV?$allocator@Vresource_directory_entry@pe_bliss@@@0@@Z 0041a27b f i pe_resources.obj
 0001:000192ad       ??$emplace_back@ABVresource_directory_entry@pe_bliss@@@?$vector@Vresource_directory_entry@pe_bliss@@V?$allocator@Vresource_directory_entry@pe_bliss@@@std@@@std@@QAEXABVresource_directory_entry@pe_bliss@@@Z 0041a2ad f i pe_resources.obj
 0001:000192d3       ??$exchange@PAU?$_Tree_node@IPAX@std@@$$T@std@@YGPAU?$_Tree_node@IPAX@0@AAPAU10@$$QA$$T@Z 0041a2d3 f i pe_resources.obj
 0001:000192e4       ??$exchange@PAU?$_Tree_node@IPAX@std@@AAPAU12@@std@@YGPAU?$_Tree_node@IPAX@0@AAPAU10@0@Z 0041a2e4 f i pe_resources.obj
 0001:000192f5       ??$find_if@V?$_Vector_const_iterator@V?$_Vector_val@U?$_Simple_types@Vresource_directory_entry@pe_bliss@@@std@@@std@@@std@@Uid_entry_finder@resource_directory@pe_bliss@@@std@@YG?AV?$_Vector_const_iterator@V?$_Vector_val@U?$_Simple_types@Vresource_directory_entry@pe_bliss@@@std@@@std@@@0@V10@V10@Uid_entry_finder@resource_directory@pe_bliss@@@Z 0041a2f5 f i pe_resources.obj
 0001:0001931d       ??$find_if@V?$_Vector_const_iterator@V?$_Vector_val@U?$_Simple_types@Vresource_directory_entry@pe_bliss@@@std@@@std@@@std@@Uname_entry_finder@resource_directory@pe_bliss@@@std@@YG?AV?$_Vector_const_iterator@V?$_Vector_val@U?$_Simple_types@Vresource_directory_entry@pe_bliss@@@std@@@std@@@0@V10@V10@Uname_entry_finder@resource_directory@pe_bliss@@@Z 0041a31d f i pe_resources.obj
 0001:00019351       ??$iter_swap@PAVresource_directory_entry@pe_bliss@@PAV12@@std@@YGXPAVresource_directory_entry@pe_bliss@@0@Z 0041a351 f i pe_resources.obj
 0001:00019356       ??$section_data_from_rva@Uimage_resource_data_entry@pe_win@pe_bliss@@@pe_base@pe_bliss@@QBE?AUimage_resource_data_entry@pe_win@1@IW4section_data_type@1@_N@Z 0041a356 f i pe_resources.obj
 0001:00019402       ??$section_data_from_rva@Uimage_resource_directory@pe_win@pe_bliss@@@pe_base@pe_bliss@@QBE?AUimage_resource_directory@pe_win@1@IW4section_data_type@1@_N@Z 0041a402 f i pe_resources.obj
 0001:000194ae       ??$section_data_from_rva@Uimage_resource_directory_entry@pe_win@pe_bliss@@@pe_base@pe_bliss@@QBE?AUimage_resource_directory_entry@pe_win@1@IW4section_data_type@1@_N@Z 0041a4ae f i pe_resources.obj
 0001:00019569       ??$sort@V?$_Vector_iterator@V?$_Vector_val@U?$_Simple_types@Vresource_directory_entry@pe_bliss@@@std@@@std@@@std@@Uentry_sorter@pe_bliss@@@std@@YGXV?$_Vector_iterator@V?$_Vector_val@U?$_Simple_types@Vresource_directory_entry@pe_bliss@@@std@@@std@@@0@0Uentry_sorter@pe_bliss@@@Z 0041a569 f i pe_resources.obj
 0001:0001958b       ??$swap@Vresource_directory_entry@pe_bliss@@X@std@@YGXAAVresource_directory_entry@pe_bliss@@0@Z 0041a58b f i pe_resources.obj
 0001:000195c7       ??0?$vector@Vresource_directory_entry@pe_bliss@@V?$allocator@Vresource_directory_entry@pe_bliss@@@std@@@std@@QAE@$$QAV01@@Z 0041a5c7 f i pe_resources.obj
 0001:000195f4       ??0?$vector@Vresource_directory_entry@pe_bliss@@V?$allocator@Vresource_directory_entry@pe_bliss@@@std@@@std@@QAE@ABV01@@Z 0041a5f4 f i pe_resources.obj
 0001:00019637       ??0entry_finder@resource_directory@pe_bliss@@QAE@ABV?$basic_string@_WU?$char_traits@_W@std@@V?$allocator@_W@2@@std@@@Z 0041a637 f   pe_resources.obj
 0001:00019655       ??0entry_finder@resource_directory@pe_bliss@@QAE@I@Z 0041a655 f   pe_resources.obj
 0001:00019675       ??0id_entry_finder@resource_directory@pe_bliss@@QAE@I@Z 0041a675 f   pe_resources.obj
 0001:00019680       ??0includes@resource_directory_entry@pe_bliss@@QAE@XZ 0041a680 f   pe_resources.obj
 0001:00019686       ??0name_entry_finder@resource_directory@pe_bliss@@QAE@ABV?$basic_string@_WU?$char_traits@_W@std@@V?$allocator@_W@2@@std@@@Z 0041a686 f   pe_resources.obj
 0001:000196a0       ??0resource_data_entry@pe_bliss@@QAE@ABV01@@Z 0041a6a0 f i pe_resources.obj
 0001:000196c5       ??0resource_data_entry@pe_bliss@@QAE@ABV?$basic_string@DU?$char_traits@D@std@@V?$allocator@D@2@@std@@I@Z 0041a6c5 f   pe_resources.obj
 0001:000196e8       ??0resource_data_entry@pe_bliss@@QAE@XZ 0041a6e8 f   pe_resources.obj
 0001:000196fc       ??0resource_directory@pe_bliss@@QAE@$$QAV01@@Z 0041a6fc f i pe_resources.obj
 0001:0001973b       ??0resource_directory@pe_bliss@@QAE@ABUimage_resource_directory@pe_win@1@@Z 0041a73b f   pe_resources.obj
 0001:0001976f       ??0resource_directory@pe_bliss@@QAE@ABV01@@Z 0041a76f f i pe_resources.obj
 0001:000197ae       ??0resource_directory@pe_bliss@@QAE@XZ 0041a7ae f   pe_resources.obj
 0001:000197cc       ??0resource_directory_entry@pe_bliss@@QAE@ABV01@@Z 0041a7cc f   pe_resources.obj
 0001:00019842       ??0resource_directory_entry@pe_bliss@@QAE@XZ 0041a842 f   pe_resources.obj
 0001:00019860       ??1resource_directory_entry@pe_bliss@@QAE@XZ 0041a860 f   pe_resources.obj
 0001:00019871       ??4?$vector@Vresource_directory_entry@pe_bliss@@V?$allocator@Vresource_directory_entry@pe_bliss@@@std@@@std@@QAEAAV01@$$QAV01@@Z 0041a871 f i pe_resources.obj
 0001:00019893       ??4resource_directory@pe_bliss@@QAEAAV01@$$QAV01@@Z 0041a893 f i pe_resources.obj
 0001:000198d2       ??4resource_directory@pe_bliss@@QAEAAV01@ABV01@@Z 0041a8d2 f i pe_resources.obj
 0001:0001991f       ??4resource_directory_entry@pe_bliss@@QAEAAV01@ABV01@@Z 0041a91f f   pe_resources.obj
 0001:00019990       ??Rentry_finder@resource_directory@pe_bliss@@QBE_NABVresource_directory_entry@2@@Z 0041a990 f   pe_resources.obj
 0001:000199c2       ??Rentry_sorter@pe_bliss@@QBE_NABVresource_directory_entry@1@0@Z 0041a9c2 f   pe_resources.obj
 0001:000199f8       ??Rid_entry_finder@resource_directory@pe_bliss@@QBE_NABVresource_directory_entry@2@@Z 0041a9f8 f   pe_resources.obj
 0001:00019a11       ??Rname_entry_finder@resource_directory@pe_bliss@@QBE_NABVresource_directory_entry@2@@Z 0041aa11 f   pe_resources.obj
 0001:00019a33       ??_Gresource_directory_entry@pe_bliss@@QAEPAXI@Z 0041aa33 f i pe_resources.obj
 0001:00019a5a       ?_Buy_raw@?$vector@Vresource_directory_entry@pe_bliss@@V?$allocator@Vresource_directory_entry@pe_bliss@@@std@@@std@@AAEXI@Z 0041aa5a f i pe_resources.obj
 0001:00019a80       ?_Calculate_growth@?$vector@Vresource_directory_entry@pe_bliss@@V?$allocator@Vresource_directory_entry@pe_bliss@@@std@@@std@@ABEII@Z 0041aa80 f i pe_resources.obj
 0001:00019aa9       ?_Change_array@?$vector@Vresource_directory_entry@pe_bliss@@V?$allocator@Vresource_directory_entry@pe_bliss@@@std@@@std@@AAEXQAVresource_directory_entry@pe_bliss@@II@Z 0041aaa9 f i pe_resources.obj
 0001:00019af0       ?_Clear_and_reserve_geometric@?$vector@Vresource_directory_entry@pe_bliss@@V?$allocator@Vresource_directory_entry@pe_bliss@@@std@@@std@@AAEXI@Z 0041aaf0 f i pe_resources.obj
 0001:00019b4c       ?_Destroy@?$vector@Vresource_directory_entry@pe_bliss@@V?$allocator@Vresource_directory_entry@pe_bliss@@@std@@@std@@AAEXPAVresource_directory_entry@pe_bliss@@0@Z 0041ab4c f i pe_resources.obj
 0001:00019b5d       ?_Equal@?$basic_string@_WU?$char_traits@_W@std@@V?$allocator@_W@2@@std@@QBE_NABV12@@Z 0041ab5d f i pe_resources.obj
 0001:00019b87       ?_Insert_node@?$_Tree_val@U?$_Tree_simple_types@I@std@@@std@@QAEPAU?$_Tree_node@IPAX@2@U?$_Tree_id@PAU?$_Tree_node@IPAX@std@@@2@QAU32@@Z 0041ab87 f i pe_resources.obj
 0001:00019c86       ?_Lrotate@?$_Tree_val@U?$_Tree_simple_types@I@std@@@std@@QAEXPAU?$_Tree_node@IPAX@2@@Z 0041ac86 f i pe_resources.obj
 0001:00019cc7       ?_Move_assign@?$vector@Vresource_directory_entry@pe_bliss@@V?$allocator@Vresource_directory_entry@pe_bliss@@@std@@@std@@AAEXAAV12@U_Equal_allocators@2@@Z 0041acc7 f i pe_resources.obj
 0001:00019cf1       ?_Rrotate@?$_Tree_val@U?$_Tree_simple_types@I@std@@@std@@QAEXPAU?$_Tree_node@IPAX@2@@Z 0041acf1 f i pe_resources.obj
 0001:00019d34       ?_Tidy@?$vector@Vresource_directory_entry@pe_bliss@@V?$allocator@Vresource_directory_entry@pe_bliss@@@std@@@std@@AAEXXZ 0041ad34 f i pe_resources.obj
 0001:00019d69       ?_Xlength@?$vector@Vresource_directory_entry@pe_bliss@@V?$allocator@Vresource_directory_entry@pe_bliss@@@std@@@std@@CGXXZ 0041ad69 f i pe_resources.obj
 0001:00019d74       ?add_data_entry@resource_directory_entry@pe_bliss@@QAEXABVresource_data_entry@2@@Z 0041ad74 f   pe_resources.obj
 0001:00019da2       ?add_resource_directory@resource_directory_entry@pe_bliss@@QAEXABVresource_directory@2@@Z 0041ada2 f   pe_resources.obj
 0001:00019dd0       ?add_resource_directory_entry@resource_directory@pe_bliss@@QAEXABVresource_directory_entry@2@@Z 0041add0 f   pe_resources.obj
 0001:00019df4       ?calculate_resource_data_space@pe_bliss@@YGXABVresource_directory@1@IAAI1@Z 0041adf4 f   pe_resources.obj
 0001:00019e4d       ?calculate_resource_data_space@pe_bliss@@YGXABVresource_directory@1@IIAAI1@Z 0041ae4d f   pe_resources.obj
 0001:00019eb8       ?clear_resource_directory_entry_list@resource_directory@pe_bliss@@QAEXXZ 0041aeb8 f   pe_resources.obj
 0001:00019eda       ?compare@?$basic_string@_WU?$char_traits@_W@std@@V?$allocator@_W@2@@std@@QBEHABV12@@Z 0041aeda f i pe_resources.obj
 0001:00019f04       ?deallocate@?$allocator@Vresource_directory_entry@pe_bliss@@@std@@QAEXQAVresource_directory_entry@pe_bliss@@I@Z 0041af04 f i pe_resources.obj
 0001:00019f16       ?entry_by_id@resource_directory@pe_bliss@@QBEABVresource_directory_entry@2@I@Z 0041af16 f   pe_resources.obj
 0001:00019f5c       ?entry_by_name@resource_directory@pe_bliss@@QBEABVresource_directory_entry@2@ABV?$basic_string@_WU?$char_traits@_W@std@@V?$allocator@_W@2@@std@@@Z 0041af5c f   pe_resources.obj
 0001:00019fb2       ?get_characteristics@resource_directory@pe_bliss@@QBEIXZ 0041afb2 f   pe_resources.obj
 0001:00019fb5       ?get_codepage@resource_data_entry@pe_bliss@@QBEIXZ 0041afb5 f   pe_resources.obj
 0001:00019fb8       ?get_data@resource_data_entry@pe_bliss@@QBEABV?$basic_string@DU?$char_traits@D@std@@V?$allocator@D@2@@std@@XZ 0041afb8 f   pe_resources.obj
 0001:00019fbc       ?get_data_entry@resource_directory_entry@pe_bliss@@QAEAAVresource_data_entry@2@XZ 0041afbc f   pe_resources.obj
 0001:00019fef       ?get_data_entry@resource_directory_entry@pe_bliss@@QBEABVresource_data_entry@2@XZ 0041afef f   pe_resources.obj
 0001:0001a022       ?get_entry_list@resource_directory@pe_bliss@@QAEAAV?$vector@Vresource_directory_entry@pe_bliss@@V?$allocator@Vresource_directory_entry@pe_bliss@@@std@@@std@@XZ 0041b022 f   pe_resources.obj
 0001:0001a026       ?get_entry_list@resource_directory@pe_bliss@@QBEABV?$vector@Vresource_directory_entry@pe_bliss@@V?$allocator@Vresource_directory_entry@pe_bliss@@@std@@@std@@XZ 0041b026 f   pe_resources.obj
 0001:0001a02a       ?get_id@resource_directory_entry@pe_bliss@@QBEIXZ 0041b02a f   pe_resources.obj
 0001:0001a02d       ?get_major_version@resource_directory@pe_bliss@@QBEGXZ 0041b02d f   pe_resources.obj
 0001:0001a032       ?get_minor_version@resource_directory@pe_bliss@@QAEXG@Z 0041b032 f   pe_resources.obj
 0001:0001a03e       ?get_minor_version@resource_directory@pe_bliss@@QBEGXZ 0041b03e f   pe_resources.obj
 0001:0001a043       ?get_name@resource_directory_entry@pe_bliss@@QBEABV?$basic_string@_WU?$char_traits@_W@std@@V?$allocator@_W@2@@std@@XZ 0041b043 f   pe_resources.obj
 0001:0001a047       ?get_number_of_id_entries@resource_directory@pe_bliss@@QBEIXZ 0041b047 f   pe_resources.obj
 0001:0001a04b       ?get_number_of_named_entries@resource_directory@pe_bliss@@QBEIXZ 0041b04b f   pe_resources.obj
 0001:0001a04f       ?get_resource_directory@resource_directory_entry@pe_bliss@@QAEAAVresource_directory@2@XZ 0041b04f f   pe_resources.obj
 0001:0001a082       ?get_resource_directory@resource_directory_entry@pe_bliss@@QBEABVresource_directory@2@XZ 0041b082 f   pe_resources.obj
 0001:0001a0b5       ?get_resources@pe_bliss@@YG?BVresource_directory@1@ABVpe_base@1@@Z 0041b0b5 f   pe_resources.obj
 0001:0001a159       ?get_timestamp@resource_directory@pe_bliss@@QBEIXZ 0041b159 f   pe_resources.obj
 0001:0001a15d       ?includes_data@resource_directory_entry@pe_bliss@@QBE_NXZ 0041b15d f   pe_resources.obj
 0001:0001a161       ?is_named@resource_directory_entry@pe_bliss@@QBE_NXZ 0041b161 f   pe_resources.obj
 0001:0001a165       ?process_resource_directory@pe_bliss@@YG?BVresource_directory@1@ABVpe_base@1@IIAAV?$set@IU?$less@I@std@@V?$allocator@I@2@@std@@@Z 0041b165 f   pe_resources.obj
 0001:0001a4af       ?rebuild_resource_directory@pe_bliss@@YGXAAVpe_base@1@AAVsection@1@AAVresource_directory@1@AAI33I@Z 0041b4af f   pe_resources.obj
 0001:0001a73d       ?rebuild_resources@pe_bliss@@YG?BVimage_directory@1@AAVpe_base@1@AAVresource_directory@1@AAVsection@1@I_N3@Z 0041b73d f   pe_resources.obj
 0001:0001a913       ?release@resource_directory_entry@pe_bliss@@AAEXXZ 0041b913 f   pe_resources.obj
 0001:0001a94b       ?set_characteristics@resource_directory@pe_bliss@@QAEXI@Z 0041b94b f   pe_resources.obj
 0001:0001a954       ?set_codepage@resource_data_entry@pe_bliss@@QAEXI@Z 0041b954 f   pe_resources.obj
 0001:0001a95d       ?set_data@resource_data_entry@pe_bliss@@QAEXABV?$basic_string@DU?$char_traits@D@std@@V?$allocator@D@2@@std@@@Z 0041b95d f   pe_resources.obj
 0001:0001a965       ?set_id@resource_directory_entry@pe_bliss@@QAEXI@Z 0041b965 f   pe_resources.obj
 0001:0001a986       ?set_major_version@resource_directory@pe_bliss@@QAEXG@Z 0041b986 f   pe_resources.obj
 0001:0001a992       ?set_name@resource_directory_entry@pe_bliss@@QAEXABV?$basic_string@_WU?$char_traits@_W@std@@V?$allocator@_W@2@@std@@@Z 0041b992 f   pe_resources.obj
 0001:0001a9ac       ?set_number_of_id_entries@resource_directory@pe_bliss@@QAEXI@Z 0041b9ac f   pe_resources.obj
 0001:0001a9b6       ?set_number_of_named_entries@resource_directory@pe_bliss@@QAEXI@Z 0041b9b6 f   pe_resources.obj
 0001:0001a9c0       ?set_timestamp@resource_directory@pe_bliss@@QAEXI@Z 0041b9c0 f   pe_resources.obj
 0001:0001a9ca       _wmemcmp                   0041b9ca f i pe_resources.obj
 0001:0001a9ff       ??$_Move_unchecked@PAVresource_directory_entry@pe_bliss@@PAV12@@std@@YGPAVresource_directory_entry@pe_bliss@@PAV12@00@Z 0041b9ff f i pe_resource_manager.obj
 0001:0001aa27       ??$find_if@V?$_Vector_iterator@V?$_Vector_val@U?$_Simple_types@Vresource_directory_entry@pe_bliss@@@std@@@std@@@std@@Uentry_finder@resource_directory@pe_bliss@@@std@@YG?AV?$_Vector_iterator@V?$_Vector_val@U?$_Simple_types@Vresource_directory_entry@pe_bliss@@@std@@@std@@@0@V10@V10@Uentry_finder@resource_directory@pe_bliss@@@Z 0041ba27 f i pe_resource_manager.obj
 0001:0001aa5d       ??$find_if@V?$_Vector_iterator@V?$_Vector_val@U?$_Simple_types@Vresource_directory_entry@pe_bliss@@@std@@@std@@@std@@Uid_entry_finder@resource_directory@pe_bliss@@@std@@YG?AV?$_Vector_iterator@V?$_Vector_val@U?$_Simple_types@Vresource_directory_entry@pe_bliss@@@std@@@std@@@0@V10@V10@Uid_entry_finder@resource_directory@pe_bliss@@@Z 0041ba5d f i pe_resource_manager.obj
 0001:0001aa89       ??$find_if@V?$_Vector_iterator@V?$_Vector_val@U?$_Simple_types@Vresource_directory_entry@pe_bliss@@@std@@@std@@@std@@Uname_entry_finder@resource_directory@pe_bliss@@@std@@YG?AV?$_Vector_iterator@V?$_Vector_val@U?$_Simple_types@Vresource_directory_entry@pe_bliss@@@std@@@std@@@0@V10@V10@Uname_entry_finder@resource_directory@pe_bliss@@@Z 0041ba89 f i pe_resource_manager.obj
 0001:0001aabf       ??0entry_finder@resource_directory@pe_bliss@@QAE@ABU012@@Z 0041babf f i pe_resource_manager.obj
 0001:0001aae8       ??0pe_resource_manager@pe_bliss@@QAE@AAVresource_directory@1@@Z 0041bae8 f   pe_resource_manager.obj
 0001:0001ab00       ?add_resource@pe_resource_manager@pe_bliss@@QAEXABV?$basic_string@DU?$char_traits@D@std@@V?$allocator@D@2@@std@@AAVresource_directory_entry@2@ABUentry_finder@resource_directory@2@12III@Z 0041bb00 f   pe_resource_manager.obj
 0001:0001ac69       ?add_resource@pe_resource_manager@pe_bliss@@QAEXABV?$basic_string@DU?$char_traits@D@std@@V?$allocator@D@2@@std@@ABV?$basic_string@_WU?$char_traits@_W@std@@V?$allocator@_W@2@@4@1III@Z 0041bc69 f   pe_resource_manager.obj
 0001:0001acc0       ?add_resource@pe_resource_manager@pe_bliss@@QAEXABV?$basic_string@DU?$char_traits@D@std@@V?$allocator@D@2@@std@@ABV?$basic_string@_WU?$char_traits@_W@std@@V?$allocator@_W@2@@4@AAVresource_directory_entry@2@ABUentry_finder@resource_directory@2@III@Z 0041bcc0 f   pe_resource_manager.obj
 0001:0001ad1a       ?add_resource@pe_resource_manager@pe_bliss@@QAEXABV?$basic_string@DU?$char_traits@D@std@@V?$allocator@D@2@@std@@ABV?$basic_string@_WU?$char_traits@_W@std@@V?$allocator@_W@2@@4@IIII@Z 0041bd1a f   pe_resource_manager.obj
 0001:0001ad71       ?add_resource@pe_resource_manager@pe_bliss@@QAEXABV?$basic_string@DU?$char_traits@D@std@@V?$allocator@D@2@@std@@W4resource_type@pe_resource_viewer@2@AAVresource_directory_entry@2@ABUentry_finder@resource_directory@2@III@Z 0041bd71 f   pe_resource_manager.obj
 0001:0001adcb       ?add_resource@pe_resource_manager@pe_bliss@@QAEXABV?$basic_string@DU?$char_traits@D@std@@V?$allocator@D@2@@std@@W4resource_type@pe_resource_viewer@2@ABV?$basic_string@_WU?$char_traits@_W@std@@V?$allocator@_W@2@@4@III@Z 0041bdcb f   pe_resource_manager.obj
 0001:0001ae22       ?add_resource@pe_resource_manager@pe_bliss@@QAEXABV?$basic_string@DU?$char_traits@D@std@@V?$allocator@D@2@@std@@W4resource_type@pe_resource_viewer@2@IIII@Z 0041be22 f   pe_resource_manager.obj
 0001:0001ae79       ?erase@?$vector@Vresource_directory_entry@pe_bliss@@V?$allocator@Vresource_directory_entry@pe_bliss@@@std@@@std@@QAE?AV?$_Vector_iterator@V?$_Vector_val@U?$_Simple_types@Vresource_directory_entry@pe_bliss@@@std@@@std@@@2@V?$_Vector_const_iterator@V?$_Vector_val@U?$_Simple_types@Vresource_directory_entry@pe_bliss@@@std@@@std@@@2@@Z 0041be79 f i pe_resource_manager.obj
 0001:0001aea8       ?get_root_directory@pe_resource_manager@pe_bliss@@QAEAAVresource_directory@2@XZ 0041bea8 f   pe_resource_manager.obj
 0001:0001aeac       ?remove_resource@pe_resource_manager@pe_bliss@@AAE_NABUentry_finder@resource_directory@2@0@Z 0041beac f   pe_resource_manager.obj
 0001:0001af4c       ?remove_resource@pe_resource_manager@pe_bliss@@AAE_NABUentry_finder@resource_directory@2@0I@Z 0041bf4c f   pe_resource_manager.obj
 0001:0001b04a       ?remove_resource@pe_resource_manager@pe_bliss@@QAE_NABV?$basic_string@_WU?$char_traits@_W@std@@V?$allocator@_W@2@@std@@0@Z 0041c04a f   pe_resource_manager.obj
 0001:0001b08d       ?remove_resource@pe_resource_manager@pe_bliss@@QAE_NABV?$basic_string@_WU?$char_traits@_W@std@@V?$allocator@_W@2@@std@@0I@Z 0041c08d f   pe_resource_manager.obj
 0001:0001b0d3       ?remove_resource@pe_resource_manager@pe_bliss@@QAE_NABV?$basic_string@_WU?$char_traits@_W@std@@V?$allocator@_W@2@@std@@@Z 0041c0d3 f   pe_resource_manager.obj
 0001:0001b121       ?remove_resource@pe_resource_manager@pe_bliss@@QAE_NABV?$basic_string@_WU?$char_traits@_W@std@@V?$allocator@_W@2@@std@@I@Z 0041c121 f   pe_resource_manager.obj
 0001:0001b164       ?remove_resource@pe_resource_manager@pe_bliss@@QAE_NABV?$basic_string@_WU?$char_traits@_W@std@@V?$allocator@_W@2@@std@@II@Z 0041c164 f   pe_resource_manager.obj
 0001:0001b1aa       ?remove_resource@pe_resource_manager@pe_bliss@@QAE_NW4resource_type@pe_resource_viewer@2@ABV?$basic_string@_WU?$char_traits@_W@std@@V?$allocator@_W@2@@std@@@Z 0041c1aa f   pe_resource_manager.obj
 0001:0001b1ed       ?remove_resource@pe_resource_manager@pe_bliss@@QAE_NW4resource_type@pe_resource_viewer@2@ABV?$basic_string@_WU?$char_traits@_W@std@@V?$allocator@_W@2@@std@@I@Z 0041c1ed f   pe_resource_manager.obj
 0001:0001b233       ?remove_resource@pe_resource_manager@pe_bliss@@QAE_NW4resource_type@pe_resource_viewer@2@I@Z 0041c233 f   pe_resource_manager.obj
 0001:0001b276       ?remove_resource@pe_resource_manager@pe_bliss@@QAE_NW4resource_type@pe_resource_viewer@2@II@Z 0041c276 f   pe_resource_manager.obj
 0001:0001b2bc       ?remove_resource_type@pe_resource_manager@pe_bliss@@QAE_NW4resource_type@pe_resource_viewer@2@@Z 0041c2bc f   pe_resource_manager.obj
 0001:0001b30b       ??$_Destroy_range@V?$allocator@V?$basic_string@_WU?$char_traits@_W@std@@V?$allocator@_W@2@@std@@@std@@@std@@YGXPAV?$basic_string@_WU?$char_traits@_W@std@@V?$allocator@_W@2@@0@QAV10@AAV?$allocator@V?$basic_string@_WU?$char_traits@_W@std@@V?$allocator@_W@2@@std@@@0@@Z 0041c30b f i pe_resource_viewer.obj
 0001:0001b326       ??$_Emplace_back_with_unused_capacity@ABV?$basic_string@_WU?$char_traits@_W@std@@V?$allocator@_W@2@@std@@@?$vector@V?$basic_string@_WU?$char_traits@_W@std@@V?$allocator@_W@2@@std@@V?$allocator@V?$basic_string@_WU?$char_traits@_W@std@@V?$allocator@_W@2@@std@@@2@@std@@AAEXABV?$basic_string@_WU?$char_traits@_W@std@@V?$allocator@_W@2@@1@@Z 0041c326 f i pe_resource_viewer.obj
 0001:0001b345       ??$_Emplace_reallocate@ABV?$basic_string@_WU?$char_traits@_W@std@@V?$allocator@_W@2@@std@@@?$vector@V?$basic_string@_WU?$char_traits@_W@std@@V?$allocator@_W@2@@std@@V?$allocator@V?$basic_string@_WU?$char_traits@_W@std@@V?$allocator@_W@2@@std@@@2@@std@@QAEPAV?$basic_string@_WU?$char_traits@_W@std@@V?$allocator@_W@2@@1@QAV21@ABV21@@Z 0041c345 f i pe_resource_viewer.obj
 0001:0001b43c       ??$_Emplace_reallocate@I@?$vector@IV?$allocator@I@std@@@std@@QAEPAIQAI$$QAI@Z 0041c43c f i pe_resource_viewer.obj
 0001:0001b508       ??$_Get_size_of_n@$0BI@@std@@YGII@Z 0041c508 f i pe_resource_viewer.obj
 0001:0001b51f       ??$_Uninitialized_move@PAV?$basic_string@_WU?$char_traits@_W@std@@V?$allocator@_W@2@@std@@V?$allocator@V?$basic_string@_WU?$char_traits@_W@std@@V?$allocator@_W@2@@std@@@2@@std@@YGPAV?$basic_string@_WU?$char_traits@_W@std@@V?$allocator@_W@2@@0@QAV10@0PAV10@AAV?$allocator@V?$basic_string@_WU?$char_traits@_W@std@@V?$allocator@_W@2@@std@@@0@@Z 0041c51f f i pe_resource_viewer.obj
 0001:0001b551       ??$construct@V?$basic_string@_WU?$char_traits@_W@std@@V?$allocator@_W@2@@std@@ABV12@@?$_Default_allocator_traits@V?$allocator@V?$basic_string@_WU?$char_traits@_W@std@@V?$allocator@_W@2@@std@@@std@@@std@@SGXAAV?$allocator@V?$basic_string@_WU?$char_traits@_W@std@@V?$allocator@_W@2@@std@@@1@QAV?$basic_string@_WU?$char_traits@_W@std@@V?$allocator@_W@2@@1@ABV31@@Z 0041c551 f i pe_resource_viewer.obj
 0001:0001b569       ??$count_if@V?$_Vector_const_iterator@V?$_Vector_val@U?$_Simple_types@Vresource_directory_entry@pe_bliss@@@std@@@std@@@std@@Uhas_id@pe_resource_viewer@pe_bliss@@@std@@YGHV?$_Vector_const_iterator@V?$_Vector_val@U?$_Simple_types@Vresource_directory_entry@pe_bliss@@@std@@@std@@@0@0Uhas_id@pe_resource_viewer@pe_bliss@@@Z 0041c569 f i pe_resource_viewer.obj
 0001:0001b593       ??0?$basic_string@_WU?$char_traits@_W@std@@V?$allocator@_W@2@@std@@QAE@$$QAV01@@Z 0041c593 f i pe_resource_viewer.obj
 0001:0001b5c3       ??0pe_resource_viewer@pe_bliss@@QAE@ABVresource_directory@1@@Z 0041c5c3 f   pe_resource_viewer.obj
 0001:0001b5ce       ??Rhas_id@pe_resource_viewer@pe_bliss@@QBE_NABVresource_directory_entry@2@@Z 0041c5ce f   pe_resource_viewer.obj
 0001:0001b5e0       ??Rhas_name@pe_resource_viewer@pe_bliss@@QBE_NABVresource_directory_entry@2@@Z 0041c5e0 f   pe_resource_viewer.obj
 0001:0001b5ec       ?_Calculate_growth@?$vector@V?$basic_string@_WU?$char_traits@_W@std@@V?$allocator@_W@2@@std@@V?$allocator@V?$basic_string@_WU?$char_traits@_W@std@@V?$allocator@_W@2@@std@@@2@@std@@ABEII@Z 0041c5ec f i pe_resource_viewer.obj
 0001:0001b615       ?_Change_array@?$vector@V?$basic_string@_WU?$char_traits@_W@std@@V?$allocator@_W@2@@std@@V?$allocator@V?$basic_string@_WU?$char_traits@_W@std@@V?$allocator@_W@2@@std@@@2@@std@@AAEXQAV?$basic_string@_WU?$char_traits@_W@std@@V?$allocator@_W@2@@2@II@Z 0041c615 f i pe_resource_viewer.obj
 0001:0001b65c       ?_Destroy@?$vector@V?$basic_string@_WU?$char_traits@_W@std@@V?$allocator@_W@2@@std@@V?$allocator@V?$basic_string@_WU?$char_traits@_W@std@@V?$allocator@_W@2@@std@@@2@@std@@AAEXPAV?$basic_string@_WU?$char_traits@_W@std@@V?$allocator@_W@2@@2@0@Z 0041c65c f i pe_resource_viewer.obj
 0001:0001b66d       ?_Xlength@?$vector@V?$basic_string@_WU?$char_traits@_W@std@@V?$allocator@_W@2@@std@@V?$allocator@V?$basic_string@_WU?$char_traits@_W@std@@V?$allocator@_W@2@@std@@@2@@std@@CGXXZ 0041c66d f i pe_resource_viewer.obj
 0001:0001b678       ?_Xrange@?$vector@Vresource_directory_entry@pe_bliss@@V?$allocator@Vresource_directory_entry@pe_bliss@@@std@@@std@@CGXXZ 0041c678 f i pe_resource_viewer.obj
 0001:0001b683       ?at@?$vector@Vresource_directory_entry@pe_bliss@@V?$allocator@Vresource_directory_entry@pe_bliss@@@std@@@std@@QBEABVresource_directory_entry@pe_bliss@@I@Z 0041c683 f i pe_resource_viewer.obj
 0001:0001b6a8       ?deallocate@?$allocator@V?$basic_string@_WU?$char_traits@_W@std@@V?$allocator@_W@2@@std@@@std@@QAEXQAV?$basic_string@_WU?$char_traits@_W@std@@V?$allocator@_W@2@@2@I@Z 0041c6a8 f i pe_resource_viewer.obj
 0001:0001b6ba       ?get_id_list@pe_resource_viewer@pe_bliss@@KG?BV?$vector@IV?$allocator@I@std@@@std@@ABV?$vector@Vresource_directory_entry@pe_bliss@@V?$allocator@Vresource_directory_entry@pe_bliss@@@std@@@4@@Z 0041c6ba f   pe_resource_viewer.obj
 0001:0001b718       ?get_language_count@pe_resource_viewer@pe_bliss@@QBEKABV?$basic_string@_WU?$char_traits@_W@std@@V?$allocator@_W@2@@std@@0@Z 0041c718 f   pe_resource_viewer.obj
 0001:0001b755       ?get_language_count@pe_resource_viewer@pe_bliss@@QBEKABV?$basic_string@_WU?$char_traits@_W@std@@V?$allocator@_W@2@@std@@I@Z 0041c755 f   pe_resource_viewer.obj
 0001:0001b792       ?get_language_count@pe_resource_viewer@pe_bliss@@QBEKW4resource_type@12@ABV?$basic_string@_WU?$char_traits@_W@std@@V?$allocator@_W@2@@std@@@Z 0041c792 f   pe_resource_viewer.obj
 0001:0001b7cf       ?get_language_count@pe_resource_viewer@pe_bliss@@QBEKW4resource_type@12@I@Z 0041c7cf f   pe_resource_viewer.obj
 0001:0001b80c       ?get_name_list@pe_resource_viewer@pe_bliss@@KG?BV?$vector@V?$basic_string@_WU?$char_traits@_W@std@@V?$allocator@_W@2@@std@@V?$allocator@V?$basic_string@_WU?$char_traits@_W@std@@V?$allocator@_W@2@@std@@@2@@std@@ABV?$vector@Vresource_directory_entry@pe_bliss@@V?$allocator@Vresource_directory_entry@pe_bliss@@@std@@@4@@Z 0041c80c f   pe_resource_viewer.obj
 0001:0001b861       ?get_resource_count@pe_resource_viewer@pe_bliss@@QBEKABV?$basic_string@_WU?$char_traits@_W@std@@V?$allocator@_W@2@@std@@@Z 0041c861 f   pe_resource_viewer.obj
 0001:0001b88a       ?get_resource_count@pe_resource_viewer@pe_bliss@@QBEKW4resource_type@12@@Z 0041c88a f   pe_resource_viewer.obj
 0001:0001b8b3       ?get_resource_data_by_id@pe_resource_viewer@pe_bliss@@QBE?BVresource_data_info@2@ABV?$basic_string@_WU?$char_traits@_W@std@@V?$allocator@_W@2@@std@@II@Z 0041c8b3 f   pe_resource_viewer.obj
 0001:0001b933       ?get_resource_data_by_id@pe_resource_viewer@pe_bliss@@QBE?BVresource_data_info@2@IABV?$basic_string@_WU?$char_traits@_W@std@@V?$allocator@_W@2@@std@@I@Z 0041c933 f   pe_resource_viewer.obj
 0001:0001b979       ?get_resource_data_by_id@pe_resource_viewer@pe_bliss@@QBE?BVresource_data_info@2@IW4resource_type@12@I@Z 0041c979 f   pe_resource_viewer.obj
 0001:0001b9bf       ?get_resource_data_by_id@pe_resource_viewer@pe_bliss@@QBE?BVresource_data_info@2@W4resource_type@12@II@Z 0041c9bf f   pe_resource_viewer.obj
 0001:0001ba3f       ?get_resource_data_by_name@pe_resource_viewer@pe_bliss@@QBE?BVresource_data_info@2@ABV?$basic_string@_WU?$char_traits@_W@std@@V?$allocator@_W@2@@std@@0I@Z 0041ca3f f   pe_resource_viewer.obj
 0001:0001babf       ?get_resource_data_by_name@pe_resource_viewer@pe_bliss@@QBE?BVresource_data_info@2@IABV?$basic_string@_WU?$char_traits@_W@std@@V?$allocator@_W@2@@std@@0@Z 0041cabf f   pe_resource_viewer.obj
 0001:0001bb05       ?get_resource_data_by_name@pe_resource_viewer@pe_bliss@@QBE?BVresource_data_info@2@IW4resource_type@12@ABV?$basic_string@_WU?$char_traits@_W@std@@V?$allocator@_W@2@@std@@@Z 0041cb05 f   pe_resource_viewer.obj
 0001:0001bb4b       ?get_resource_data_by_name@pe_resource_viewer@pe_bliss@@QBE?BVresource_data_info@2@W4resource_type@12@ABV?$basic_string@_WU?$char_traits@_W@std@@V?$allocator@_W@2@@std@@I@Z 0041cb4b f   pe_resource_viewer.obj
 0001:0001bbcb       ?get_root_directory@pe_resource_viewer@pe_bliss@@QBEABVresource_directory@2@XZ 0041cbcb f   pe_resource_viewer.obj
 0001:0001bbce       ?list_resource_ids@pe_resource_viewer@pe_bliss@@QBE?BV?$vector@IV?$allocator@I@std@@@std@@ABV?$basic_string@_WU?$char_traits@_W@std@@V?$allocator@_W@2@@4@@Z 0041cbce f   pe_resource_viewer.obj
 0001:0001bbf8       ?list_resource_ids@pe_resource_viewer@pe_bliss@@QBE?BV?$vector@IV?$allocator@I@std@@@std@@W4resource_type@12@@Z 0041cbf8 f   pe_resource_viewer.obj
 0001:0001bc22       ?list_resource_languages@pe_resource_viewer@pe_bliss@@QBE?BV?$vector@IV?$allocator@I@std@@@std@@ABV?$basic_string@_WU?$char_traits@_W@std@@V?$allocator@_W@2@@4@0@Z 0041cc22 f   pe_resource_viewer.obj
 0001:0001bc5e       ?list_resource_languages@pe_resource_viewer@pe_bliss@@QBE?BV?$vector@IV?$allocator@I@std@@@std@@ABV?$basic_string@_WU?$char_traits@_W@std@@V?$allocator@_W@2@@4@I@Z 0041cc5e f   pe_resource_viewer.obj
 0001:0001bc9a       ?list_resource_languages@pe_resource_viewer@pe_bliss@@QBE?BV?$vector@IV?$allocator@I@std@@@std@@W4resource_type@12@ABV?$basic_string@_WU?$char_traits@_W@std@@V?$allocator@_W@2@@4@@Z 0041cc9a f   pe_resource_viewer.obj
 0001:0001bcd6       ?list_resource_languages@pe_resource_viewer@pe_bliss@@QBE?BV?$vector@IV?$allocator@I@std@@@std@@W4resource_type@12@I@Z 0041ccd6 f   pe_resource_viewer.obj
 0001:0001bd12       ?list_resource_names@pe_resource_viewer@pe_bliss@@QBE?BV?$vector@V?$basic_string@_WU?$char_traits@_W@std@@V?$allocator@_W@2@@std@@V?$allocator@V?$basic_string@_WU?$char_traits@_W@std@@V?$allocator@_W@2@@std@@@2@@std@@ABV?$basic_string@_WU?$char_traits@_W@std@@V?$allocator@_W@2@@4@@Z 0041cd12 f   pe_resource_viewer.obj
 0001:0001bd3c       ?list_resource_names@pe_resource_viewer@pe_bliss@@QBE?BV?$vector@V?$basic_string@_WU?$char_traits@_W@std@@V?$allocator@_W@2@@std@@V?$allocator@V?$basic_string@_WU?$char_traits@_W@std@@V?$allocator@_W@2@@std@@@2@@std@@W4resource_type@12@@Z 0041cd3c f   pe_resource_viewer.obj
 0001:0001bd66       ?list_resource_types@pe_resource_viewer@pe_bliss@@QBE?BV?$vector@IV?$allocator@I@std@@@std@@XZ 0041cd66 f   pe_resource_viewer.obj
 0001:0001bdca       ?resource_exists@pe_resource_viewer@pe_bliss@@QBE_NABV?$basic_string@_WU?$char_traits@_W@std@@V?$allocator@_W@2@@std@@@Z 0041cdca f   pe_resource_viewer.obj
 0001:0001bdfe       ?resource_exists@pe_resource_viewer@pe_bliss@@QBE_NW4resource_type@12@@Z 0041cdfe f   pe_resource_viewer.obj
 0001:0001be33       ??$_Destroy_range@V?$allocator@Vrich_data@pe_bliss@@@std@@@std@@YGXPAVrich_data@pe_bliss@@QAV12@AAV?$allocator@Vrich_data@pe_bliss@@@0@@Z 0041ce33 f i pe_rich_data.obj
 0001:0001be36       ??$_Emplace_reallocate@ABVrich_data@pe_bliss@@@?$vector@Vrich_data@pe_bliss@@V?$allocator@Vrich_data@pe_bliss@@@std@@@std@@QAEPAVrich_data@pe_bliss@@QAV23@ABV23@@Z 0041ce36 f i pe_rich_data.obj
 0001:0001bf15       ??$_Get_size_of_n@$0M@@std@@YGII@Z 0041cf15 f i pe_rich_data.obj
 0001:0001bf2c       ??$_Uninitialized_move@PAVrich_data@pe_bliss@@V?$allocator@Vrich_data@pe_bliss@@@std@@@std@@YGPAVrich_data@pe_bliss@@QAV12@0PAV12@AAV?$allocator@Vrich_data@pe_bliss@@@0@@Z 0041cf2c f i pe_rich_data.obj
 0001:0001bf54       ??0?$vector@Vrich_data@pe_bliss@@V?$allocator@Vrich_data@pe_bliss@@@std@@@std@@QAE@$$QAV01@@Z 0041cf54 f i pe_rich_data.obj
 0001:0001bf81       ??0rich_data@pe_bliss@@QAE@XZ 0041cf81 f   pe_rich_data.obj
 0001:0001bf8e       ?_Calculate_growth@?$vector@Vrich_data@pe_bliss@@V?$allocator@Vrich_data@pe_bliss@@@std@@@std@@ABEII@Z 0041cf8e f i pe_rich_data.obj
 0001:0001bfb7       ?_Change_array@?$vector@Vrich_data@pe_bliss@@V?$allocator@Vrich_data@pe_bliss@@@std@@@std@@AAEXQAVrich_data@pe_bliss@@II@Z 0041cfb7 f i pe_rich_data.obj
 0001:0001bff3       ?_Xlength@?$vector@Vrich_data@pe_bliss@@V?$allocator@Vrich_data@pe_bliss@@@std@@@std@@CGXXZ 0041cff3 f i pe_rich_data.obj
 0001:0001bffe       ?deallocate@?$allocator@Vrich_data@pe_bliss@@@std@@QAEXQAVrich_data@pe_bliss@@I@Z 0041cffe f i pe_rich_data.obj
 0001:0001c010       ?get_number@rich_data@pe_bliss@@QBEIXZ 0041d010 f   pe_rich_data.obj
 0001:0001c013       ?get_rich_data@pe_bliss@@YG?BV?$vector@Vrich_data@pe_bliss@@V?$allocator@Vrich_data@pe_bliss@@@std@@@std@@ABVpe_base@1@@Z 0041d013 f   pe_rich_data.obj
 0001:0001c1ba       ?get_times@rich_data@pe_bliss@@QBEIXZ 0041d1ba f   pe_rich_data.obj
 0001:0001c1be       ?get_version@rich_data@pe_bliss@@QBEIXZ 0041d1be f   pe_rich_data.obj
 0001:0001c1c2       ?set_number@rich_data@pe_bliss@@QAEXI@Z 0041d1c2 f   pe_rich_data.obj
 0001:0001c1cb       ?set_times@rich_data@pe_bliss@@QAEXI@Z 0041d1cb f   pe_rich_data.obj
 0001:0001c1d5       ?set_version@rich_data@pe_bliss@@QAEXI@Z 0041d1d5 f   pe_rich_data.obj
 0001:0001c1df       ??0section@pe_bliss@@QAE@XZ 0041d1df f   pe_section.obj
 0001:0001c202       ??0section_by_raw_offset@pe_bliss@@QAE@I@Z 0041d202 f   pe_section.obj
 0001:0001c20d       ??0section_ptr_finder@pe_bliss@@QAE@ABVsection@1@@Z 0041d20d f   pe_section.obj
 0001:0001c218       ??Rsection_by_raw_offset@pe_bliss@@QBE_NABVsection@1@@Z 0041d218 f   pe_section.obj
 0001:0001c235       ??Rsection_ptr_finder@pe_bliss@@QBE_NABVsection@1@@Z 0041d235 f   pe_section.obj
 0001:0001c241       ?discardable@section@pe_bliss@@QAEAAV12@_N@Z 0041d241 f   pe_section.obj
 0001:0001c252       ?discardable@section@pe_bliss@@QBE_NXZ 0041d252 f   pe_section.obj
 0001:0001c25b       ?empty@section@pe_bliss@@QBE_NXZ 0041d25b f   pe_section.obj
 0001:0001c26f       ?executable@section@pe_bliss@@QAEAAV12@_N@Z 0041d26f f   pe_section.obj
 0001:0001c280       ?executable@section@pe_bliss@@QBE_NXZ 0041d280 f   pe_section.obj
 0001:0001c289       ?get_aligned_raw_size@section@pe_bliss@@QBEII@Z 0041d289 f   pe_section.obj
 0001:0001c2a2       ?get_aligned_virtual_size@section@pe_bliss@@QBEII@Z 0041d2a2 f   pe_section.obj
 0001:0001c2c5       ?get_characteristics@section@pe_bliss@@QBEIXZ 0041d2c5 f   pe_section.obj
 0001:0001c2c9       ?get_name@section@pe_bliss@@QBE?BV?$basic_string@DU?$char_traits@D@std@@V?$allocator@D@2@@std@@XZ 0041d2c9 f   pe_section.obj
 0001:0001c311       ?get_pointer_to_raw_data@section@pe_bliss@@QBEIXZ 0041d311 f   pe_section.obj
 0001:0001c315       ?get_raw_data@section@pe_bliss@@QAEAAV?$basic_string@DU?$char_traits@D@std@@V?$allocator@D@2@@std@@XZ 0041d315 f   pe_section.obj
 0001:0001c322       ?get_raw_data@section@pe_bliss@@QBEABV?$basic_string@DU?$char_traits@D@std@@V?$allocator@D@2@@std@@XZ 0041d322 f   pe_section.obj
 0001:0001c32f       ?get_raw_header@section@pe_bliss@@QAEAAUimage_section_header@pe_win@2@XZ 0041d32f f   pe_section.obj
 0001:0001c332       ?get_raw_header@section@pe_bliss@@QBEABUimage_section_header@pe_win@2@XZ 0041d332 f   pe_section.obj
 0001:0001c335       ?get_size_of_raw_data@section@pe_bliss@@QBEIXZ 0041d335 f   pe_section.obj
 0001:0001c339       ?get_virtual_address@section@pe_bliss@@QBEIXZ 0041d339 f   pe_section.obj
 0001:0001c33d       ?get_virtual_data@section@pe_bliss@@QAEAAV?$basic_string@DU?$char_traits@D@std@@V?$allocator@D@2@@std@@I@Z 0041d33d f   pe_section.obj
 0001:0001c350       ?get_virtual_data@section@pe_bliss@@QBEABV?$basic_string@DU?$char_traits@D@std@@V?$allocator@D@2@@std@@I@Z 0041d350 f   pe_section.obj
 0001:0001c363       ?get_virtual_size@section@pe_bliss@@QBEIXZ 0041d363 f   pe_section.obj
 0001:0001c367       ?map_virtual@section@pe_bliss@@ABEXI@Z 0041d367 f   pe_section.obj
 0001:0001c396       ?readable@section@pe_bliss@@QAEAAV12@_N@Z 0041d396 f   pe_section.obj
 0001:0001c3a7       ?readable@section@pe_bliss@@QBE_NXZ 0041d3a7 f   pe_section.obj
 0001:0001c3b0       ?set_characteristics@section@pe_bliss@@QAEXI@Z 0041d3b0 f   pe_section.obj
 0001:0001c3ba       ?set_flag@section@pe_bliss@@AAEAAV12@I_N@Z 0041d3ba f   pe_section.obj
 0001:0001c3da       ?set_name@section@pe_bliss@@QAEXABV?$basic_string@DU?$char_traits@D@std@@V?$allocator@D@2@@std@@@Z 0041d3da f   pe_section.obj
 0001:0001c41d       ?set_pointer_to_raw_data@section@pe_bliss@@QAEXI@Z 0041d41d f   pe_section.obj
 0001:0001c427       ?set_raw_data@section@pe_bliss@@QAEXABV?$basic_string@DU?$char_traits@D@std@@V?$allocator@D@2@@std@@@Z 0041d427 f   pe_section.obj
 0001:0001c433       ?set_size_of_raw_data@section@pe_bliss@@QAEXI@Z 0041d433 f   pe_section.obj
 0001:0001c43d       ?set_virtual_address@section@pe_bliss@@QAEXI@Z 0041d43d f   pe_section.obj
 0001:0001c447       ?set_virtual_size@section@pe_bliss@@QAEXI@Z 0041d447 f   pe_section.obj
 0001:0001c451       ?shared@section@pe_bliss@@QAEAAV12@_N@Z 0041d451 f   pe_section.obj
 0001:0001c462       ?shared@section@pe_bliss@@QBE_NXZ 0041d462 f   pe_section.obj
 0001:0001c46b       ?unmap_virtual@section@pe_bliss@@ABEXXZ 0041d46b f   pe_section.obj
 0001:0001c487       ?writeable@section@pe_bliss@@QAEAAV12@_N@Z 0041d487 f   pe_section.obj
 0001:0001c498       ?writeable@section@pe_bliss@@QBE_NXZ 0041d498 f   pe_section.obj
 0001:0001c49f       ??$_Copy_memmove@PA_KPA_K@std@@YGPA_KPA_K00@Z 0041d49f f i pe_tls.obj
 0001:0001c4c3       ??$_Destroy_range@V?$allocator@_K@std@@@std@@YGXPA_KQA_KAAV?$allocator@_K@0@@Z 0041d4c3 f i pe_tls.obj
 0001:0001c4c6       ??$_Emplace_reallocate@AB_K@?$vector@_KV?$allocator@_K@std@@@std@@QAEPA_KQA_KAB_K@Z 0041d4c6 f i pe_tls.obj
 0001:0001c598       ??$_Emplace_reallocate@_K@?$vector@_KV?$allocator@_K@std@@@std@@QAEPA_KQA_K$$QA_K@Z 0041d598 f i pe_tls.obj
 0001:0001c66a       ??$_Get_size_of_n@$07@std@@YGII@Z 0041d66a f i pe_tls.obj
 0001:0001c681       ??$_Uninitialized_move@PA_KV?$allocator@_K@std@@@std@@YGPA_KQA_K0PA_KAAV?$allocator@_K@0@@Z 0041d681 f i pe_tls.obj
 0001:0001c6a5       ??$get_tls_info_base@V?$pe_types@Uimage_nt_headers32@pe_win@pe_bliss@@Uimage_optional_header32@23@$0BAL@I$0IAAAAAAA@Uimage_tls_directory32@23@Uimage_load_config_directory32@23@@pe_bliss@@@pe_bliss@@YG?BVtls_info@0@ABVpe_base@0@@Z 0041d6a5 f i pe_tls.obj
 0001:0001c888       ??$get_tls_info_base@V?$pe_types@Uimage_nt_headers64@pe_win@pe_bliss@@Uimage_optional_header64@23@$0CAL@_K$0?IAAAAAAAAAAAAAAA@Uimage_tls_directory64@23@Uimage_load_config_directory64@23@@pe_bliss@@@pe_bliss@@YG?BVtls_info@0@ABVpe_base@0@@Z 0041d888 f i pe_tls.obj
 0001:0001caef       ??$rebuild_tls_base@V?$pe_types@Uimage_nt_headers32@pe_win@pe_bliss@@Uimage_optional_header32@23@$0BAL@I$0IAAAAAAA@Uimage_tls_directory32@23@Uimage_load_config_directory32@23@@pe_bliss@@@pe_bliss@@YG?BVimage_directory@0@AAVpe_base@0@ABVtls_info@0@AAVsection@0@I_N3W4tls_data_expand_type@0@33@Z 0041daef f i pe_tls.obj
 0001:0001cf43       ??$rebuild_tls_base@V?$pe_types@Uimage_nt_headers64@pe_win@pe_bliss@@Uimage_optional_header64@23@$0CAL@_K$0?IAAAAAAAAAAAAAAA@Uimage_tls_directory64@23@Uimage_load_config_directory64@23@@pe_bliss@@@pe_bliss@@YG?BVimage_directory@0@AAVpe_base@0@ABVtls_info@0@AAVsection@0@I_N3W4tls_data_expand_type@0@33@Z 0041df43 f i pe_tls.obj
 0001:0001d3d0       ??$section_data_from_rva@Uimage_tls_directory32@pe_win@pe_bliss@@@pe_base@pe_bliss@@QBE?AUimage_tls_directory32@pe_win@1@IW4section_data_type@1@_N@Z 0041e3d0 f i pe_tls.obj
 0001:0001d480       ??$section_data_from_rva@Uimage_tls_directory64@pe_win@pe_bliss@@@pe_base@pe_bliss@@QBE?AUimage_tls_directory64@pe_win@1@IW4section_data_type@1@_N@Z 0041e480 f i pe_tls.obj
 0001:0001d530       ??0tls_info@pe_bliss@@QAE@ABV01@@Z 0041e530 f i pe_tls.obj
 0001:0001d581       ??0tls_info@pe_bliss@@QAE@XZ 0041e581 f   pe_tls.obj
 0001:0001d5ad       ?_Calculate_growth@?$vector@_KV?$allocator@_K@std@@@std@@ABEII@Z 0041e5ad f i pe_tls.obj
 0001:0001d5d4       ?_Change_array@?$vector@_KV?$allocator@_K@std@@@std@@AAEXQA_KII@Z 0041e5d4 f i pe_tls.obj
 0001:0001d60a       ?_Getal@?$vector@IV?$allocator@I@std@@@std@@AAEAAV?$allocator@I@2@XZ 0041e60a f i pe_tls.obj
 0001:0001d60d       ?_Getal@?$vector@_KV?$allocator@_K@std@@@std@@AAEAAV?$allocator@_K@2@XZ 0041e60d f i pe_tls.obj
 0001:0001d610       ?_Reallocate_exactly@?$vector@IV?$allocator@I@std@@@std@@AAEXI@Z 0041e610 f i pe_tls.obj
 0001:0001d693       ?_Reallocate_exactly@?$vector@_KV?$allocator@_K@std@@@std@@AAEXI@Z 0041e693 f i pe_tls.obj
 0001:0001d716       ?_Xlength@?$vector@_KV?$allocator@_K@std@@@std@@CGXXZ 0041e716 f i pe_tls.obj
 0001:0001d721       ?add_tls_callback@tls_info@pe_bliss@@QAEXI@Z 0041e721 f   pe_tls.obj
 0001:0001d731       ?clear_tls_callbacks@tls_info@pe_bliss@@QAEXXZ 0041e731 f   pe_tls.obj
 0001:0001d738       ?deallocate@?$allocator@_K@std@@QAEXQA_KI@Z 0041e738 f i pe_tls.obj
 0001:0001d74c       ?get_callbacks_rva@tls_info@pe_bliss@@QBEIXZ 0041e74c f   pe_tls.obj
 0001:0001d750       ?get_characteristics@tls_info@pe_bliss@@QBEIXZ 0041e750 f   pe_tls.obj
 0001:0001d754       ?get_index_rva@tls_info@pe_bliss@@QBEIXZ 0041e754 f   pe_tls.obj
 0001:0001d758       ?get_raw_data@tls_info@pe_bliss@@QBEABV?$basic_string@DU?$char_traits@D@std@@V?$allocator@D@2@@std@@XZ 0041e758 f   pe_tls.obj
 0001:0001d75c       ?get_raw_data_end_rva@tls_info@pe_bliss@@QBEIXZ 0041e75c f   pe_tls.obj
 0001:0001d760       ?get_raw_data_start_rva@tls_info@pe_bliss@@QBEIXZ 0041e760 f   pe_tls.obj
 0001:0001d763       ?get_size_of_zero_fill@tls_info@pe_bliss@@QBEIXZ 0041e763 f   pe_tls.obj
 0001:0001d767       ?get_tls_callbacks@tls_info@pe_bliss@@QAEAAV?$vector@IV?$allocator@I@std@@@std@@XZ 0041e767 f   pe_tls.obj
 0001:0001d76b       ?get_tls_callbacks@tls_info@pe_bliss@@QBEABV?$vector@IV?$allocator@I@std@@@std@@XZ 0041e76b f   pe_tls.obj
 0001:0001d76f       ?get_tls_info@pe_bliss@@YG?BVtls_info@1@ABVpe_base@1@@Z 0041e76f f   pe_tls.obj
 0001:0001d7de       ?rebuild_tls@pe_bliss@@YG?BVimage_directory@1@AAVpe_base@1@ABVtls_info@1@AAVsection@1@I_N3W4tls_data_expand_type@1@33@Z 0041e7de f   pe_tls.obj
 0001:0001d832       ?recalc_raw_data_end_rva@tls_info@pe_bliss@@QAEXXZ 0041e832 f   pe_tls.obj
 0001:0001d83b       ?reserve@?$vector@IV?$allocator@I@std@@@std@@QAEXI@Z 0041e83b f i pe_tls.obj
 0001:0001d861       ?reserve@?$vector@_KV?$allocator@_K@std@@@std@@QAEXI@Z 0041e861 f i pe_tls.obj
 0001:0001d887       ?set_callbacks_rva@tls_info@pe_bliss@@QAEXI@Z 0041e887 f   pe_tls.obj
 0001:0001d891       ?set_characteristics@tls_info@pe_bliss@@QAEXI@Z 0041e891 f   pe_tls.obj
 0001:0001d89b       ?set_index_rva@tls_info@pe_bliss@@QAEXI@Z 0041e89b f   pe_tls.obj
 0001:0001d8a5       ?set_raw_data@tls_info@pe_bliss@@QAEXABV?$basic_string@DU?$char_traits@D@std@@V?$allocator@D@2@@std@@@Z 0041e8a5 f   pe_tls.obj
 0001:0001d8ad       ?set_raw_data_end_rva@tls_info@pe_bliss@@QAEXI@Z 0041e8ad f   pe_tls.obj
 0001:0001d8b7       ?set_raw_data_start_rva@tls_info@pe_bliss@@QAEXI@Z 0041e8b7 f   pe_tls.obj
 0001:0001d8c0       ?set_size_of_zero_fill@tls_info@pe_bliss@@QAEXI@Z 0041e8c0 f   pe_tls.obj
 0001:0001d8ca       ??$?HDU?$char_traits@D@std@@V?$allocator@D@1@@std@@YG?AV?$basic_string@DU?$char_traits@D@std@@V?$allocator@D@2@@0@$$QAV10@ABV10@@Z 0041e8ca f i resource_bitmap_reader.obj
 0001:0001d8e8       ??$pow@MGX@@YGNMG@Z        0041e8e8 f i resource_bitmap_reader.obj
 0001:0001d912       ??0resource_bitmap_reader@pe_bliss@@QAE@ABVpe_resource_viewer@1@@Z 0041e912 f   resource_bitmap_reader.obj
 0001:0001d91d       ?append@?$basic_string@DU?$char_traits@D@std@@V?$allocator@D@2@@std@@QAEAAV12@ABV12@@Z 0041e91d f i resource_bitmap_reader.obj
 0001:0001d937       ?create_bitmap@resource_bitmap_reader@pe_bliss@@CG?BV?$basic_string@DU?$char_traits@D@std@@V?$allocator@D@2@@std@@ABV34@@Z 0041e937 f   resource_bitmap_reader.obj
 0001:0001da33       ?get_bitmap_by_id@resource_bitmap_reader@pe_bliss@@QBE?BV?$basic_string@DU?$char_traits@D@std@@V?$allocator@D@2@@std@@II@Z 0041ea33 f   resource_bitmap_reader.obj
 0001:0001da6b       ?get_bitmap_by_id_lang@resource_bitmap_reader@pe_bliss@@QBE?BV?$basic_string@DU?$char_traits@D@std@@V?$allocator@D@2@@std@@II@Z 0041ea6b f   resource_bitmap_reader.obj
 0001:0001daa3       ?get_bitmap_by_name@resource_bitmap_reader@pe_bliss@@QBE?BV?$basic_string@DU?$char_traits@D@std@@V?$allocator@D@2@@std@@ABV?$basic_string@_WU?$char_traits@_W@std@@V?$allocator@_W@2@@4@I@Z 0041eaa3 f   resource_bitmap_reader.obj
 0001:0001dadb       ?get_bitmap_by_name@resource_bitmap_reader@pe_bliss@@QBE?BV?$basic_string@DU?$char_traits@D@std@@V?$allocator@D@2@@std@@IABV?$basic_string@_WU?$char_traits@_W@std@@V?$allocator@_W@2@@4@@Z 0041eadb f   resource_bitmap_reader.obj
 0001:0001db13       ??0resource_bitmap_writer@pe_bliss@@QAE@AAVpe_resource_manager@1@@Z 0041eb13 f   resource_bitmap_writer.obj
 0001:0001db1e       ?add_bitmap@resource_bitmap_writer@pe_bliss@@QAEXABV?$basic_string@DU?$char_traits@D@std@@V?$allocator@D@2@@std@@ABV?$basic_string@_WU?$char_traits@_W@std@@V?$allocator@_W@2@@4@III@Z 0041eb1e f   resource_bitmap_writer.obj
 0001:0001dc28       ?add_bitmap@resource_bitmap_writer@pe_bliss@@QAEXABV?$basic_string@DU?$char_traits@D@std@@V?$allocator@D@2@@std@@IIII@Z 0041ec28 f   resource_bitmap_writer.obj
 0001:0001dd32       ?assign@?$basic_string@DU?$char_traits@D@std@@V?$allocator@D@2@@std@@QAEAAV12@ABV12@II@Z 0041ed32 f i resource_bitmap_writer.obj
 0001:0001dd6e       ?remove_bitmap@resource_bitmap_writer@pe_bliss@@QAE_NABV?$basic_string@_WU?$char_traits@_W@std@@V?$allocator@_W@2@@std@@I@Z 0041ed6e f   resource_bitmap_writer.obj
 0001:0001dd82       ?remove_bitmap@resource_bitmap_writer@pe_bliss@@QAE_NII@Z 0041ed82 f   resource_bitmap_writer.obj
 0001:0001dd96       ??$_Find_unchecked1@PAII@std@@YGPAIPAIQAIABIU?$integral_constant@_N$0A@@0@@Z 0041ed96 f i resource_cursor_icon_reader.obj
 0001:0001ddb8       ??$_Find_unchecked@PAII@std@@YGPAIQAI0ABI@Z 0041edb8 f i resource_cursor_icon_reader.obj
 0001:0001ddd5       ??$_Reallocate_grow_by@V<lambda_67d87d4aa1269033985980465fd1d824>@@$$V@?$basic_string@DU?$char_traits@D@std@@V?$allocator@D@2@@std@@AAEAAV01@IV<lambda_67d87d4aa1269033985980465fd1d824>@@@Z 0041edd5 f i resource_cursor_icon_reader.obj
 0001:0001de5c       ??$_Refancy@PAI$0A@@std@@YGPAIPAI@Z 0041ee5c f i resource_cursor_icon_reader.obj
 0001:0001de63       ??$find@V?$_Vector_iterator@V?$_Vector_val@U?$_Simple_types@I@std@@@std@@@std@@I@std@@YG?AV?$_Vector_iterator@V?$_Vector_val@U?$_Simple_types@I@std@@@std@@@0@V10@V10@ABI@Z 0041ee63 f i resource_cursor_icon_reader.obj
 0001:0001de87       ??0resource_cursor_icon_reader@pe_bliss@@QAE@ABVpe_resource_viewer@1@@Z 0041ee87 f   resource_cursor_icon_reader.obj
 0001:0001de92       ??1?$vector@V?$basic_string@_WU?$char_traits@_W@std@@V?$allocator@_W@2@@std@@V?$allocator@V?$basic_string@_WU?$char_traits@_W@std@@V?$allocator@_W@2@@std@@@2@@std@@QAE@XZ 0041ee92 f i resource_cursor_icon_reader.obj
 0001:0001de97       ?_Become_small@?$basic_string@DU?$char_traits@D@std@@V?$allocator@D@2@@std@@AAEXXZ 0041ee97 f i resource_cursor_icon_reader.obj
 0001:0001dec1       ?_Tidy@?$vector@V?$basic_string@_WU?$char_traits@_W@std@@V?$allocator@_W@2@@std@@V?$allocator@V?$basic_string@_WU?$char_traits@_W@std@@V?$allocator@_W@2@@std@@@2@@std@@AAEXXZ 0041eec1 f i resource_cursor_icon_reader.obj
 0001:0001def6       ?_Xrange@?$vector@IV?$allocator@I@std@@@std@@CGXXZ 0041eef6 f i resource_cursor_icon_reader.obj
 0001:0001df01       ?at@?$vector@IV?$allocator@I@std@@@std@@QAEAAII@Z 0041ef01 f i resource_cursor_icon_reader.obj
 0001:0001df1f       ?check_cursor_presence@resource_cursor_icon_reader@pe_bliss@@CG_NABV?$basic_string@DU?$char_traits@D@std@@V?$allocator@D@2@@std@@IAAV34@0@Z 0041ef1f f   resource_cursor_icon_reader.obj
 0001:0001e077       ?check_icon_presence@resource_cursor_icon_reader@pe_bliss@@CG_NABV?$basic_string@DU?$char_traits@D@std@@V?$allocator@D@2@@std@@IAAV34@@Z 0041f077 f   resource_cursor_icon_reader.obj
 0001:0001e1a4       ?format_cursor_headers@resource_cursor_icon_reader@pe_bliss@@ABEGAAV?$basic_string@DU?$char_traits@D@std@@V?$allocator@D@2@@std@@ABV34@II@Z 0041f1a4 f   resource_cursor_icon_reader.obj
 0001:0001e40b       ?format_icon_headers@resource_cursor_icon_reader@pe_bliss@@CGGAAV?$basic_string@DU?$char_traits@D@std@@V?$allocator@D@2@@std@@ABV34@@Z 0041f40b f   resource_cursor_icon_reader.obj
 0001:0001e546       ?get_cursor_by_id@resource_cursor_icon_reader@pe_bliss@@QBE?BV?$basic_string@DU?$char_traits@D@std@@V?$allocator@D@2@@std@@II@Z 0041f546 f   resource_cursor_icon_reader.obj
 0001:0001e6e1       ?get_cursor_by_id_lang@resource_cursor_icon_reader@pe_bliss@@QBE?BV?$basic_string@DU?$char_traits@D@std@@V?$allocator@D@2@@std@@II@Z 0041f6e1 f   resource_cursor_icon_reader.obj
 0001:0001e87d       ?get_cursor_by_name@resource_cursor_icon_reader@pe_bliss@@QBE?BV?$basic_string@DU?$char_traits@D@std@@V?$allocator@D@2@@std@@ABV?$basic_string@_WU?$char_traits@_W@std@@V?$allocator@_W@2@@4@I@Z 0041f87d f   resource_cursor_icon_reader.obj
 0001:0001ea18       ?get_cursor_by_name@resource_cursor_icon_reader@pe_bliss@@QBE?BV?$basic_string@DU?$char_traits@D@std@@V?$allocator@D@2@@std@@IABV?$basic_string@_WU?$char_traits@_W@std@@V?$allocator@_W@2@@4@@Z 0041fa18 f   resource_cursor_icon_reader.obj
 0001:0001ebb4       ?get_icon_by_id@resource_cursor_icon_reader@pe_bliss@@QBE?BV?$basic_string@DU?$char_traits@D@std@@V?$allocator@D@2@@std@@II@Z 0041fbb4 f   resource_cursor_icon_reader.obj
 0001:0001ecbb       ?get_icon_by_id_lang@resource_cursor_icon_reader@pe_bliss@@QBE?BV?$basic_string@DU?$char_traits@D@std@@V?$allocator@D@2@@std@@II@Z 0041fcbb f   resource_cursor_icon_reader.obj
 0001:0001edc2       ?get_icon_by_name@resource_cursor_icon_reader@pe_bliss@@QBE?BV?$basic_string@DU?$char_traits@D@std@@V?$allocator@D@2@@std@@ABV?$basic_string@_WU?$char_traits@_W@std@@V?$allocator@_W@2@@4@I@Z 0041fdc2 f   resource_cursor_icon_reader.obj
 0001:0001eec9       ?get_icon_by_name@resource_cursor_icon_reader@pe_bliss@@QBE?BV?$basic_string@DU?$char_traits@D@std@@V?$allocator@D@2@@std@@IABV?$basic_string@_WU?$char_traits@_W@std@@V?$allocator@_W@2@@4@@Z 0041fec9 f   resource_cursor_icon_reader.obj
 0001:0001efd0       ?get_single_cursor_by_id@resource_cursor_icon_reader@pe_bliss@@QBE?BV?$basic_string@DU?$char_traits@D@std@@V?$allocator@D@2@@std@@II@Z 0041ffd0 f   resource_cursor_icon_reader.obj
 0001:0001f1c2       ?get_single_cursor_by_id_lang@resource_cursor_icon_reader@pe_bliss@@QBE?BV?$basic_string@DU?$char_traits@D@std@@V?$allocator@D@2@@std@@II@Z 004201c2 f   resource_cursor_icon_reader.obj
 0001:0001f35a       ?get_single_icon_by_id@resource_cursor_icon_reader@pe_bliss@@QBE?BV?$basic_string@DU?$char_traits@D@std@@V?$allocator@D@2@@std@@II@Z 0042035a f   resource_cursor_icon_reader.obj
 0001:0001f3f4       ?get_single_icon_by_id_lang@resource_cursor_icon_reader@pe_bliss@@QBE?BV?$basic_string@DU?$char_traits@D@std@@V?$allocator@D@2@@std@@II@Z 004203f4 f   resource_cursor_icon_reader.obj
 0001:0001f43e       ?lookup_cursor_group_data_by_cursor@resource_cursor_icon_reader@pe_bliss@@ABE?BV?$basic_string@DU?$char_traits@D@std@@V?$allocator@D@2@@std@@IIABV34@@Z 0042043e f   resource_cursor_icon_reader.obj
 0001:0001f69b       ?lookup_icon_group_data_by_icon@resource_cursor_icon_reader@pe_bliss@@ABE?BV?$basic_string@DU?$char_traits@D@std@@V?$allocator@D@2@@std@@II@Z 0042069b f   resource_cursor_icon_reader.obj
 0001:0001f8f0       ?reserve@?$basic_string@DU?$char_traits@D@std@@V?$allocator@D@2@@std@@QAEXI@Z 004208f0 f i resource_cursor_icon_reader.obj
 0001:0001f932       ??$_Copy_memmove@PAGPAG@std@@YGPAGPAG00@Z 00420932 f i resource_cursor_icon_writer.obj
 0001:0001f956       ??$_Destroy_range@V?$allocator@G@std@@@std@@YGXPAGQAGAAV?$allocator@G@0@@Z 00420956 f i resource_cursor_icon_writer.obj
 0001:0001f959       ??$_Emplace_reallocate@ABG@?$vector@GV?$allocator@G@std@@@std@@QAEPAGQAGABG@Z 00420959 f i resource_cursor_icon_writer.obj
 0001:0001fa25       ??$_Emplace_reallocate@G@?$vector@GV?$allocator@G@std@@@std@@QAEPAGQAG$$QAG@Z 00420a25 f i resource_cursor_icon_writer.obj
 0001:0001faf1       ??$_Max_element_unchecked@PAIU?$less@X@std@@@std@@YGPAIPAI0U?$less@X@0@@Z 00420af1 f i resource_cursor_icon_writer.obj
 0001:0001fb12       ??$_Uninitialized_move@PAGV?$allocator@G@std@@@std@@YGPAGQAG0PAGAAV?$allocator@G@0@@Z 00420b12 f i resource_cursor_icon_writer.obj
 0001:0001fb35       ??0resource_cursor_icon_writer@pe_bliss@@QAE@AAVpe_resource_manager@1@@Z 00420b35 f   resource_cursor_icon_writer.obj
 0001:0001fb40       ?_Calculate_growth@?$vector@GV?$allocator@G@std@@@std@@ABEII@Z 00420b40 f i resource_cursor_icon_writer.obj
 0001:0001fb66       ?_Change_array@?$vector@GV?$allocator@G@std@@@std@@AAEXQAGII@Z 00420b66 f i resource_cursor_icon_writer.obj
 0001:0001fb9c       ?_Tidy@?$vector@GV?$allocator@G@std@@@std@@AAEXXZ 00420b9c f i resource_cursor_icon_writer.obj
 0001:0001fbc0       ?_Xlength@?$vector@GV?$allocator@G@std@@@std@@CGXXZ 00420bc0 f i resource_cursor_icon_writer.obj
 0001:0001fbcb       ?_Xrange@?$vector@GV?$allocator@G@std@@@std@@CGXXZ 00420bcb f i resource_cursor_icon_writer.obj
 0001:0001fbd6       ?add_cursor@resource_cursor_icon_writer@pe_bliss@@AAEXABV?$basic_string@DU?$char_traits@D@std@@V?$allocator@D@2@@std@@PBVresource_data_info@2@AAVresource_directory_entry@2@ABUentry_finder@resource_directory@2@IW4icon_place_mode@12@II@Z 00420bd6 f   resource_cursor_icon_writer.obj
 0001:000200fd       ?add_cursor@resource_cursor_icon_writer@pe_bliss@@QAEXABV?$basic_string@DU?$char_traits@D@std@@V?$allocator@D@2@@std@@ABV?$basic_string@_WU?$char_traits@_W@std@@V?$allocator@_W@2@@4@IW4icon_place_mode@12@II@Z 004210fd f   resource_cursor_icon_writer.obj
 0001:000201ca       ?add_cursor@resource_cursor_icon_writer@pe_bliss@@QAEXABV?$basic_string@DU?$char_traits@D@std@@V?$allocator@D@2@@std@@IIW4icon_place_mode@12@II@Z 004211ca f   resource_cursor_icon_writer.obj
 0001:00020297       ?add_icon@resource_cursor_icon_writer@pe_bliss@@AAEXABV?$basic_string@DU?$char_traits@D@std@@V?$allocator@D@2@@std@@PBVresource_data_info@2@AAVresource_directory_entry@2@ABUentry_finder@resource_directory@2@IW4icon_place_mode@12@II@Z 00421297 f   resource_cursor_icon_writer.obj
 0001:0002072b       ?add_icon@resource_cursor_icon_writer@pe_bliss@@QAEXABV?$basic_string@DU?$char_traits@D@std@@V?$allocator@D@2@@std@@ABV?$basic_string@_WU?$char_traits@_W@std@@V?$allocator@_W@2@@4@IW4icon_place_mode@12@II@Z 0042172b f   resource_cursor_icon_writer.obj
 0001:000207f8       ?add_icon@resource_cursor_icon_writer@pe_bliss@@QAEXABV?$basic_string@DU?$char_traits@D@std@@V?$allocator@D@2@@std@@IIW4icon_place_mode@12@II@Z 004217f8 f   resource_cursor_icon_writer.obj
 0001:000208c5       ?at@?$vector@GV?$allocator@G@std@@@std@@QAEAAGI@Z 004218c5 f i resource_cursor_icon_writer.obj
 0001:000208e2       ?deallocate@?$allocator@G@std@@QAEXQAGI@Z 004218e2 f i resource_cursor_icon_writer.obj
 0001:000208f5       ?get_icon_or_cursor_free_id_list@resource_cursor_icon_writer@pe_bliss@@AAE?BV?$vector@GV?$allocator@G@std@@@std@@W4resource_type@pe_resource_viewer@2@W4icon_place_mode@12@I@Z 004218f5 f   resource_cursor_icon_writer.obj
 0001:00020b0f       ?remove_cursor_group@resource_cursor_icon_writer@pe_bliss@@QAE_NABV?$basic_string@_WU?$char_traits@_W@std@@V?$allocator@_W@2@@std@@I@Z 00421b0f f   resource_cursor_icon_writer.obj
 0001:00020ba9       ?remove_cursor_group@resource_cursor_icon_writer@pe_bliss@@QAE_NII@Z 00421ba9 f   resource_cursor_icon_writer.obj
 0001:00020c43       ?remove_cursors_from_cursor_group@resource_cursor_icon_writer@pe_bliss@@AAEXABV?$basic_string@DU?$char_traits@D@std@@V?$allocator@D@2@@std@@I@Z 00421c43 f   resource_cursor_icon_writer.obj
 0001:00020ced       ?remove_icon_group@resource_cursor_icon_writer@pe_bliss@@QAE_NABV?$basic_string@_WU?$char_traits@_W@std@@V?$allocator@_W@2@@std@@I@Z 00421ced f   resource_cursor_icon_writer.obj
 0001:00020d87       ?remove_icon_group@resource_cursor_icon_writer@pe_bliss@@QAE_NII@Z 00421d87 f   resource_cursor_icon_writer.obj
 0001:00020e21       ?remove_icons_from_icon_group@resource_cursor_icon_writer@pe_bliss@@AAEXABV?$basic_string@DU?$char_traits@D@std@@V?$allocator@D@2@@std@@I@Z 00421e21 f   resource_cursor_icon_writer.obj
 0001:00020ecb       ?reset@?$auto_ptr@Vresource_data_info@pe_bliss@@@std@@QAEXPAVresource_data_info@pe_bliss@@@Z 00421ecb f i resource_cursor_icon_writer.obj
 0001:00020ef7       ??0resource_data_info@pe_bliss@@QAE@ABV?$basic_string@DU?$char_traits@D@std@@V?$allocator@D@2@@std@@I@Z 00421ef7 f   resource_data_info.obj
 0001:00020f18       ??0resource_data_info@pe_bliss@@QAE@ABVresource_data_entry@1@@Z 00421f18 f   resource_data_info.obj
 0001:00020f46       ?get_codepage@resource_data_info@pe_bliss@@QBEIXZ 00421f46 f   resource_data_info.obj
 0001:00020f4a       ?get_data@resource_data_info@pe_bliss@@QBEABV?$basic_string@DU?$char_traits@D@std@@V?$allocator@D@2@@std@@XZ 00421f4a f   resource_data_info.obj
 0001:00020f4d       ??$?0U?$pair@IVmessage_table_item@pe_bliss@@@std@@@?$_Tree_temp_node@V?$allocator@U?$_Tree_node@U?$pair@$$CBIVmessage_table_item@pe_bliss@@@std@@PAX@std@@@std@@@std@@QAE@AAV?$allocator@U?$_Tree_node@U?$pair@$$CBIVmessage_table_item@pe_bliss@@@std@@PAX@std@@@1@PAU?$_Tree_node@U?$pair@$$CBIVmessage_table_item@pe_bliss@@@std@@PAX@1@$$QAU?$pair@IVmessage_table_item@pe_bliss@@@1@@Z 00421f4d f i resource_message_list_reader.obj
 0001:00020f9c       ??$_Buyheadnode@V?$allocator@U?$_Tree_node@U?$pair@$$CBIVmessage_table_item@pe_bliss@@@std@@PAX@std@@@std@@@?$_Tree_node@U?$pair@$$CBIVmessage_table_item@pe_bliss@@@std@@PAX@std@@SGPAU01@AAV?$allocator@U?$_Tree_node@U?$pair@$$CBIVmessage_table_item@pe_bliss@@@std@@PAX@std@@@1@@Z 00421f9c f i resource_message_list_reader.obj
 0001:00020fb4       ??$_Construct_in_place@PAU?$_Tree_node@U?$pair@$$CBIVmessage_table_item@pe_bliss@@@std@@PAX@std@@AAPAU12@@std@@YGXAAPAU?$_Tree_node@U?$pair@$$CBIVmessage_table_item@pe_bliss@@@std@@PAX@0@0@Z 00421fb4 f i resource_message_list_reader.obj
 0001:00020fc3       ??$_Construct_in_place@PAU?$_Tree_node@U?$pair@$$CBIVmessage_table_item@pe_bliss@@@std@@PAX@std@@ABQAU12@@std@@YGXAAPAU?$_Tree_node@U?$pair@$$CBIVmessage_table_item@pe_bliss@@@std@@PAX@0@ABQAU10@@Z 00421fc3 f i resource_message_list_reader.obj
 0001:00020fd2       ??$_Destroy_in_place@PAU?$_Tree_node@U?$pair@$$CBIVmessage_table_item@pe_bliss@@@std@@PAX@std@@@std@@YGXAAPAU?$_Tree_node@U?$pair@$$CBIVmessage_table_item@pe_bliss@@@std@@PAX@0@@Z 00421fd2 f i resource_message_list_reader.obj
 0001:00020fd5       ??$_Emplace@U?$pair@IVmessage_table_item@pe_bliss@@@std@@@?$_Tree@V?$_Tmap_traits@IVmessage_table_item@pe_bliss@@U?$less@I@std@@V?$allocator@U?$pair@$$CBIVmessage_table_item@pe_bliss@@@std@@@4@$0A@@std@@@std@@IAE?AU?$pair@PAU?$_Tree_node@U?$pair@$$CBIVmessage_table_item@pe_bliss@@@std@@PAX@std@@_N@1@$$QAU?$pair@IVmessage_table_item@pe_bliss@@@1@@Z 00421fd5 f i resource_message_list_reader.obj
 0001:0002105d       ??$_Erase_tree@V?$allocator@U?$_Tree_node@U?$pair@$$CBIVmessage_table_item@pe_bliss@@@std@@PAX@std@@@std@@@?$_Tree_val@U?$_Tree_simple_types@U?$pair@$$CBIVmessage_table_item@pe_bliss@@@std@@@std@@@std@@QAEXAAV?$allocator@U?$_Tree_node@U?$pair@$$CBIVmessage_table_item@pe_bliss@@@std@@PAX@std@@@1@PAU?$_Tree_node@U?$pair@$$CBIVmessage_table_item@pe_bliss@@@std@@PAX@1@@Z 0042205d f i resource_message_list_reader.obj
 0001:0002108c       ??$_Find_lower_bound@I@?$_Tree@V?$_Tmap_traits@IVmessage_table_item@pe_bliss@@U?$less@I@std@@V?$allocator@U?$pair@$$CBIVmessage_table_item@pe_bliss@@@std@@@4@$0A@@std@@@std@@IBE?AU?$_Tree_find_result@PAU?$_Tree_node@U?$pair@$$CBIVmessage_table_item@pe_bliss@@@std@@PAX@std@@@1@ABI@Z 0042208c f i resource_message_list_reader.obj
 0001:000210ce       ??$_Freenode@V?$allocator@U?$_Tree_node@U?$pair@$$CBIVmessage_table_item@pe_bliss@@@std@@PAX@std@@@std@@@?$_Tree_node@U?$pair@$$CBIVmessage_table_item@pe_bliss@@@std@@PAX@std@@SGXAAV?$allocator@U?$_Tree_node@U?$pair@$$CBIVmessage_table_item@pe_bliss@@@std@@PAX@std@@@1@PAU01@@Z 004220ce f i resource_message_list_reader.obj
 0001:000210eb       ??$_Lower_bound_duplicate@I@?$_Tree@V?$_Tmap_traits@IVmessage_table_item@pe_bliss@@U?$less@I@std@@V?$allocator@U?$pair@$$CBIVmessage_table_item@pe_bliss@@@std@@@4@$0A@@std@@@std@@IBE_NQAU?$_Tree_node@U?$pair@$$CBIVmessage_table_item@pe_bliss@@@std@@PAX@1@ABI@Z 004220eb f i resource_message_list_reader.obj
 0001:00021109       ??$_Swap_adl@PAU?$_Tree_node@U?$pair@$$CBIVmessage_table_item@pe_bliss@@@std@@PAX@std@@@std@@YGXAAPAU?$_Tree_node@U?$pair@$$CBIVmessage_table_item@pe_bliss@@@std@@PAX@0@0@Z 00422109 f i resource_message_list_reader.obj
 0001:0002111e       ??$_Swap_adl@U?$less@I@std@@@std@@YGXAAU?$less@I@0@0@Z 0042211e f i resource_message_list_reader.obj
 0001:00021121       ??$construct@U?$pair@$$CBIVmessage_table_item@pe_bliss@@@std@@U?$pair@IVmessage_table_item@pe_bliss@@@2@@?$_Default_allocator_traits@V?$allocator@U?$_Tree_node@U?$pair@$$CBIVmessage_table_item@pe_bliss@@@std@@PAX@std@@@std@@@std@@SGXAAV?$allocator@U?$_Tree_node@U?$pair@$$CBIVmessage_table_item@pe_bliss@@@std@@PAX@std@@@1@QAU?$pair@$$CBIVmessage_table_item@pe_bliss@@@1@$$QAU?$pair@IVmessage_table_item@pe_bliss@@@1@@Z 00422121 f i resource_message_list_reader.obj
 0001:0002113c       ??$exchange@PAU?$_Tree_node@U?$pair@$$CBIVmessage_table_item@pe_bliss@@@std@@PAX@std@@$$T@std@@YGPAU?$_Tree_node@U?$pair@$$CBIVmessage_table_item@pe_bliss@@@std@@PAX@0@AAPAU10@$$QA$$T@Z 0042213c f i resource_message_list_reader.obj
 0001:0002114d       ??$exchange@PAU?$_Tree_node@U?$pair@$$CBIVmessage_table_item@pe_bliss@@@std@@PAX@std@@AAPAU12@@std@@YGPAU?$_Tree_node@U?$pair@$$CBIVmessage_table_item@pe_bliss@@@std@@PAX@0@AAPAU10@0@Z 0042214d f i resource_message_list_reader.obj
 0001:0002115e       ??$swap@PAU?$_Tree_node@U?$pair@$$CBIVmessage_table_item@pe_bliss@@@std@@PAX@std@@X@std@@YGXAAPAU?$_Tree_node@U?$pair@$$CBIVmessage_table_item@pe_bliss@@@std@@PAX@0@0@Z 0042215e f i resource_message_list_reader.obj
 0001:00021173       ??$swap@U?$less@I@std@@X@std@@YGXAAU?$less@I@0@0@Z 00422173 f i resource_message_list_reader.obj
 0001:00021176       ??0message_table_item@pe_bliss@@QAE@$$QAV01@@Z 00422176 f i resource_message_list_reader.obj
 0001:000211a1       ??0resource_message_list_reader@pe_bliss@@QAE@ABVpe_resource_viewer@1@@Z 004221a1 f   resource_message_list_reader.obj
 0001:000211ac       ??1?$_Tree_temp_node@V?$allocator@U?$_Tree_node@U?$pair@$$CBIVmessage_table_item@pe_bliss@@@std@@PAX@std@@@std@@@std@@QAE@XZ 004221ac f i resource_message_list_reader.obj
 0001:000211d3       ??_G?$pair@$$CBIVmessage_table_item@pe_bliss@@@std@@QAEPAXI@Z 004221d3 f i resource_message_list_reader.obj
 0001:000211fd       ?_Insert_node@?$_Tree_val@U?$_Tree_simple_types@U?$pair@$$CBIVmessage_table_item@pe_bliss@@@std@@@std@@@std@@QAEPAU?$_Tree_node@U?$pair@$$CBIVmessage_table_item@pe_bliss@@@std@@PAX@2@U?$_Tree_id@PAU?$_Tree_node@U?$pair@$$CBIVmessage_table_item@pe_bliss@@@std@@PAX@std@@@2@QAU32@@Z 004221fd f i resource_message_list_reader.obj
 0001:000212fc       ?_Lrotate@?$_Tree_val@U?$_Tree_simple_types@U?$pair@$$CBIVmessage_table_item@pe_bliss@@@std@@@std@@@std@@QAEXPAU?$_Tree_node@U?$pair@$$CBIVmessage_table_item@pe_bliss@@@std@@PAX@2@@Z 004222fc f i resource_message_list_reader.obj
 0001:0002133d       ?_Rrotate@?$_Tree_val@U?$_Tree_simple_types@U?$pair@$$CBIVmessage_table_item@pe_bliss@@@std@@@std@@@std@@QAEXPAU?$_Tree_node@U?$pair@$$CBIVmessage_table_item@pe_bliss@@@std@@PAX@2@@Z 0042233d f i resource_message_list_reader.obj
 0001:00021380       ?get_message_table_by_id@resource_message_list_reader@pe_bliss@@QBE?BV?$map@IVmessage_table_item@pe_bliss@@U?$less@I@std@@V?$allocator@U?$pair@$$CBIVmessage_table_item@pe_bliss@@@std@@@4@@std@@II@Z 00422380 f   resource_message_list_reader.obj
 0001:000213b8       ?get_message_table_by_id_lang@resource_message_list_reader@pe_bliss@@QBE?BV?$map@IVmessage_table_item@pe_bliss@@U?$less@I@std@@V?$allocator@U?$pair@$$CBIVmessage_table_item@pe_bliss@@@std@@@4@@std@@II@Z 004223b8 f   resource_message_list_reader.obj
 0001:000213f0       ?parse_message_list@resource_message_list_reader@pe_bliss@@SG?BV?$map@IVmessage_table_item@pe_bliss@@U?$less@I@std@@V?$allocator@U?$pair@$$CBIVmessage_table_item@pe_bliss@@@std@@@4@@std@@ABV?$basic_string@DU?$char_traits@D@std@@V?$allocator@D@2@@4@@Z 004223f0 f   resource_message_list_reader.obj
 0001:00021740       ??$?0GV?$basic_string@_WU?$char_traits@_W@std@@V?$allocator@_W@2@@std@@$0A@@?$pair@$$CBGV?$basic_string@_WU?$char_traits@_W@std@@V?$allocator@_W@2@@std@@@std@@QAE@$$QAU?$pair@GV?$basic_string@_WU?$char_traits@_W@std@@V?$allocator@_W@2@@std@@@1@@Z 00422740 f i resource_string_table_reader.obj
 0001:0002175f       ??$?0U?$pair@GV?$basic_string@_WU?$char_traits@_W@std@@V?$allocator@_W@2@@std@@@std@@@?$_Tree_temp_node@V?$allocator@U?$_Tree_node@U?$pair@$$CBGV?$basic_string@_WU?$char_traits@_W@std@@V?$allocator@_W@2@@std@@@std@@PAX@std@@@std@@@std@@QAE@AAV?$allocator@U?$_Tree_node@U?$pair@$$CBGV?$basic_string@_WU?$char_traits@_W@std@@V?$allocator@_W@2@@std@@@std@@PAX@std@@@1@PAU?$_Tree_node@U?$pair@$$CBGV?$basic_string@_WU?$char_traits@_W@std@@V?$allocator@_W@2@@std@@@std@@PAX@1@$$QAU?$pair@GV?$basic_string@_WU?$char_traits@_W@std@@V?$allocator@_W@2@@std@@@1@@Z 0042275f f i resource_string_table_reader.obj
 0001:000217ab       ??$_Buyheadnode@V?$allocator@U?$_Tree_node@U?$pair@$$CBGV?$basic_string@_WU?$char_traits@_W@std@@V?$allocator@_W@2@@std@@@std@@PAX@std@@@std@@@?$_Tree_node@U?$pair@$$CBGV?$basic_string@_WU?$char_traits@_W@std@@V?$allocator@_W@2@@std@@@std@@PAX@std@@SGPAU01@AAV?$allocator@U?$_Tree_node@U?$pair@$$CBGV?$basic_string@_WU?$char_traits@_W@std@@V?$allocator@_W@2@@std@@@std@@PAX@std@@@1@@Z 004227ab f i resource_string_table_reader.obj
 0001:000217c3       ??$_Construct_in_place@PAU?$_Tree_node@U?$pair@$$CBGV?$basic_string@_WU?$char_traits@_W@std@@V?$allocator@_W@2@@std@@@std@@PAX@std@@AAPAU12@@std@@YGXAAPAU?$_Tree_node@U?$pair@$$CBGV?$basic_string@_WU?$char_traits@_W@std@@V?$allocator@_W@2@@std@@@std@@PAX@0@0@Z 004227c3 f i resource_string_table_reader.obj
 0001:000217d2       ??$_Construct_in_place@PAU?$_Tree_node@U?$pair@$$CBGV?$basic_string@_WU?$char_traits@_W@std@@V?$allocator@_W@2@@std@@@std@@PAX@std@@ABQAU12@@std@@YGXAAPAU?$_Tree_node@U?$pair@$$CBGV?$basic_string@_WU?$char_traits@_W@std@@V?$allocator@_W@2@@std@@@std@@PAX@0@ABQAU10@@Z 004227d2 f i resource_string_table_reader.obj
 0001:000217e1       ??$_Destroy_in_place@PAU?$_Tree_node@U?$pair@$$CBGV?$basic_string@_WU?$char_traits@_W@std@@V?$allocator@_W@2@@std@@@std@@PAX@std@@@std@@YGXAAPAU?$_Tree_node@U?$pair@$$CBGV?$basic_string@_WU?$char_traits@_W@std@@V?$allocator@_W@2@@std@@@std@@PAX@0@@Z 004227e1 f i resource_string_table_reader.obj
 0001:000217e4       ??$_Emplace@U?$pair@GV?$basic_string@_WU?$char_traits@_W@std@@V?$allocator@_W@2@@std@@@std@@@?$_Tree@V?$_Tmap_traits@GV?$basic_string@_WU?$char_traits@_W@std@@V?$allocator@_W@2@@std@@U?$less@G@2@V?$allocator@U?$pair@$$CBGV?$basic_string@_WU?$char_traits@_W@std@@V?$allocator@_W@2@@std@@@std@@@2@$0A@@std@@@std@@IAE?AU?$pair@PAU?$_Tree_node@U?$pair@$$CBGV?$basic_string@_WU?$char_traits@_W@std@@V?$allocator@_W@2@@std@@@std@@PAX@std@@_N@1@$$QAU?$pair@GV?$basic_string@_WU?$char_traits@_W@std@@V?$allocator@_W@2@@std@@@1@@Z 004227e4 f i resource_string_table_reader.obj
 0001:0002186c       ??$_Erase_head@V?$allocator@U?$_Tree_node@U?$pair@$$CBGV?$basic_string@_WU?$char_traits@_W@std@@V?$allocator@_W@2@@std@@@std@@PAX@std@@@std@@@?$_Tree_val@U?$_Tree_simple_types@U?$pair@$$CBGV?$basic_string@_WU?$char_traits@_W@std@@V?$allocator@_W@2@@std@@@std@@@std@@@std@@QAEXAAV?$allocator@U?$_Tree_node@U?$pair@$$CBGV?$basic_string@_WU?$char_traits@_W@std@@V?$allocator@_W@2@@std@@@std@@PAX@std@@@1@@Z 0042286c f i resource_string_table_reader.obj
 0001:0002188c       ??$_Erase_tree@V?$allocator@U?$_Tree_node@U?$pair@$$CBGV?$basic_string@_WU?$char_traits@_W@std@@V?$allocator@_W@2@@std@@@std@@PAX@std@@@std@@@?$_Tree_val@U?$_Tree_simple_types@U?$pair@$$CBGV?$basic_string@_WU?$char_traits@_W@std@@V?$allocator@_W@2@@std@@@std@@@std@@@std@@QAEXAAV?$allocator@U?$_Tree_node@U?$pair@$$CBGV?$basic_string@_WU?$char_traits@_W@std@@V?$allocator@_W@2@@std@@@std@@PAX@std@@@1@PAU?$_Tree_node@U?$pair@$$CBGV?$basic_string@_WU?$char_traits@_W@std@@V?$allocator@_W@2@@std@@@std@@PAX@1@@Z 0042288c f i resource_string_table_reader.obj
 0001:000218bb       ??$_Find@G@?$_Tree@V?$_Tmap_traits@GV?$basic_string@_WU?$char_traits@_W@std@@V?$allocator@_W@2@@std@@U?$less@G@2@V?$allocator@U?$pair@$$CBGV?$basic_string@_WU?$char_traits@_W@std@@V?$allocator@_W@2@@std@@@std@@@2@$0A@@std@@@std@@ABEPAU?$_Tree_node@U?$pair@$$CBGV?$basic_string@_WU?$char_traits@_W@std@@V?$allocator@_W@2@@std@@@std@@PAX@1@ABG@Z 004228bb f i resource_string_table_reader.obj
 0001:000218eb       ??$_Find_lower_bound@G@?$_Tree@V?$_Tmap_traits@GV?$basic_string@_WU?$char_traits@_W@std@@V?$allocator@_W@2@@std@@U?$less@G@2@V?$allocator@U?$pair@$$CBGV?$basic_string@_WU?$char_traits@_W@std@@V?$allocator@_W@2@@std@@@std@@@2@$0A@@std@@@std@@IBE?AU?$_Tree_find_result@PAU?$_Tree_node@U?$pair@$$CBGV?$basic_string@_WU?$char_traits@_W@std@@V?$allocator@_W@2@@std@@@std@@PAX@std@@@1@ABG@Z 004228eb f i resource_string_table_reader.obj
 0001:0002192f       ??$_Freenode@V?$allocator@U?$_Tree_node@U?$pair@$$CBGV?$basic_string@_WU?$char_traits@_W@std@@V?$allocator@_W@2@@std@@@std@@PAX@std@@@std@@@?$_Tree_node@U?$pair@$$CBGV?$basic_string@_WU?$char_traits@_W@std@@V?$allocator@_W@2@@std@@@std@@PAX@std@@SGXAAV?$allocator@U?$_Tree_node@U?$pair@$$CBGV?$basic_string@_WU?$char_traits@_W@std@@V?$allocator@_W@2@@std@@@std@@PAX@std@@@1@PAU01@@Z 0042292f f i resource_string_table_reader.obj
 0001:0002194a       ??$_Lower_bound_duplicate@G@?$_Tree@V?$_Tmap_traits@GV?$basic_string@_WU?$char_traits@_W@std@@V?$allocator@_W@2@@std@@U?$less@G@2@V?$allocator@U?$pair@$$CBGV?$basic_string@_WU?$char_traits@_W@std@@V?$allocator@_W@2@@std@@@std@@@2@$0A@@std@@@std@@IBE_NQAU?$_Tree_node@U?$pair@$$CBGV?$basic_string@_WU?$char_traits@_W@std@@V?$allocator@_W@2@@std@@@std@@PAX@1@ABG@Z 0042294a f i resource_string_table_reader.obj
 0001:0002196a       ??$_Swap_adl@PAU?$_Tree_node@U?$pair@$$CBGV?$basic_string@_WU?$char_traits@_W@std@@V?$allocator@_W@2@@std@@@std@@PAX@std@@@std@@YGXAAPAU?$_Tree_node@U?$pair@$$CBGV?$basic_string@_WU?$char_traits@_W@std@@V?$allocator@_W@2@@std@@@std@@PAX@0@0@Z 0042296a f i resource_string_table_reader.obj
 0001:0002197f       ??$_Swap_adl@U?$less@G@std@@@std@@YGXAAU?$less@G@0@0@Z 0042297f f i resource_string_table_reader.obj
 0001:00021982       ??$exchange@PAU?$_Tree_node@U?$pair@$$CBGV?$basic_string@_WU?$char_traits@_W@std@@V?$allocator@_W@2@@std@@@std@@PAX@std@@$$T@std@@YGPAU?$_Tree_node@U?$pair@$$CBGV?$basic_string@_WU?$char_traits@_W@std@@V?$allocator@_W@2@@std@@@std@@PAX@0@AAPAU10@$$QA$$T@Z 00422982 f i resource_string_table_reader.obj
 0001:00021993       ??$exchange@PAU?$_Tree_node@U?$pair@$$CBGV?$basic_string@_WU?$char_traits@_W@std@@V?$allocator@_W@2@@std@@@std@@PAX@std@@AAPAU12@@std@@YGPAU?$_Tree_node@U?$pair@$$CBGV?$basic_string@_WU?$char_traits@_W@std@@V?$allocator@_W@2@@std@@@std@@PAX@0@AAPAU10@0@Z 00422993 f i resource_string_table_reader.obj
 0001:000219a4       ??$swap@PAU?$_Tree_node@U?$pair@$$CBGV?$basic_string@_WU?$char_traits@_W@std@@V?$allocator@_W@2@@std@@@std@@PAX@std@@X@std@@YGXAAPAU?$_Tree_node@U?$pair@$$CBGV?$basic_string@_WU?$char_traits@_W@std@@V?$allocator@_W@2@@std@@@std@@PAX@0@0@Z 004229a4 f i resource_string_table_reader.obj
 0001:000219b9       ??$swap@U?$less@G@std@@X@std@@YGXAAU?$less@G@0@0@Z 004229b9 f i resource_string_table_reader.obj
 0001:000219bc       ??0resource_string_table_reader@pe_bliss@@QAE@ABVpe_resource_viewer@1@@Z 004229bc f   resource_string_table_reader.obj
 0001:000219c7       ??1?$_Tree_temp_node@V?$allocator@U?$_Tree_node@U?$pair@$$CBGV?$basic_string@_WU?$char_traits@_W@std@@V?$allocator@_W@2@@std@@@std@@PAX@std@@@std@@@std@@QAE@XZ 004229c7 f i resource_string_table_reader.obj
 0001:000219ec       ?_Insert_node@?$_Tree_val@U?$_Tree_simple_types@U?$pair@$$CBGV?$basic_string@_WU?$char_traits@_W@std@@V?$allocator@_W@2@@std@@@std@@@std@@@std@@QAEPAU?$_Tree_node@U?$pair@$$CBGV?$basic_string@_WU?$char_traits@_W@std@@V?$allocator@_W@2@@std@@@std@@PAX@2@U?$_Tree_id@PAU?$_Tree_node@U?$pair@$$CBGV?$basic_string@_WU?$char_traits@_W@std@@V?$allocator@_W@2@@std@@@std@@PAX@std@@@2@QAU32@@Z 004229ec f i resource_string_table_reader.obj
 0001:00021aeb       ?_Lrotate@?$_Tree_val@U?$_Tree_simple_types@U?$pair@$$CBGV?$basic_string@_WU?$char_traits@_W@std@@V?$allocator@_W@2@@std@@@std@@@std@@@std@@QAEXPAU?$_Tree_node@U?$pair@$$CBGV?$basic_string@_WU?$char_traits@_W@std@@V?$allocator@_W@2@@std@@@std@@PAX@2@@Z 00422aeb f i resource_string_table_reader.obj
 0001:00021b2c       ?_Rrotate@?$_Tree_val@U?$_Tree_simple_types@U?$pair@$$CBGV?$basic_string@_WU?$char_traits@_W@std@@V?$allocator@_W@2@@std@@@std@@@std@@@std@@QAEXPAU?$_Tree_node@U?$pair@$$CBGV?$basic_string@_WU?$char_traits@_W@std@@V?$allocator@_W@2@@std@@@std@@PAX@2@@Z 00422b2c f i resource_string_table_reader.obj
 0001:00021b6f       ?get_string_by_id@resource_string_table_reader@pe_bliss@@QBE?BV?$basic_string@_WU?$char_traits@_W@std@@V?$allocator@_W@2@@std@@GI@Z 00422b6f f   resource_string_table_reader.obj
 0001:00021be2       ?get_string_by_id_lang@resource_string_table_reader@pe_bliss@@QBE?BV?$basic_string@_WU?$char_traits@_W@std@@V?$allocator@_W@2@@std@@IG@Z 00422be2 f   resource_string_table_reader.obj
 0001:00021c55       ?get_string_table_by_id@resource_string_table_reader@pe_bliss@@QBE?BV?$map@GV?$basic_string@_WU?$char_traits@_W@std@@V?$allocator@_W@2@@std@@U?$less@G@2@V?$allocator@U?$pair@$$CBGV?$basic_string@_WU?$char_traits@_W@std@@V?$allocator@_W@2@@std@@@std@@@2@@std@@II@Z 00422c55 f   resource_string_table_reader.obj
 0001:00021c90       ?get_string_table_by_id_lang@resource_string_table_reader@pe_bliss@@QBE?BV?$map@GV?$basic_string@_WU?$char_traits@_W@std@@V?$allocator@_W@2@@std@@U?$less@G@2@V?$allocator@U?$pair@$$CBGV?$basic_string@_WU?$char_traits@_W@std@@V?$allocator@_W@2@@std@@@std@@@2@@std@@II@Z 00422c90 f   resource_string_table_reader.obj
 0001:00021ccb       ?parse_string_list@resource_string_table_reader@pe_bliss@@CG?BV?$map@GV?$basic_string@_WU?$char_traits@_W@std@@V?$allocator@_W@2@@std@@U?$less@G@2@V?$allocator@U?$pair@$$CBGV?$basic_string@_WU?$char_traits@_W@std@@V?$allocator@_W@2@@std@@@std@@@2@@std@@IABV?$basic_string@DU?$char_traits@D@std@@V?$allocator@D@2@@4@@Z 00422ccb f   resource_string_table_reader.obj
 0001:00021dd1       ??$?0PB_WV?$basic_string@_WU?$char_traits@_W@std@@V?$allocator@_W@2@@std@@$0A@@?$pair@$$CBV?$basic_string@_WU?$char_traits@_W@std@@V?$allocator@_W@2@@std@@V12@@std@@QAE@$$QAU?$pair@PB_WV?$basic_string@_WU?$char_traits@_W@std@@V?$allocator@_W@2@@std@@@1@@Z 00422dd1 f i resource_version_info_reader.obj
 0001:00021df3       ??$?0PB_WV?$map@V?$basic_string@_WU?$char_traits@_W@std@@V?$allocator@_W@2@@std@@V12@U?$less@V?$basic_string@_WU?$char_traits@_W@std@@V?$allocator@_W@2@@std@@@2@V?$allocator@U?$pair@$$CBV?$basic_string@_WU?$char_traits@_W@std@@V?$allocator@_W@2@@std@@V12@@std@@@2@@std@@$0A@@?$pair@$$CBV?$basic_string@_WU?$char_traits@_W@std@@V?$allocator@_W@2@@std@@V?$map@V?$basic_string@_WU?$char_traits@_W@std@@V?$allocator@_W@2@@std@@V12@U?$less@V?$basic_string@_WU?$char_traits@_W@std@@V?$allocator@_W@2@@std@@@2@V?$allocator@U?$pair@$$CBV?$basic_string@_WU?$char_traits@_W@std@@V?$allocator@_W@2@@std@@V12@@std@@@2@@2@@std@@QAE@$$QAU?$pair@PB_WV?$map@V?$basic_string@_WU?$char_traits@_W@std@@V?$allocator@_W@2@@std@@V12@U?$less@V?$basic_string@_WU?$char_traits@_W@std@@V?$allocator@_W@2@@std@@@2@V?$allocator@U?$pair@$$CBV?$basic_string@_WU?$char_traits@_W@std@@V?$allocator@_W@2@@std@@V12@@std@@@2@@std@@@1@@Z 00422df3 f i resource_version_info_reader.obj
 0001:00021e15       ??$?0U?$pair@GG@std@@@?$_Tree_temp_node@V?$allocator@U?$_Tree_node@U?$pair@$$CBGG@std@@PAX@std@@@std@@@std@@QAE@AAV?$allocator@U?$_Tree_node@U?$pair@$$CBGG@std@@PAX@std@@@1@PAU?$_Tree_node@U?$pair@$$CBGG@std@@PAX@1@$$QAU?$pair@GG@1@@Z 00422e15 f i resource_version_info_reader.obj
 0001:00021e68       ??$?0U?$pair@PB_WV?$basic_string@_WU?$char_traits@_W@std@@V?$allocator@_W@2@@std@@@std@@@?$_Tree_temp_node@V?$allocator@U?$_Tree_node@U?$pair@$$CBV?$basic_string@_WU?$char_traits@_W@std@@V?$allocator@_W@2@@std@@V12@@std@@PAX@std@@@std@@@std@@QAE@AAV?$allocator@U?$_Tree_node@U?$pair@$$CBV?$basic_string@_WU?$char_traits@_W@std@@V?$allocator@_W@2@@std@@V12@@std@@PAX@std@@@1@PAU?$_Tree_node@U?$pair@$$CBV?$basic_string@_WU?$char_traits@_W@std@@V?$allocator@_W@2@@std@@V12@@std@@PAX@1@$$QAU?$pair@PB_WV?$basic_string@_WU?$char_traits@_W@std@@V?$allocator@_W@2@@std@@@1@@Z 00422e68 f i resource_version_info_reader.obj
 0001:00021eb4       ??$?0U?$pair@PB_WV?$map@V?$basic_string@_WU?$char_traits@_W@std@@V?$allocator@_W@2@@std@@V12@U?$less@V?$basic_string@_WU?$char_traits@_W@std@@V?$allocator@_W@2@@std@@@2@V?$allocator@U?$pair@$$CBV?$basic_string@_WU?$char_traits@_W@std@@V?$allocator@_W@2@@std@@V12@@std@@@2@@std@@@std@@@?$_Tree_temp_node@V?$allocator@U?$_Tree_node@U?$pair@$$CBV?$basic_string@_WU?$char_traits@_W@std@@V?$allocator@_W@2@@std@@V?$map@V?$basic_string@_WU?$char_traits@_W@std@@V?$allocator@_W@2@@std@@V12@U?$less@V?$basic_string@_WU?$char_traits@_W@std@@V?$allocator@_W@2@@std@@@2@V?$allocator@U?$pair@$$CBV?$basic_string@_WU?$char_traits@_W@std@@V?$allocator@_W@2@@std@@V12@@std@@@2@@2@@std@@PAX@std@@@std@@@std@@QAE@AAV?$allocator@U?$_Tree_node@U?$pair@$$CBV?$basic_string@_WU?$char_traits@_W@std@@V?$allocator@_W@2@@std@@V?$map@V?$basic_string@_WU?$char_traits@_W@std@@V?$allocator@_W@2@@std@@V12@U?$less@V?$basic_string@_WU?$char_traits@_W@std@@V?$allocator@_W@2@@std@@@2@V?$allocator@U?$pair@$$CBV?$basic_string@_WU?$char_traits@_W@std@@V?$allocator@_W@2@@std@@V12@@std@@@2@@2@@std@@PAX@std@@@1@PAU?$_Tree_node@U?$pair@$$CBV?$basic_string@_WU?$char_traits@_W@std@@V?$allocator@_W@2@@std@@V?$map@V?$basic_string@_WU?$char_traits@_W@std@@V?$allocator@_W@2@@std@@V12@U?$less@V?$basic_string@_WU?$char_traits@_W@std@@V?$allocator@_W@2@@std@@@2@V?$allocator@U?$pair@$$CBV?$basic_string@_WU?$char_traits@_W@std@@V?$allocator@_W@2@@std@@V12@@std@@@2@@2@@std@@PAX@1@$$QAU?$pair@PB_WV?$map@V?$basic_string@_WU?$char_traits@_W@std@@V?$allocator@_W@2@@std@@V12@U?$less@V?$basic_string@_WU?$char_traits@_W@std@@V?$allocator@_W@2@@std@@@2@V?$allocator@U?$pair@$$CBV?$basic_string@_WU?$char_traits@_W@std@@V?$allocator@_W@2@@std@@V12@@std@@@2@@std@@@1@@Z 00422eb4 f i resource_version_info_reader.obj
 0001:00021f00       ??$?0V?$allocator@U?$_Tree_node@U?$pair@$$CBV?$basic_string@_WU?$char_traits@_W@std@@V?$allocator@_W@2@@std@@V12@@std@@PAX@std@@@std@@@?$_Tree@V?$_Tmap_traits@V?$basic_string@_WU?$char_traits@_W@std@@V?$allocator@_W@2@@std@@V12@U?$less@V?$basic_string@_WU?$char_traits@_W@std@@V?$allocator@_W@2@@std@@@2@V?$allocator@U?$pair@$$CBV?$basic_string@_WU?$char_traits@_W@std@@V?$allocator@_W@2@@std@@V12@@std@@@2@$0A@@std@@@std@@QAE@ABV01@$$QAV?$allocator@U?$_Tree_node@U?$pair@$$CBV?$basic_string@_WU?$char_traits@_W@std@@V?$allocator@_W@2@@std@@V12@@std@@PAX@std@@@1@@Z 00422f00 f i resource_version_info_reader.obj
 0001:00021f29       ??$?8_WU?$char_traits@_W@std@@V?$allocator@_W@1@@std@@YG_NABV?$basic_string@_WU?$char_traits@_W@std@@V?$allocator@_W@2@@0@QB_W@Z 00422f29 f i resource_version_info_reader.obj
 0001:00021f39       ??$?9_WU?$char_traits@_W@std@@V?$allocator@_W@1@@std@@YG_NABV?$basic_string@_WU?$char_traits@_W@std@@V?$allocator@_W@2@@0@QB_W@Z 00422f39 f i resource_version_info_reader.obj
 0001:00021f4b       ??$_Buyheadnode@V?$allocator@U?$_Tree_node@U?$pair@$$CBV?$basic_string@_WU?$char_traits@_W@std@@V?$allocator@_W@2@@std@@V12@@std@@PAX@std@@@std@@@?$_Tree_node@U?$pair@$$CBV?$basic_string@_WU?$char_traits@_W@std@@V?$allocator@_W@2@@std@@V12@@std@@PAX@std@@SGPAU01@AAV?$allocator@U?$_Tree_node@U?$pair@$$CBV?$basic_string@_WU?$char_traits@_W@std@@V?$allocator@_W@2@@std@@V12@@std@@PAX@std@@@1@@Z 00422f4b f i resource_version_info_reader.obj
 0001:00021f63       ??$_Buynode@V?$allocator@U?$_Tree_node@U?$pair@$$CBV?$basic_string@_WU?$char_traits@_W@std@@V?$allocator@_W@2@@std@@V12@@std@@PAX@std@@@std@@AAU?$pair@$$CBV?$basic_string@_WU?$char_traits@_W@std@@V?$allocator@_W@2@@std@@V12@@2@@?$_Tree_node@U?$pair@$$CBV?$basic_string@_WU?$char_traits@_W@std@@V?$allocator@_W@2@@std@@V12@@std@@PAX@std@@SGPAU01@AAV?$allocator@U?$_Tree_node@U?$pair@$$CBV?$basic_string@_WU?$char_traits@_W@std@@V?$allocator@_W@2@@std@@V12@@std@@PAX@std@@@1@PAU01@AAU?$pair@$$CBV?$basic_string@_WU?$char_traits@_W@std@@V?$allocator@_W@2@@std@@V12@@1@@Z 00422f63 f i resource_version_info_reader.obj
 0001:00021f91       ??$_Construct_in_place@PAU?$_Tree_node@U?$pair@$$CBGG@std@@PAX@std@@AAPAU12@@std@@YGXAAPAU?$_Tree_node@U?$pair@$$CBGG@std@@PAX@0@0@Z 00422f91 f i resource_version_info_reader.obj
 0001:00021fa0       ??$_Construct_in_place@PAU?$_Tree_node@U?$pair@$$CBV?$basic_string@_WU?$char_traits@_W@std@@V?$allocator@_W@2@@std@@V12@@std@@PAX@std@@AAPAU12@@std@@YGXAAPAU?$_Tree_node@U?$pair@$$CBV?$basic_string@_WU?$char_traits@_W@std@@V?$allocator@_W@2@@std@@V12@@std@@PAX@0@0@Z 00422fa0 f i resource_version_info_reader.obj
 0001:00021faf       ??$_Construct_in_place@PAU?$_Tree_node@U?$pair@$$CBV?$basic_string@_WU?$char_traits@_W@std@@V?$allocator@_W@2@@std@@V12@@std@@PAX@std@@ABQAU12@@std@@YGXAAPAU?$_Tree_node@U?$pair@$$CBV?$basic_string@_WU?$char_traits@_W@std@@V?$allocator@_W@2@@std@@V12@@std@@PAX@0@ABQAU10@@Z 00422faf f i resource_version_info_reader.obj
 0001:00021fbe       ??$_Construct_in_place@PAU?$_Tree_node@U?$pair@$$CBV?$basic_string@_WU?$char_traits@_W@std@@V?$allocator@_W@2@@std@@V?$map@V?$basic_string@_WU?$char_traits@_W@std@@V?$allocator@_W@2@@std@@V12@U?$less@V?$basic_string@_WU?$char_traits@_W@std@@V?$allocator@_W@2@@std@@@2@V?$allocator@U?$pair@$$CBV?$basic_string@_WU?$char_traits@_W@std@@V?$allocator@_W@2@@std@@V12@@std@@@2@@2@@std@@PAX@std@@AAPAU12@@std@@YGXAAPAU?$_Tree_node@U?$pair@$$CBV?$basic_string@_WU?$char_traits@_W@std@@V?$allocator@_W@2@@std@@V?$map@V?$basic_string@_WU?$char_traits@_W@std@@V?$allocator@_W@2@@std@@V12@U?$less@V?$basic_string@_WU?$char_traits@_W@std@@V?$allocator@_W@2@@std@@@2@V?$allocator@U?$pair@$$CBV?$basic_string@_WU?$char_traits@_W@std@@V?$allocator@_W@2@@std@@V12@@std@@@2@@2@@std@@PAX@0@0@Z 00422fbe f i resource_version_info_reader.obj
 0001:00021fcd       ??$_Copy@U_Copy_tag@?$_Tree@V?$_Tmap_traits@V?$basic_string@_WU?$char_traits@_W@std@@V?$allocator@_W@2@@std@@V12@U?$less@V?$basic_string@_WU?$char_traits@_W@std@@V?$allocator@_W@2@@std@@@2@V?$allocator@U?$pair@$$CBV?$basic_string@_WU?$char_traits@_W@std@@V?$allocator@_W@2@@std@@V12@@std@@@2@$0A@@std@@@std@@@?$_Tree@V?$_Tmap_traits@V?$basic_string@_WU?$char_traits@_W@std@@V?$allocator@_W@2@@std@@V12@U?$less@V?$basic_string@_WU?$char_traits@_W@std@@V?$allocator@_W@2@@std@@@2@V?$allocator@U?$pair@$$CBV?$basic_string@_WU?$char_traits@_W@std@@V?$allocator@_W@2@@std@@V12@@std@@@2@$0A@@std@@@std@@IAEXABV01@U_Copy_tag@01@@Z 00422fcd f i resource_version_info_reader.obj
 0001:00022026       ??$_Copy_nodes@U_Copy_tag@?$_Tree@V?$_Tmap_traits@V?$basic_string@_WU?$char_traits@_W@std@@V?$allocator@_W@2@@std@@V12@U?$less@V?$basic_string@_WU?$char_traits@_W@std@@V?$allocator@_W@2@@std@@@2@V?$allocator@U?$pair@$$CBV?$basic_string@_WU?$char_traits@_W@std@@V?$allocator@_W@2@@std@@V12@@std@@@2@$0A@@std@@@std@@@?$_Tree@V?$_Tmap_traits@V?$basic_string@_WU?$char_traits@_W@std@@V?$allocator@_W@2@@std@@V12@U?$less@V?$basic_string@_WU?$char_traits@_W@std@@V?$allocator@_W@2@@std@@@2@V?$allocator@U?$pair@$$CBV?$basic_string@_WU?$char_traits@_W@std@@V?$allocator@_W@2@@std@@V12@@std@@@2@$0A@@std@@@std@@IAEPAU?$_Tree_node@U?$pair@$$CBV?$basic_string@_WU?$char_traits@_W@std@@V?$allocator@_W@2@@std@@V12@@std@@PAX@1@PAU21@0U_Copy_tag@01@@Z 00423026 f i resource_version_info_reader.obj
 0001:000220cd       ??$_Destroy_in_place@PAU?$_Tree_node@U?$pair@$$CBGG@std@@PAX@std@@@std@@YGXAAPAU?$_Tree_node@U?$pair@$$CBGG@std@@PAX@0@@Z 004230cd f i resource_version_info_reader.obj
 0001:000220d0       ??$_Destroy_in_place@PAU?$_Tree_node@U?$pair@$$CBV?$basic_string@_WU?$char_traits@_W@std@@V?$allocator@_W@2@@std@@V12@@std@@PAX@std@@@std@@YGXAAPAU?$_Tree_node@U?$pair@$$CBV?$basic_string@_WU?$char_traits@_W@std@@V?$allocator@_W@2@@std@@V12@@std@@PAX@0@@Z 004230d0 f i resource_version_info_reader.obj
 0001:000220d3       ??$_Destroy_in_place@PAU?$_Tree_node@U?$pair@$$CBV?$basic_string@_WU?$char_traits@_W@std@@V?$allocator@_W@2@@std@@V?$map@V?$basic_string@_WU?$char_traits@_W@std@@V?$allocator@_W@2@@std@@V12@U?$less@V?$basic_string@_WU?$char_traits@_W@std@@V?$allocator@_W@2@@std@@@2@V?$allocator@U?$pair@$$CBV?$basic_string@_WU?$char_traits@_W@std@@V?$allocator@_W@2@@std@@V12@@std@@@2@@2@@std@@PAX@std@@@std@@YGXAAPAU?$_Tree_node@U?$pair@$$CBV?$basic_string@_WU?$char_traits@_W@std@@V?$allocator@_W@2@@std@@V?$map@V?$basic_string@_WU?$char_traits@_W@std@@V?$allocator@_W@2@@std@@V12@U?$less@V?$basic_string@_WU?$char_traits@_W@std@@V?$allocator@_W@2@@std@@@2@V?$allocator@U?$pair@$$CBV?$basic_string@_WU?$char_traits@_W@std@@V?$allocator@_W@2@@std@@V12@@std@@@2@@2@@std@@PAX@0@@Z 004230d3 f i resource_version_info_reader.obj
 0001:000220d6       ??$_Emplace@U?$pair@GG@std@@@?$_Tree@V?$_Tmap_traits@GGU?$less@G@std@@V?$allocator@U?$pair@$$CBGG@std@@@2@$00@std@@@std@@IAE?AU?$pair@PAU?$_Tree_node@U?$pair@$$CBGG@std@@PAX@std@@_N@1@$$QAU?$pair@GG@1@@Z 004230d6 f i resource_version_info_reader.obj
 0001:00022141       ??$_Emplace@U?$pair@PB_WV?$basic_string@_WU?$char_traits@_W@std@@V?$allocator@_W@2@@std@@@std@@@?$_Tree@V?$_Tmap_traits@V?$basic_string@_WU?$char_traits@_W@std@@V?$allocator@_W@2@@std@@V12@U?$less@V?$basic_string@_WU?$char_traits@_W@std@@V?$allocator@_W@2@@std@@@2@V?$allocator@U?$pair@$$CBV?$basic_string@_WU?$char_traits@_W@std@@V?$allocator@_W@2@@std@@V12@@std@@@2@$0A@@std@@@std@@IAE?AU?$pair@PAU?$_Tree_node@U?$pair@$$CBV?$basic_string@_WU?$char_traits@_W@std@@V?$allocator@_W@2@@std@@V12@@std@@PAX@std@@_N@1@$$QAU?$pair@PB_WV?$basic_string@_WU?$char_traits@_W@std@@V?$allocator@_W@2@@std@@@1@@Z 00423141 f i resource_version_info_reader.obj
 0001:000221d8       ??$_Emplace@U?$pair@PB_WV?$map@V?$basic_string@_WU?$char_traits@_W@std@@V?$allocator@_W@2@@std@@V12@U?$less@V?$basic_string@_WU?$char_traits@_W@std@@V?$allocator@_W@2@@std@@@2@V?$allocator@U?$pair@$$CBV?$basic_string@_WU?$char_traits@_W@std@@V?$allocator@_W@2@@std@@V12@@std@@@2@@std@@@std@@@?$_Tree@V?$_Tmap_traits@V?$basic_string@_WU?$char_traits@_W@std@@V?$allocator@_W@2@@std@@V?$map@V?$basic_string@_WU?$char_traits@_W@std@@V?$allocator@_W@2@@std@@V12@U?$less@V?$basic_string@_WU?$char_traits@_W@std@@V?$allocator@_W@2@@std@@@2@V?$allocator@U?$pair@$$CBV?$basic_string@_WU?$char_traits@_W@std@@V?$allocator@_W@2@@std@@V12@@std@@@2@@2@U?$less@V?$basic_string@_WU?$char_traits@_W@std@@V?$allocator@_W@2@@std@@@2@V?$allocator@U?$pair@$$CBV?$basic_string@_WU?$char_traits@_W@std@@V?$allocator@_W@2@@std@@V?$map@V?$basic_string@_WU?$char_traits@_W@std@@V?$allocator@_W@2@@std@@V12@U?$less@V?$basic_string@_WU?$char_traits@_W@std@@V?$allocator@_W@2@@std@@@2@V?$allocator@U?$pair@$$CBV?$basic_string@_WU?$char_traits@_W@std@@V?$allocator@_W@2@@std@@V12@@std@@@2@@2@@std@@@2@$0A@@std@@@std@@IAE?AU?$pair@PAU?$_Tree_node@U?$pair@$$CBV?$basic_string@_WU?$char_traits@_W@std@@V?$allocator@_W@2@@std@@V?$map@V?$basic_string@_WU?$char_traits@_W@std@@V?$allocator@_W@2@@std@@V12@U?$less@V?$basic_string@_WU?$char_traits@_W@std@@V?$allocator@_W@2@@std@@@2@V?$allocator@U?$pair@$$CBV?$basic_string@_WU?$char_traits@_W@std@@V?$allocator@_W@2@@std@@V12@@std@@@2@@2@@std@@PAX@std@@_N@1@$$QAU?$pair@PB_WV?$map@V?$basic_string@_WU?$char_traits@_W@std@@V?$allocator@_W@2@@std@@V12@U?$less@V?$basic_string@_WU?$char_traits@_W@std@@V?$allocator@_W@2@@std@@@2@V?$allocator@U?$pair@$$CBV?$basic_string@_WU?$char_traits@_W@std@@V?$allocator@_W@2@@std@@V12@@std@@@2@@std@@@1@@Z 004231d8 f i resource_version_info_reader.obj
 0001:0002226f       ??$_Erase_head@V?$allocator@U?$_Tree_node@U?$pair@$$CBV?$basic_string@_WU?$char_traits@_W@std@@V?$allocator@_W@2@@std@@V12@@std@@PAX@std@@@std@@@?$_Tree_val@U?$_Tree_simple_types@U?$pair@$$CBV?$basic_string@_WU?$char_traits@_W@std@@V?$allocator@_W@2@@std@@V12@@std@@@std@@@std@@QAEXAAV?$allocator@U?$_Tree_node@U?$pair@$$CBV?$basic_string@_WU?$char_traits@_W@std@@V?$allocator@_W@2@@std@@V12@@std@@PAX@std@@@1@@Z 0042326f f i resource_version_info_reader.obj
 0001:0002228f       ??$_Erase_tree@V?$allocator@U?$_Tree_node@U?$pair@$$CBV?$basic_string@_WU?$char_traits@_W@std@@V?$allocator@_W@2@@std@@V12@@std@@PAX@std@@@std@@@?$_Tree_val@U?$_Tree_simple_types@U?$pair@$$CBV?$basic_string@_WU?$char_traits@_W@std@@V?$allocator@_W@2@@std@@V12@@std@@@std@@@std@@QAEXAAV?$allocator@U?$_Tree_node@U?$pair@$$CBV?$basic_string@_WU?$char_traits@_W@std@@V?$allocator@_W@2@@std@@V12@@std@@PAX@std@@@1@PAU?$_Tree_node@U?$pair@$$CBV?$basic_string@_WU?$char_traits@_W@std@@V?$allocator@_W@2@@std@@V12@@std@@PAX@1@@Z 0042328f f i resource_version_info_reader.obj
 0001:000222be       ??$_Erase_tree_and_orphan@V?$allocator@U?$_Tree_node@U?$pair@$$CBV?$basic_string@_WU?$char_traits@_W@std@@V?$allocator@_W@2@@std@@V12@@std@@PAX@std@@@std@@@?$_Tree_val@U?$_Tree_simple_types@U?$pair@$$CBV?$basic_string@_WU?$char_traits@_W@std@@V?$allocator@_W@2@@std@@V12@@std@@@std@@@std@@QAEXAAV?$allocator@U?$_Tree_node@U?$pair@$$CBV?$basic_string@_WU?$char_traits@_W@std@@V?$allocator@_W@2@@std@@V12@@std@@PAX@std@@@1@PAU?$_Tree_node@U?$pair@$$CBV?$basic_string@_WU?$char_traits@_W@std@@V?$allocator@_W@2@@std@@V12@@std@@PAX@1@@Z 004232be f i resource_version_info_reader.obj
 0001:000222ed       ??$_Find_lower_bound@V?$basic_string@_WU?$char_traits@_W@std@@V?$allocator@_W@2@@std@@@?$_Tree@V?$_Tmap_traits@V?$basic_string@_WU?$char_traits@_W@std@@V?$allocator@_W@2@@std@@V12@U?$less@V?$basic_string@_WU?$char_traits@_W@std@@V?$allocator@_W@2@@std@@@2@V?$allocator@U?$pair@$$CBV?$basic_string@_WU?$char_traits@_W@std@@V?$allocator@_W@2@@std@@V12@@std@@@2@$0A@@std@@@std@@IBE?AU?$_Tree_find_result@PAU?$_Tree_node@U?$pair@$$CBV?$basic_string@_WU?$char_traits@_W@std@@V?$allocator@_W@2@@std@@V12@@std@@PAX@std@@@1@ABV?$basic_string@_WU?$char_traits@_W@std@@V?$allocator@_W@2@@1@@Z 004232ed f i resource_version_info_reader.obj
 0001:0002233b       ??$_Find_lower_bound@V?$basic_string@_WU?$char_traits@_W@std@@V?$allocator@_W@2@@std@@@?$_Tree@V?$_Tmap_traits@V?$basic_string@_WU?$char_traits@_W@std@@V?$allocator@_W@2@@std@@V?$map@V?$basic_string@_WU?$char_traits@_W@std@@V?$allocator@_W@2@@std@@V12@U?$less@V?$basic_string@_WU?$char_traits@_W@std@@V?$allocator@_W@2@@std@@@2@V?$allocator@U?$pair@$$CBV?$basic_string@_WU?$char_traits@_W@std@@V?$allocator@_W@2@@std@@V12@@std@@@2@@2@U?$less@V?$basic_string@_WU?$char_traits@_W@std@@V?$allocator@_W@2@@std@@@2@V?$allocator@U?$pair@$$CBV?$basic_string@_WU?$char_traits@_W@std@@V?$allocator@_W@2@@std@@V?$map@V?$basic_string@_WU?$char_traits@_W@std@@V?$allocator@_W@2@@std@@V12@U?$less@V?$basic_string@_WU?$char_traits@_W@std@@V?$allocator@_W@2@@std@@@2@V?$allocator@U?$pair@$$CBV?$basic_string@_WU?$char_traits@_W@std@@V?$allocator@_W@2@@std@@V12@@std@@@2@@2@@std@@@2@$0A@@std@@@std@@IBE?AU?$_Tree_find_result@PAU?$_Tree_node@U?$pair@$$CBV?$basic_string@_WU?$char_traits@_W@std@@V?$allocator@_W@2@@std@@V?$map@V?$basic_string@_WU?$char_traits@_W@std@@V?$allocator@_W@2@@std@@V12@U?$less@V?$basic_string@_WU?$char_traits@_W@std@@V?$allocator@_W@2@@std@@@2@V?$allocator@U?$pair@$$CBV?$basic_string@_WU?$char_traits@_W@std@@V?$allocator@_W@2@@std@@V12@@std@@@2@@2@@std@@PAX@std@@@1@ABV?$basic_string@_WU?$char_traits@_W@std@@V?$allocator@_W@2@@1@@Z 0042333b f i resource_version_info_reader.obj
 0001:00022389       ??$_Find_upper_bound@G@?$_Tree@V?$_Tmap_traits@GGU?$less@G@std@@V?$allocator@U?$pair@$$CBGG@std@@@2@$00@std@@@std@@IBE?AU?$_Tree_find_result@PAU?$_Tree_node@U?$pair@$$CBGG@std@@PAX@std@@@1@ABG@Z 00423389 f i resource_version_info_reader.obj
 0001:000223cd       ??$_Freenode@V?$allocator@U?$_Tree_node@U?$pair@$$CBV?$basic_string@_WU?$char_traits@_W@std@@V?$allocator@_W@2@@std@@V12@@std@@PAX@std@@@std@@@?$_Tree_node@U?$pair@$$CBV?$basic_string@_WU?$char_traits@_W@std@@V?$allocator@_W@2@@std@@V12@@std@@PAX@std@@SGXAAV?$allocator@U?$_Tree_node@U?$pair@$$CBV?$basic_string@_WU?$char_traits@_W@std@@V?$allocator@_W@2@@std@@V12@@std@@PAX@std@@@1@PAU01@@Z 004233cd f i resource_version_info_reader.obj
 0001:000223ea       ??$_Lower_bound_duplicate@V?$basic_string@_WU?$char_traits@_W@std@@V?$allocator@_W@2@@std@@@?$_Tree@V?$_Tmap_traits@V?$basic_string@_WU?$char_traits@_W@std@@V?$allocator@_W@2@@std@@V12@U?$less@V?$basic_string@_WU?$char_traits@_W@std@@V?$allocator@_W@2@@std@@@2@V?$allocator@U?$pair@$$CBV?$basic_string@_WU?$char_traits@_W@std@@V?$allocator@_W@2@@std@@V12@@std@@@2@$0A@@std@@@std@@IBE_NQAU?$_Tree_node@U?$pair@$$CBV?$basic_string@_WU?$char_traits@_W@std@@V?$allocator@_W@2@@std@@V12@@std@@PAX@1@ABV?$basic_string@_WU?$char_traits@_W@std@@V?$allocator@_W@2@@1@@Z 004233ea f i resource_version_info_reader.obj
 0001:0002240e       ??$_Lower_bound_duplicate@V?$basic_string@_WU?$char_traits@_W@std@@V?$allocator@_W@2@@std@@@?$_Tree@V?$_Tmap_traits@V?$basic_string@_WU?$char_traits@_W@std@@V?$allocator@_W@2@@std@@V?$map@V?$basic_string@_WU?$char_traits@_W@std@@V?$allocator@_W@2@@std@@V12@U?$less@V?$basic_string@_WU?$char_traits@_W@std@@V?$allocator@_W@2@@std@@@2@V?$allocator@U?$pair@$$CBV?$basic_string@_WU?$char_traits@_W@std@@V?$allocator@_W@2@@std@@V12@@std@@@2@@2@U?$less@V?$basic_string@_WU?$char_traits@_W@std@@V?$allocator@_W@2@@std@@@2@V?$allocator@U?$pair@$$CBV?$basic_string@_WU?$char_traits@_W@std@@V?$allocator@_W@2@@std@@V?$map@V?$basic_string@_WU?$char_traits@_W@std@@V?$allocator@_W@2@@std@@V12@U?$less@V?$basic_string@_WU?$char_traits@_W@std@@V?$allocator@_W@2@@std@@@2@V?$allocator@U?$pair@$$CBV?$basic_string@_WU?$char_traits@_W@std@@V?$allocator@_W@2@@std@@V12@@std@@@2@@2@@std@@@2@$0A@@std@@@std@@IBE_NQAU?$_Tree_node@U?$pair@$$CBV?$basic_string@_WU?$char_traits@_W@std@@V?$allocator@_W@2@@std@@V?$map@V?$basic_string@_WU?$char_traits@_W@std@@V?$allocator@_W@2@@std@@V12@U?$less@V?$basic_string@_WU?$char_traits@_W@std@@V?$allocator@_W@2@@std@@@2@V?$allocator@U?$pair@$$CBV?$basic_string@_WU?$char_traits@_W@std@@V?$allocator@_W@2@@std@@V12@@std@@@2@@2@@std@@PAX@1@ABV?$basic_string@_WU?$char_traits@_W@std@@V?$allocator@_W@2@@1@@Z 0042340e f i resource_version_info_reader.obj
 0001:00022432       ??$_Swap_adl@PAU?$_Tree_node@U?$pair@$$CBV?$basic_string@_WU?$char_traits@_W@std@@V?$allocator@_W@2@@std@@V12@@std@@PAX@std@@@std@@YGXAAPAU?$_Tree_node@U?$pair@$$CBV?$basic_string@_WU?$char_traits@_W@std@@V?$allocator@_W@2@@std@@V12@@std@@PAX@0@0@Z 00423432 f i resource_version_info_reader.obj
 0001:00022447       ??$_Swap_adl@U?$less@V?$basic_string@_WU?$char_traits@_W@std@@V?$allocator@_W@2@@std@@@std@@@std@@YGXAAU?$less@V?$basic_string@_WU?$char_traits@_W@std@@V?$allocator@_W@2@@std@@@0@0@Z 00423447 f i resource_version_info_reader.obj
 0001:0002244a       ??$align_up@G@pe_utils@pe_bliss@@SGGGI@Z 0042344a f i resource_version_info_reader.obj
 0001:0002247a       ??$exchange@PAU?$_Tree_node@U?$pair@$$CBGG@std@@PAX@std@@$$T@std@@YGPAU?$_Tree_node@U?$pair@$$CBGG@std@@PAX@0@AAPAU10@$$QA$$T@Z 0042347a f i resource_version_info_reader.obj
 0001:0002248b       ??$exchange@PAU?$_Tree_node@U?$pair@$$CBV?$basic_string@_WU?$char_traits@_W@std@@V?$allocator@_W@2@@std@@V12@@std@@PAX@std@@$$T@std@@YGPAU?$_Tree_node@U?$pair@$$CBV?$basic_string@_WU?$char_traits@_W@std@@V?$allocator@_W@2@@std@@V12@@std@@PAX@0@AAPAU10@$$QA$$T@Z 0042348b f i resource_version_info_reader.obj
 0001:0002249c       ??$exchange@PAU?$_Tree_node@U?$pair@$$CBV?$basic_string@_WU?$char_traits@_W@std@@V?$allocator@_W@2@@std@@V12@@std@@PAX@std@@AAPAU12@@std@@YGPAU?$_Tree_node@U?$pair@$$CBV?$basic_string@_WU?$char_traits@_W@std@@V?$allocator@_W@2@@std@@V12@@std@@PAX@0@AAPAU10@0@Z 0042349c f i resource_version_info_reader.obj
 0001:000224ad       ??$exchange@PAU?$_Tree_node@U?$pair@$$CBV?$basic_string@_WU?$char_traits@_W@std@@V?$allocator@_W@2@@std@@V?$map@V?$basic_string@_WU?$char_traits@_W@std@@V?$allocator@_W@2@@std@@V12@U?$less@V?$basic_string@_WU?$char_traits@_W@std@@V?$allocator@_W@2@@std@@@2@V?$allocator@U?$pair@$$CBV?$basic_string@_WU?$char_traits@_W@std@@V?$allocator@_W@2@@std@@V12@@std@@@2@@2@@std@@PAX@std@@$$T@std@@YGPAU?$_Tree_node@U?$pair@$$CBV?$basic_string@_WU?$char_traits@_W@std@@V?$allocator@_W@2@@std@@V?$map@V?$basic_string@_WU?$char_traits@_W@std@@V?$allocator@_W@2@@std@@V12@U?$less@V?$basic_string@_WU?$char_traits@_W@std@@V?$allocator@_W@2@@std@@@2@V?$allocator@U?$pair@$$CBV?$basic_string@_WU?$char_traits@_W@std@@V?$allocator@_W@2@@std@@V12@@std@@@2@@2@@std@@PAX@0@AAPAU10@$$QA$$T@Z 004234ad f i resource_version_info_reader.obj
 0001:000224be       ??$is_null_terminated@G@pe_utils@pe_bliss@@SG_NPBGI@Z 004234be f i resource_version_info_reader.obj
 0001:000224e5       ??$swap@PAU?$_Tree_node@U?$pair@$$CBV?$basic_string@_WU?$char_traits@_W@std@@V?$allocator@_W@2@@std@@V12@@std@@PAX@std@@X@std@@YGXAAPAU?$_Tree_node@U?$pair@$$CBV?$basic_string@_WU?$char_traits@_W@std@@V?$allocator@_W@2@@std@@V12@@std@@PAX@0@0@Z 004234e5 f i resource_version_info_reader.obj
 0001:000224fa       ??$swap@U?$less@V?$basic_string@_WU?$char_traits@_W@std@@V?$allocator@_W@2@@std@@@std@@X@std@@YGXAAU?$less@V?$basic_string@_WU?$char_traits@_W@std@@V?$allocator@_W@2@@std@@@0@0@Z 004234fa f i resource_version_info_reader.obj
 0001:000224fd       ??0?$_Tree@V?$_Tmap_traits@V?$basic_string@_WU?$char_traits@_W@std@@V?$allocator@_W@2@@std@@V12@U?$less@V?$basic_string@_WU?$char_traits@_W@std@@V?$allocator@_W@2@@std@@@2@V?$allocator@U?$pair@$$CBV?$basic_string@_WU?$char_traits@_W@std@@V?$allocator@_W@2@@std@@V12@@std@@@2@$0A@@std@@@std@@QAE@$$QAV01@@Z 004234fd f i resource_version_info_reader.obj
 0001:0002252b       ??0?$basic_string@_WU?$char_traits@_W@std@@V?$allocator@_W@2@@std@@QAE@QB_W@Z 0042352b f i resource_version_info_reader.obj
 0001:0002254d       ??0?$pair@$$CBV?$basic_string@_WU?$char_traits@_W@std@@V?$allocator@_W@2@@std@@V12@@std@@QAE@ABU01@@Z 0042354d f i resource_version_info_reader.obj
 0001:0002257e       ??0resource_version_info_reader@pe_bliss@@QAE@ABVpe_resource_viewer@1@@Z 0042357e f   resource_version_info_reader.obj
 0001:00022589       ??1?$_Tree_temp_node@V?$allocator@U?$_Tree_node@U?$pair@$$CBV?$basic_string@_WU?$char_traits@_W@std@@V?$allocator@_W@2@@std@@V12@@std@@PAX@std@@@std@@@std@@QAE@XZ 00423589 f i resource_version_info_reader.obj
 0001:000225b0       ??1?$_Tree_temp_node@V?$allocator@U?$_Tree_node@U?$pair@$$CBV?$basic_string@_WU?$char_traits@_W@std@@V?$allocator@_W@2@@std@@V?$map@V?$basic_string@_WU?$char_traits@_W@std@@V?$allocator@_W@2@@std@@V12@U?$less@V?$basic_string@_WU?$char_traits@_W@std@@V?$allocator@_W@2@@std@@@2@V?$allocator@U?$pair@$$CBV?$basic_string@_WU?$char_traits@_W@std@@V?$allocator@_W@2@@std@@V12@@std@@@2@@2@@std@@PAX@std@@@std@@@std@@QAE@XZ 004235b0 f i resource_version_info_reader.obj
 0001:000225d7       ??_G?$pair@$$CBV?$basic_string@_WU?$char_traits@_W@std@@V?$allocator@_W@2@@std@@V12@@std@@QAEPAXI@Z 004235d7 f i resource_version_info_reader.obj
 0001:00022600       ??_G?$pair@$$CBV?$basic_string@_WU?$char_traits@_W@std@@V?$allocator@_W@2@@std@@V?$map@V?$basic_string@_WU?$char_traits@_W@std@@V?$allocator@_W@2@@std@@V12@U?$less@V?$basic_string@_WU?$char_traits@_W@std@@V?$allocator@_W@2@@std@@@2@V?$allocator@U?$pair@$$CBV?$basic_string@_WU?$char_traits@_W@std@@V?$allocator@_W@2@@std@@V12@@std@@@2@@2@@std@@QAEPAXI@Z 00423600 f i resource_version_info_reader.obj
 0001:0002262a       ?_Equal@?$basic_string@_WU?$char_traits@_W@std@@V?$allocator@_W@2@@std@@QBE_NQB_W@Z 0042362a f i resource_version_info_reader.obj
 0001:0002265d       ?_Getal@?$_Tree@V?$_Tmap_traits@V?$basic_string@_WU?$char_traits@_W@std@@V?$allocator@_W@2@@std@@V12@U?$less@V?$basic_string@_WU?$char_traits@_W@std@@V?$allocator@_W@2@@std@@@2@V?$allocator@U?$pair@$$CBV?$basic_string@_WU?$char_traits@_W@std@@V?$allocator@_W@2@@std@@V12@@std@@@2@$0A@@std@@@std@@IAEAAV?$allocator@U?$_Tree_node@U?$pair@$$CBV?$basic_string@_WU?$char_traits@_W@std@@V?$allocator@_W@2@@std@@V12@@std@@PAX@std@@@2@XZ 0042365d f i resource_version_info_reader.obj
 0001:00022660       ?_Insert_node@?$_Tree_val@U?$_Tree_simple_types@U?$pair@$$CBGG@std@@@std@@@std@@QAEPAU?$_Tree_node@U?$pair@$$CBGG@std@@PAX@2@U?$_Tree_id@PAU?$_Tree_node@U?$pair@$$CBGG@std@@PAX@std@@@2@QAU32@@Z 00423660 f i resource_version_info_reader.obj
 0001:0002275f       ?_Insert_node@?$_Tree_val@U?$_Tree_simple_types@U?$pair@$$CBV?$basic_string@_WU?$char_traits@_W@std@@V?$allocator@_W@2@@std@@V12@@std@@@std@@@std@@QAEPAU?$_Tree_node@U?$pair@$$CBV?$basic_string@_WU?$char_traits@_W@std@@V?$allocator@_W@2@@std@@V12@@std@@PAX@2@U?$_Tree_id@PAU?$_Tree_node@U?$pair@$$CBV?$basic_string@_WU?$char_traits@_W@std@@V?$allocator@_W@2@@std@@V12@@std@@PAX@std@@@2@QAU32@@Z 0042375f f i resource_version_info_reader.obj
 0001:0002285e       ?_Insert_node@?$_Tree_val@U?$_Tree_simple_types@U?$pair@$$CBV?$basic_string@_WU?$char_traits@_W@std@@V?$allocator@_W@2@@std@@V?$map@V?$basic_string@_WU?$char_traits@_W@std@@V?$allocator@_W@2@@std@@V12@U?$less@V?$basic_string@_WU?$char_traits@_W@std@@V?$allocator@_W@2@@std@@@2@V?$allocator@U?$pair@$$CBV?$basic_string@_WU?$char_traits@_W@std@@V?$allocator@_W@2@@std@@V12@@std@@@2@@2@@std@@@std@@@std@@QAEPAU?$_Tree_node@U?$pair@$$CBV?$basic_string@_WU?$char_traits@_W@std@@V?$allocator@_W@2@@std@@V?$map@V?$basic_string@_WU?$char_traits@_W@std@@V?$allocator@_W@2@@std@@V12@U?$less@V?$basic_string@_WU?$char_traits@_W@std@@V?$allocator@_W@2@@std@@@2@V?$allocator@U?$pair@$$CBV?$basic_string@_WU?$char_traits@_W@std@@V?$allocator@_W@2@@std@@V12@@std@@@2@@2@@std@@PAX@2@U?$_Tree_id@PAU?$_Tree_node@U?$pair@$$CBV?$basic_string@_WU?$char_traits@_W@std@@V?$allocator@_W@2@@std@@V?$map@V?$basic_string@_WU?$char_traits@_W@std@@V?$allocator@_W@2@@std@@V12@U?$less@V?$basic_string@_WU?$char_traits@_W@std@@V?$allocator@_W@2@@std@@@2@V?$allocator@U?$pair@$$CBV?$basic_string@_WU?$char_traits@_W@std@@V?$allocator@_W@2@@std@@V12@@std@@@2@@2@@std@@PAX@std@@@2@QAU32@@Z 0042385e f i resource_version_info_reader.obj
 0001:0002295d       ?_Lrotate@?$_Tree_val@U?$_Tree_simple_types@U?$pair@$$CBGG@std@@@std@@@std@@QAEXPAU?$_Tree_node@U?$pair@$$CBGG@std@@PAX@2@@Z 0042395d f i resource_version_info_reader.obj
 0001:0002299e       ?_Lrotate@?$_Tree_val@U?$_Tree_simple_types@U?$pair@$$CBV?$basic_string@_WU?$char_traits@_W@std@@V?$allocator@_W@2@@std@@V12@@std@@@std@@@std@@QAEXPAU?$_Tree_node@U?$pair@$$CBV?$basic_string@_WU?$char_traits@_W@std@@V?$allocator@_W@2@@std@@V12@@std@@PAX@2@@Z 0042399e f i resource_version_info_reader.obj
 0001:000229df       ?_Lrotate@?$_Tree_val@U?$_Tree_simple_types@U?$pair@$$CBV?$basic_string@_WU?$char_traits@_W@std@@V?$allocator@_W@2@@std@@V?$map@V?$basic_string@_WU?$char_traits@_W@std@@V?$allocator@_W@2@@std@@V12@U?$less@V?$basic_string@_WU?$char_traits@_W@std@@V?$allocator@_W@2@@std@@@2@V?$allocator@U?$pair@$$CBV?$basic_string@_WU?$char_traits@_W@std@@V?$allocator@_W@2@@std@@V12@@std@@@2@@2@@std@@@std@@@std@@QAEXPAU?$_Tree_node@U?$pair@$$CBV?$basic_string@_WU?$char_traits@_W@std@@V?$allocator@_W@2@@std@@V?$map@V?$basic_string@_WU?$char_traits@_W@std@@V?$allocator@_W@2@@std@@V12@U?$less@V?$basic_string@_WU?$char_traits@_W@std@@V?$allocator@_W@2@@std@@@2@V?$allocator@U?$pair@$$CBV?$basic_string@_WU?$char_traits@_W@std@@V?$allocator@_W@2@@std@@V12@@std@@@2@@2@@std@@PAX@2@@Z 004239df f i resource_version_info_reader.obj
 0001:00022a20       ?_Min@?$_Tree_val@U?$_Tree_simple_types@U?$pair@$$CBV?$basic_string@_WU?$char_traits@_W@std@@V?$allocator@_W@2@@std@@V12@@std@@@std@@@std@@SGPAU?$_Tree_node@U?$pair@$$CBV?$basic_string@_WU?$char_traits@_W@std@@V?$allocator@_W@2@@std@@V12@@std@@PAX@2@PAU32@@Z 00423a20 f i resource_version_info_reader.obj
 0001:00022a3b       ?_Rrotate@?$_Tree_val@U?$_Tree_simple_types@U?$pair@$$CBGG@std@@@std@@@std@@QAEXPAU?$_Tree_node@U?$pair@$$CBGG@std@@PAX@2@@Z 00423a3b f i resource_version_info_reader.obj
 0001:00022a7e       ?_Rrotate@?$_Tree_val@U?$_Tree_simple_types@U?$pair@$$CBV?$basic_string@_WU?$char_traits@_W@std@@V?$allocator@_W@2@@std@@V12@@std@@@std@@@std@@QAEXPAU?$_Tree_node@U?$pair@$$CBV?$basic_string@_WU?$char_traits@_W@std@@V?$allocator@_W@2@@std@@V12@@std@@PAX@2@@Z 00423a7e f i resource_version_info_reader.obj
 0001:00022ac1       ?_Rrotate@?$_Tree_val@U?$_Tree_simple_types@U?$pair@$$CBV?$basic_string@_WU?$char_traits@_W@std@@V?$allocator@_W@2@@std@@V?$map@V?$basic_string@_WU?$char_traits@_W@std@@V?$allocator@_W@2@@std@@V12@U?$less@V?$basic_string@_WU?$char_traits@_W@std@@V?$allocator@_W@2@@std@@@2@V?$allocator@U?$pair@$$CBV?$basic_string@_WU?$char_traits@_W@std@@V?$allocator@_W@2@@std@@V12@@std@@@2@@2@@std@@@std@@@std@@QAEXPAU?$_Tree_node@U?$pair@$$CBV?$basic_string@_WU?$char_traits@_W@std@@V?$allocator@_W@2@@std@@V?$map@V?$basic_string@_WU?$char_traits@_W@std@@V?$allocator@_W@2@@std@@V12@U?$less@V?$basic_string@_WU?$char_traits@_W@std@@V?$allocator@_W@2@@std@@@2@V?$allocator@U?$pair@$$CBV?$basic_string@_WU?$char_traits@_W@std@@V?$allocator@_W@2@@std@@V12@@std@@@2@@2@@std@@PAX@2@@Z 00423ac1 f i resource_version_info_reader.obj
 0001:00022b04       ?assign@?$basic_string@_WU?$char_traits@_W@std@@V?$allocator@_W@2@@std@@QAEAAV12@QB_W@Z 00423b04 f i resource_version_info_reader.obj
 0001:00022b29       ?get_version_block_first_child_pos@resource_version_info_reader@pe_bliss@@CGIIIPB_W@Z 00423b29 f   resource_version_info_reader.obj
 0001:00022b8f       ?get_version_block_value_pos@resource_version_info_reader@pe_bliss@@CGIIPB_W@Z 00423b8f f   resource_version_info_reader.obj
 0001:00022bde       ?get_version_info@resource_version_info_reader@pe_bliss@@ABE?BVfile_version_info@2@AAV?$map@V?$basic_string@_WU?$char_traits@_W@std@@V?$allocator@_W@2@@std@@V?$map@V?$basic_string@_WU?$char_traits@_W@std@@V?$allocator@_W@2@@std@@V12@U?$less@V?$basic_string@_WU?$char_traits@_W@std@@V?$allocator@_W@2@@std@@@2@V?$allocator@U?$pair@$$CBV?$basic_string@_WU?$char_traits@_W@std@@V?$allocator@_W@2@@std@@V12@@std@@@2@@2@U?$less@V?$basic_string@_WU?$char_traits@_W@std@@V?$allocator@_W@2@@std@@@2@V?$allocator@U?$pair@$$CBV?$basic_string@_WU?$char_traits@_W@std@@V?$allocator@_W@2@@std@@V?$map@V?$basic_string@_WU?$char_traits@_W@std@@V?$allocator@_W@2@@std@@V12@U?$less@V?$basic_string@_WU?$char_traits@_W@std@@V?$allocator@_W@2@@std@@@2@V?$allocator@U?$pair@$$CBV?$basic_string@_WU?$char_traits@_W@std@@V?$allocator@_W@2@@std@@V12@@std@@@2@@2@@std@@@2@@std@@AAV?$multimap@GGU?$less@G@std@@V?$allocator@U?$pair@$$CBGG@std@@@2@@5@ABV?$basic_string@DU?$char_traits@D@std@@V?$allocator@D@2@@5@@Z 00423bde f   resource_version_info_reader.obj
 0001:000231b3       ?get_version_info@resource_version_info_reader@pe_bliss@@QBE?BVfile_version_info@2@AAV?$map@V?$basic_string@_WU?$char_traits@_W@std@@V?$allocator@_W@2@@std@@V?$map@V?$basic_string@_WU?$char_traits@_W@std@@V?$allocator@_W@2@@std@@V12@U?$less@V?$basic_string@_WU?$char_traits@_W@std@@V?$allocator@_W@2@@std@@@2@V?$allocator@U?$pair@$$CBV?$basic_string@_WU?$char_traits@_W@std@@V?$allocator@_W@2@@std@@V12@@std@@@2@@2@U?$less@V?$basic_string@_WU?$char_traits@_W@std@@V?$allocator@_W@2@@std@@@2@V?$allocator@U?$pair@$$CBV?$basic_string@_WU?$char_traits@_W@std@@V?$allocator@_W@2@@std@@V?$map@V?$basic_string@_WU?$char_traits@_W@std@@V?$allocator@_W@2@@std@@V12@U?$less@V?$basic_string@_WU?$char_traits@_W@std@@V?$allocator@_W@2@@std@@@2@V?$allocator@U?$pair@$$CBV?$basic_string@_WU?$char_traits@_W@std@@V?$allocator@_W@2@@std@@V12@@std@@@2@@2@@std@@@2@@std@@AAV?$multimap@GGU?$less@G@std@@V?$allocator@U?$pair@$$CBGG@std@@@2@@5@I@Z 004241b3 f   resource_version_info_reader.obj
 0001:0002324b       ?get_version_info_by_lang@resource_version_info_reader@pe_bliss@@QBE?BVfile_version_info@2@AAV?$map@V?$basic_string@_WU?$char_traits@_W@std@@V?$allocator@_W@2@@std@@V?$map@V?$basic_string@_WU?$char_traits@_W@std@@V?$allocator@_W@2@@std@@V12@U?$less@V?$basic_string@_WU?$char_traits@_W@std@@V?$allocator@_W@2@@std@@@2@V?$allocator@U?$pair@$$CBV?$basic_string@_WU?$char_traits@_W@std@@V?$allocator@_W@2@@std@@V12@@std@@@2@@2@U?$less@V?$basic_string@_WU?$char_traits@_W@std@@V?$allocator@_W@2@@std@@@2@V?$allocator@U?$pair@$$CBV?$basic_string@_WU?$char_traits@_W@std@@V?$allocator@_W@2@@std@@V?$map@V?$basic_string@_WU?$char_traits@_W@std@@V?$allocator@_W@2@@std@@V12@U?$less@V?$basic_string@_WU?$char_traits@_W@std@@V?$allocator@_W@2@@std@@@2@V?$allocator@U?$pair@$$CBV?$basic_string@_WU?$char_traits@_W@std@@V?$allocator@_W@2@@std@@V12@@std@@@2@@2@@std@@@2@@std@@AAV?$multimap@GGU?$less@G@std@@V?$allocator@U?$pair@$$CBGG@std@@@2@@5@I@Z 0042424b f   resource_version_info_reader.obj
 0001:000232a9       ?throw_incorrect_version_info@resource_version_info_reader@pe_bliss@@CGXXZ 004242a9 f   resource_version_info_reader.obj
 0001:000232cd       ??0resource_version_info_writer@pe_bliss@@QAE@AAVpe_resource_manager@1@@Z 004242cd f   resource_version_info_writer.obj
 0001:000232d8       ??E?$_Tree_unchecked_const_iterator@V?$_Tree_val@U?$_Tree_simple_types@U?$pair@$$CBGG@std@@@std@@@std@@U_Iterator_base0@2@@std@@QAEAAV01@XZ 004242d8 f i resource_version_info_writer.obj
 0001:0002330b       ??E?$_Tree_unchecked_const_iterator@V?$_Tree_val@U?$_Tree_simple_types@U?$pair@$$CBV?$basic_string@_WU?$char_traits@_W@std@@V?$allocator@_W@2@@std@@V12@@std@@@std@@@std@@U_Iterator_base0@2@@std@@QAEAAV01@XZ 0042430b f i resource_version_info_writer.obj
 0001:0002333e       ??E?$_Tree_unchecked_const_iterator@V?$_Tree_val@U?$_Tree_simple_types@U?$pair@$$CBV?$basic_string@_WU?$char_traits@_W@std@@V?$allocator@_W@2@@std@@V?$map@V?$basic_string@_WU?$char_traits@_W@std@@V?$allocator@_W@2@@std@@V12@U?$less@V?$basic_string@_WU?$char_traits@_W@std@@V?$allocator@_W@2@@std@@@2@V?$allocator@U?$pair@$$CBV?$basic_string@_WU?$char_traits@_W@std@@V?$allocator@_W@2@@std@@V12@@std@@@2@@2@@std@@@std@@@std@@U_Iterator_base0@2@@std@@QAEAAV01@XZ 0042433e f i resource_version_info_writer.obj
 0001:00023371       ?_Min@?$_Tree_val@U?$_Tree_simple_types@U?$pair@$$CBGG@std@@@std@@@std@@SGPAU?$_Tree_node@U?$pair@$$CBGG@std@@PAX@2@PAU32@@Z 00424371 f i resource_version_info_writer.obj
 0001:0002338c       ?_Min@?$_Tree_val@U?$_Tree_simple_types@U?$pair@$$CBV?$basic_string@_WU?$char_traits@_W@std@@V?$allocator@_W@2@@std@@V?$map@V?$basic_string@_WU?$char_traits@_W@std@@V?$allocator@_W@2@@std@@V12@U?$less@V?$basic_string@_WU?$char_traits@_W@std@@V?$allocator@_W@2@@std@@@2@V?$allocator@U?$pair@$$CBV?$basic_string@_WU?$char_traits@_W@std@@V?$allocator@_W@2@@std@@V12@@std@@@2@@2@@std@@@std@@@std@@SGPAU?$_Tree_node@U?$pair@$$CBV?$basic_string@_WU?$char_traits@_W@std@@V?$allocator@_W@2@@std@@V?$map@V?$basic_string@_WU?$char_traits@_W@std@@V?$allocator@_W@2@@std@@V12@U?$less@V?$basic_string@_WU?$char_traits@_W@std@@V?$allocator@_W@2@@std@@@2@V?$allocator@U?$pair@$$CBV?$basic_string@_WU?$char_traits@_W@std@@V?$allocator@_W@2@@std@@V12@@std@@@2@@2@@std@@PAX@2@PAU32@@Z 0042438c f i resource_version_info_writer.obj
 0001:000233a7       ?remove_version_info@resource_version_info_writer@pe_bliss@@QAE_NI@Z 004243a7 f   resource_version_info_writer.obj
 0001:000233b9       ?set_version_info@resource_version_info_writer@pe_bliss@@QAEXABVfile_version_info@2@ABV?$map@V?$basic_string@_WU?$char_traits@_W@std@@V?$allocator@_W@2@@std@@V?$map@V?$basic_string@_WU?$char_traits@_W@std@@V?$allocator@_W@2@@std@@V12@U?$less@V?$basic_string@_WU?$char_traits@_W@std@@V?$allocator@_W@2@@std@@@2@V?$allocator@U?$pair@$$CBV?$basic_string@_WU?$char_traits@_W@std@@V?$allocator@_W@2@@std@@V12@@std@@@2@@2@U?$less@V?$basic_string@_WU?$char_traits@_W@std@@V?$allocator@_W@2@@std@@@2@V?$allocator@U?$pair@$$CBV?$basic_string@_WU?$char_traits@_W@std@@V?$allocator@_W@2@@std@@V?$map@V?$basic_string@_WU?$char_traits@_W@std@@V?$allocator@_W@2@@std@@V12@U?$less@V?$basic_string@_WU?$char_traits@_W@std@@V?$allocator@_W@2@@std@@@2@V?$allocator@U?$pair@$$CBV?$basic_string@_WU?$char_traits@_W@std@@V?$allocator@_W@2@@std@@V12@@std@@@2@@2@@std@@@2@@std@@ABV?$multimap@GGU?$less@G@std@@V?$allocator@U?$pair@$$CBGG@std@@@2@@5@III@Z 004243b9 f   resource_version_info_writer.obj
 0001:00023a00       ??8pe_bliss@@YG_NABUguid@pe_win@0@0@Z 00424a00 f   utils.obj
 0001:00023a3b       ?get_file_size@pe_utils@pe_bliss@@SG_JAAV?$basic_istream@DU?$char_traits@D@std@@@std@@@Z 00424a3b f   utils.obj
 0001:00023aba       ?seekg@?$basic_istream@DU?$char_traits@D@std@@@std@@QAEAAV12@_JH@Z 00424aba f i utils.obj
 0001:00023b70       ??$?0ABUpiecewise_construct_t@std@@V?$tuple@ABV?$basic_string@_WU?$char_traits@_W@std@@V?$allocator@_W@2@@std@@@1@V?$tuple@$$V@1@@?$_Tree_temp_node@V?$allocator@U?$_Tree_node@U?$pair@$$CBV?$basic_string@_WU?$char_traits@_W@std@@V?$allocator@_W@2@@std@@V12@@std@@PAX@std@@@std@@@std@@QAE@AAV?$allocator@U?$_Tree_node@U?$pair@$$CBV?$basic_string@_WU?$char_traits@_W@std@@V?$allocator@_W@2@@std@@V12@@std@@PAX@std@@@1@PAU?$_Tree_node@U?$pair@$$CBV?$basic_string@_WU?$char_traits@_W@std@@V?$allocator@_W@2@@std@@V12@@std@@PAX@1@ABUpiecewise_construct_t@1@$$QAV?$tuple@ABV?$basic_string@_WU?$char_traits@_W@std@@V?$allocator@_W@2@@std@@@1@$$QAV?$tuple@$$V@1@@Z 00424b70 f i version_info_editor.obj
 0001:00023bc6       ??$?0ABV?$basic_string@_WU?$char_traits@_W@std@@V?$allocator@_W@2@@std@@$$Z$$V@?$pair@$$CBV?$basic_string@_WU?$char_traits@_W@std@@V?$allocator@_W@2@@std@@V12@@std@@QAE@Upiecewise_construct_t@1@V?$tuple@ABV?$basic_string@_WU?$char_traits@_W@std@@V?$allocator@_W@2@@std@@@1@V?$tuple@$$V@1@@Z 00424bc6 f i version_info_editor.obj
 0001:00023be6       ??$?0U?$pair@V?$basic_string@_WU?$char_traits@_W@std@@V?$allocator@_W@2@@std@@V?$map@V?$basic_string@_WU?$char_traits@_W@std@@V?$allocator@_W@2@@std@@V12@U?$less@V?$basic_string@_WU?$char_traits@_W@std@@V?$allocator@_W@2@@std@@@2@V?$allocator@U?$pair@$$CBV?$basic_string@_WU?$char_traits@_W@std@@V?$allocator@_W@2@@std@@V12@@std@@@2@@2@@std@@@?$_Tree_temp_node@V?$allocator@U?$_Tree_node@U?$pair@$$CBV?$basic_string@_WU?$char_traits@_W@std@@V?$allocator@_W@2@@std@@V?$map@V?$basic_string@_WU?$char_traits@_W@std@@V?$allocator@_W@2@@std@@V12@U?$less@V?$basic_string@_WU?$char_traits@_W@std@@V?$allocator@_W@2@@std@@@2@V?$allocator@U?$pair@$$CBV?$basic_string@_WU?$char_traits@_W@std@@V?$allocator@_W@2@@std@@V12@@std@@@2@@2@@std@@PAX@std@@@std@@@std@@QAE@AAV?$allocator@U?$_Tree_node@U?$pair@$$CBV?$basic_string@_WU?$char_traits@_W@std@@V?$allocator@_W@2@@std@@V?$map@V?$basic_string@_WU?$char_traits@_W@std@@V?$allocator@_W@2@@std@@V12@U?$less@V?$basic_string@_WU?$char_traits@_W@std@@V?$allocator@_W@2@@std@@@2@V?$allocator@U?$pair@$$CBV?$basic_string@_WU?$char_traits@_W@std@@V?$allocator@_W@2@@std@@V12@@std@@@2@@2@@std@@PAX@std@@@1@PAU?$_Tree_node@U?$pair@$$CBV?$basic_string@_WU?$char_traits@_W@std@@V?$allocator@_W@2@@std@@V?$map@V?$basic_string@_WU?$char_traits@_W@std@@V?$allocator@_W@2@@std@@V12@U?$less@V?$basic_string@_WU?$char_traits@_W@std@@V?$allocator@_W@2@@std@@@2@V?$allocator@U?$pair@$$CBV?$basic_string@_WU?$char_traits@_W@std@@V?$allocator@_W@2@@std@@V12@@std@@@2@@2@@std@@PAX@1@$$QAU?$pair@V?$basic_string@_WU?$char_traits@_W@std@@V?$allocator@_W@2@@std@@V?$map@V?$basic_string@_WU?$char_traits@_W@std@@V?$allocator@_W@2@@std@@V12@U?$less@V?$basic_string@_WU?$char_traits@_W@std@@V?$allocator@_W@2@@std@@@2@V?$allocator@U?$pair@$$CBV?$basic_string@_WU?$char_traits@_W@std@@V?$allocator@_W@2@@std@@V12@@std@@@2@@2@@1@@Z 00424be6 f i version_info_editor.obj
 0001:00023c32       ??$?0V?$basic_string@_WU?$char_traits@_W@std@@V?$allocator@_W@2@@std@@V?$map@V?$basic_string@_WU?$char_traits@_W@std@@V?$allocator@_W@2@@std@@V12@U?$less@V?$basic_string@_WU?$char_traits@_W@std@@V?$allocator@_W@2@@std@@@2@V?$allocator@U?$pair@$$CBV?$basic_string@_WU?$char_traits@_W@std@@V?$allocator@_W@2@@std@@V12@@std@@@2@@1@$0A@@?$pair@$$CBV?$basic_string@_WU?$char_traits@_W@std@@V?$allocator@_W@2@@std@@V?$map@V?$basic_string@_WU?$char_traits@_W@std@@V?$allocator@_W@2@@std@@V12@U?$less@V?$basic_string@_WU?$char_traits@_W@std@@V?$allocator@_W@2@@std@@@2@V?$allocator@U?$pair@$$CBV?$basic_string@_WU?$char_traits@_W@std@@V?$allocator@_W@2@@std@@V12@@std@@@2@@2@@std@@QAE@$$QAU?$pair@V?$basic_string@_WU?$char_traits@_W@std@@V?$allocator@_W@2@@std@@V?$map@V?$basic_string@_WU?$char_traits@_W@std@@V?$allocator@_W@2@@std@@V12@U?$less@V?$basic_string@_WU?$char_traits@_W@std@@V?$allocator@_W@2@@std@@@2@V?$allocator@U?$pair@$$CBV?$basic_string@_WU?$char_traits@_W@std@@V?$allocator@_W@2@@std@@V12@@std@@@2@@2@@1@@Z 00424c32 f i version_info_editor.obj
 0001:00023c53       ??$?0V?$tuple@ABV?$basic_string@_WU?$char_traits@_W@std@@V?$allocator@_W@2@@std@@@std@@V?$tuple@$$V@1@$0A@$$Z$S@?$pair@$$CBV?$basic_string@_WU?$char_traits@_W@std@@V?$allocator@_W@2@@std@@V12@@std@@QAE@AAV?$tuple@ABV?$basic_string@_WU?$char_traits@_W@std@@V?$allocator@_W@2@@std@@@1@AAV?$tuple@$$V@1@U?$integer_sequence@I$0A@@1@U?$integer_sequence@I$S@1@@Z 00424c53 f i version_info_editor.obj
 0001:00023c81       ??$?6_WU?$char_traits@_W@std@@_J@std@@YGAAV?$basic_ostream@_WU?$char_traits@_W@std@@@0@AAV10@ABU?$_Smanip@_J@0@@Z 00424c81 f i version_info_editor.obj
 0001:00023ca3       ??$?6_WU?$char_traits@_W@std@@_W@std@@YGAAV?$basic_ostream@_WU?$char_traits@_W@std@@@0@AAV10@ABU?$_Fillobj@_W@0@@Z 00424ca3 f i version_info_editor.obj
 0001:00023cbb       ??$_Emplace@U?$pair@V?$basic_string@_WU?$char_traits@_W@std@@V?$allocator@_W@2@@std@@V?$map@V?$basic_string@_WU?$char_traits@_W@std@@V?$allocator@_W@2@@std@@V12@U?$less@V?$basic_string@_WU?$char_traits@_W@std@@V?$allocator@_W@2@@std@@@2@V?$allocator@U?$pair@$$CBV?$basic_string@_WU?$char_traits@_W@std@@V?$allocator@_W@2@@std@@V12@@std@@@2@@2@@std@@@?$_Tree@V?$_Tmap_traits@V?$basic_string@_WU?$char_traits@_W@std@@V?$allocator@_W@2@@std@@V?$map@V?$basic_string@_WU?$char_traits@_W@std@@V?$allocator@_W@2@@std@@V12@U?$less@V?$basic_string@_WU?$char_traits@_W@std@@V?$allocator@_W@2@@std@@@2@V?$allocator@U?$pair@$$CBV?$basic_string@_WU?$char_traits@_W@std@@V?$allocator@_W@2@@std@@V12@@std@@@2@@2@U?$less@V?$basic_string@_WU?$char_traits@_W@std@@V?$allocator@_W@2@@std@@@2@V?$allocator@U?$pair@$$CBV?$basic_string@_WU?$char_traits@_W@std@@V?$allocator@_W@2@@std@@V?$map@V?$basic_string@_WU?$char_traits@_W@std@@V?$allocator@_W@2@@std@@V12@U?$less@V?$basic_string@_WU?$char_traits@_W@std@@V?$allocator@_W@2@@std@@@2@V?$allocator@U?$pair@$$CBV?$basic_string@_WU?$char_traits@_W@std@@V?$allocator@_W@2@@std@@V12@@std@@@2@@2@@std@@@2@$0A@@std@@@std@@IAE?AU?$pair@PAU?$_Tree_node@U?$pair@$$CBV?$basic_string@_WU?$char_traits@_W@std@@V?$allocator@_W@2@@std@@V?$map@V?$basic_string@_WU?$char_traits@_W@std@@V?$allocator@_W@2@@std@@V12@U?$less@V?$basic_string@_WU?$char_traits@_W@std@@V?$allocator@_W@2@@std@@@2@V?$allocator@U?$pair@$$CBV?$basic_string@_WU?$char_traits@_W@std@@V?$allocator@_W@2@@std@@V12@@std@@@2@@2@@std@@PAX@std@@_N@1@$$QAU?$pair@V?$basic_string@_WU?$char_traits@_W@std@@V?$allocator@_W@2@@std@@V?$map@V?$basic_string@_WU?$char_traits@_W@std@@V?$allocator@_W@2@@std@@V12@U?$less@V?$basic_string@_WU?$char_traits@_W@std@@V?$allocator@_W@2@@std@@@2@V?$allocator@U?$pair@$$CBV?$basic_string@_WU?$char_traits@_W@std@@V?$allocator@_W@2@@std@@V12@@std@@@2@@2@@1@@Z 00424cbb f i version_info_editor.obj
 0001:00023d43       ??$_Eqrange@G@?$_Tree@V?$_Tmap_traits@GGU?$less@G@std@@V?$allocator@U?$pair@$$CBGG@std@@@2@$00@std@@@std@@IBE?AU?$pair@PAU?$_Tree_node@U?$pair@$$CBGG@std@@PAX@std@@PAU12@@1@ABG@Z 00424d43 f i version_info_editor.obj
 0001:00023db9       ??$_Eqrange@V?$basic_string@_WU?$char_traits@_W@std@@V?$allocator@_W@2@@std@@@?$_Tree@V?$_Tmap_traits@V?$basic_string@_WU?$char_traits@_W@std@@V?$allocator@_W@2@@std@@V?$map@V?$basic_string@_WU?$char_traits@_W@std@@V?$allocator@_W@2@@std@@V12@U?$less@V?$basic_string@_WU?$char_traits@_W@std@@V?$allocator@_W@2@@std@@@2@V?$allocator@U?$pair@$$CBV?$basic_string@_WU?$char_traits@_W@std@@V?$allocator@_W@2@@std@@V12@@std@@@2@@2@U?$less@V?$basic_string@_WU?$char_traits@_W@std@@V?$allocator@_W@2@@std@@@2@V?$allocator@U?$pair@$$CBV?$basic_string@_WU?$char_traits@_W@std@@V?$allocator@_W@2@@std@@V?$map@V?$basic_string@_WU?$char_traits@_W@std@@V?$allocator@_W@2@@std@@V12@U?$less@V?$basic_string@_WU?$char_traits@_W@std@@V?$allocator@_W@2@@std@@@2@V?$allocator@U?$pair@$$CBV?$basic_string@_WU?$char_traits@_W@std@@V?$allocator@_W@2@@std@@V12@@std@@@2@@2@@std@@@2@$0A@@std@@@std@@IBE?AU?$pair@PAU?$_Tree_node@U?$pair@$$CBV?$basic_string@_WU?$char_traits@_W@std@@V?$allocator@_W@2@@std@@V?$map@V?$basic_string@_WU?$char_traits@_W@std@@V?$allocator@_W@2@@std@@V12@U?$less@V?$basic_string@_WU?$char_traits@_W@std@@V?$allocator@_W@2@@std@@@2@V?$allocator@U?$pair@$$CBV?$basic_string@_WU?$char_traits@_W@std@@V?$allocator@_W@2@@std@@V12@@std@@@2@@2@@std@@PAX@std@@PAU12@@1@ABV?$basic_string@_WU?$char_traits@_W@std@@V?$allocator@_W@2@@1@@Z 00424db9 f i version_info_editor.obj
 0001:00023e3c       ??$_Erase_tree@V?$allocator@U?$_Tree_node@U?$pair@$$CBV?$basic_string@_WU?$char_traits@_W@std@@V?$allocator@_W@2@@std@@V?$map@V?$basic_string@_WU?$char_traits@_W@std@@V?$allocator@_W@2@@std@@V12@U?$less@V?$basic_string@_WU?$char_traits@_W@std@@V?$allocator@_W@2@@std@@@2@V?$allocator@U?$pair@$$CBV?$basic_string@_WU?$char_traits@_W@std@@V?$allocator@_W@2@@std@@V12@@std@@@2@@2@@std@@PAX@std@@@std@@@?$_Tree_val@U?$_Tree_simple_types@U?$pair@$$CBV?$basic_string@_WU?$char_traits@_W@std@@V?$allocator@_W@2@@std@@V?$map@V?$basic_string@_WU?$char_traits@_W@std@@V?$allocator@_W@2@@std@@V12@U?$less@V?$basic_string@_WU?$char_traits@_W@std@@V?$allocator@_W@2@@std@@@2@V?$allocator@U?$pair@$$CBV?$basic_string@_WU?$char_traits@_W@std@@V?$allocator@_W@2@@std@@V12@@std@@@2@@2@@std@@@std@@@std@@QAEXAAV?$allocator@U?$_Tree_node@U?$pair@$$CBV?$basic_string@_WU?$char_traits@_W@std@@V?$allocator@_W@2@@std@@V?$map@V?$basic_string@_WU?$char_traits@_W@std@@V?$allocator@_W@2@@std@@V12@U?$less@V?$basic_string@_WU?$char_traits@_W@std@@V?$allocator@_W@2@@std@@@2@V?$allocator@U?$pair@$$CBV?$basic_string@_WU?$char_traits@_W@std@@V?$allocator@_W@2@@std@@V12@@std@@@2@@2@@std@@PAX@std@@@1@PAU?$_Tree_node@U?$pair@$$CBV?$basic_string@_WU?$char_traits@_W@std@@V?$allocator@_W@2@@std@@V?$map@V?$basic_string@_WU?$char_traits@_W@std@@V?$allocator@_W@2@@std@@V12@U?$less@V?$basic_string@_WU?$char_traits@_W@std@@V?$allocator@_W@2@@std@@@2@V?$allocator@U?$pair@$$CBV?$basic_string@_WU?$char_traits@_W@std@@V?$allocator@_W@2@@std@@V12@@std@@@2@@2@@std@@PAX@1@@Z 00424e3c f i version_info_editor.obj
 0001:00023e6b       ??$_Find@V?$basic_string@_WU?$char_traits@_W@std@@V?$allocator@_W@2@@std@@@?$_Tree@V?$_Tmap_traits@V?$basic_string@_WU?$char_traits@_W@std@@V?$allocator@_W@2@@std@@V?$map@V?$basic_string@_WU?$char_traits@_W@std@@V?$allocator@_W@2@@std@@V12@U?$less@V?$basic_string@_WU?$char_traits@_W@std@@V?$allocator@_W@2@@std@@@2@V?$allocator@U?$pair@$$CBV?$basic_string@_WU?$char_traits@_W@std@@V?$allocator@_W@2@@std@@V12@@std@@@2@@2@U?$less@V?$basic_string@_WU?$char_traits@_W@std@@V?$allocator@_W@2@@std@@@2@V?$allocator@U?$pair@$$CBV?$basic_string@_WU?$char_traits@_W@std@@V?$allocator@_W@2@@std@@V?$map@V?$basic_string@_WU?$char_traits@_W@std@@V?$allocator@_W@2@@std@@V12@U?$less@V?$basic_string@_WU?$char_traits@_W@std@@V?$allocator@_W@2@@std@@@2@V?$allocator@U?$pair@$$CBV?$basic_string@_WU?$char_traits@_W@std@@V?$allocator@_W@2@@std@@V12@@std@@@2@@2@@std@@@2@$0A@@std@@@std@@ABEPAU?$_Tree_node@U?$pair@$$CBV?$basic_string@_WU?$char_traits@_W@std@@V?$allocator@_W@2@@std@@V?$map@V?$basic_string@_WU?$char_traits@_W@std@@V?$allocator@_W@2@@std@@V12@U?$less@V?$basic_string@_WU?$char_traits@_W@std@@V?$allocator@_W@2@@std@@@2@V?$allocator@U?$pair@$$CBV?$basic_string@_WU?$char_traits@_W@std@@V?$allocator@_W@2@@std@@V12@@std@@@2@@2@@std@@PAX@1@ABV?$basic_string@_WU?$char_traits@_W@std@@V?$allocator@_W@2@@1@@Z 00424e6b f i version_info_editor.obj
 0001:00023e9b       ??$_Freenode@V?$allocator@U?$_Tree_node@U?$pair@$$CBV?$basic_string@_WU?$char_traits@_W@std@@V?$allocator@_W@2@@std@@V?$map@V?$basic_string@_WU?$char_traits@_W@std@@V?$allocator@_W@2@@std@@V12@U?$less@V?$basic_string@_WU?$char_traits@_W@std@@V?$allocator@_W@2@@std@@@2@V?$allocator@U?$pair@$$CBV?$basic_string@_WU?$char_traits@_W@std@@V?$allocator@_W@2@@std@@V12@@std@@@2@@2@@std@@PAX@std@@@std@@@?$_Tree_node@U?$pair@$$CBV?$basic_string@_WU?$char_traits@_W@std@@V?$allocator@_W@2@@std@@V?$map@V?$basic_string@_WU?$char_traits@_W@std@@V?$allocator@_W@2@@std@@V12@U?$less@V?$basic_string@_WU?$char_traits@_W@std@@V?$allocator@_W@2@@std@@@2@V?$allocator@U?$pair@$$CBV?$basic_string@_WU?$char_traits@_W@std@@V?$allocator@_W@2@@std@@V12@@std@@@2@@2@@std@@PAX@std@@SGXAAV?$allocator@U?$_Tree_node@U?$pair@$$CBV?$basic_string@_WU?$char_traits@_W@std@@V?$allocator@_W@2@@std@@V?$map@V?$basic_string@_WU?$char_traits@_W@std@@V?$allocator@_W@2@@std@@V12@U?$less@V?$basic_string@_WU?$char_traits@_W@std@@V?$allocator@_W@2@@std@@@2@V?$allocator@U?$pair@$$CBV?$basic_string@_WU?$char_traits@_W@std@@V?$allocator@_W@2@@std@@V12@@std@@@2@@2@@std@@PAX@std@@@1@PAU01@@Z 00424e9b f i version_info_editor.obj
 0001:00023eb8       ??$_Maklocchr@_W@std@@YA_WDPA_WABU_Cvtvec@@@Z 00424eb8 f i version_info_editor.obj
 0001:00023ee9       ??$_Maklocstr@D@std@@YAPADPBDPADABU_Cvtvec@@@Z 00424ee9 f i version_info_editor.obj
 0001:00023f2b       ??$_Maklocstr@_W@std@@YAPA_WPBDPA_WABU_Cvtvec@@@Z 00424f2b f i version_info_editor.obj
 0001:00023fe4       ??$_Reallocate_for@V<lambda_ce475b7b8bd67a606e496821c303ff69>@@_W@?$basic_string@_WU?$char_traits@_W@std@@V?$allocator@_W@2@@std@@AAEAAV01@IV<lambda_ce475b7b8bd67a606e496821c303ff69>@@_W@Z 00424fe4 f i version_info_editor.obj
 0001:0002405d       ??$_Reallocate_grow_by@V<lambda_1337019723fdb3c1dc6116579f742d4b>@@II_W@?$basic_string@_WU?$char_traits@_W@std@@V?$allocator@_W@2@@std@@AAEAAV01@IV<lambda_1337019723fdb3c1dc6116579f742d4b>@@II_W@Z 0042505d f i version_info_editor.obj
 0001:000240f5       ??$_Try_emplace@ABV?$basic_string@_WU?$char_traits@_W@std@@V?$allocator@_W@2@@std@@$$V@?$map@V?$basic_string@_WU?$char_traits@_W@std@@V?$allocator@_W@2@@std@@V12@U?$less@V?$basic_string@_WU?$char_traits@_W@std@@V?$allocator@_W@2@@std@@@2@V?$allocator@U?$pair@$$CBV?$basic_string@_WU?$char_traits@_W@std@@V?$allocator@_W@2@@std@@V12@@std@@@2@@std@@AAE?AU?$pair@PAU?$_Tree_node@U?$pair@$$CBV?$basic_string@_WU?$char_traits@_W@std@@V?$allocator@_W@2@@std@@V12@@std@@PAX@std@@_N@1@ABV?$basic_string@_WU?$char_traits@_W@std@@V?$allocator@_W@2@@1@@Z 004250f5 f i version_info_editor.obj
 0001:00024181       ??$construct@U?$pair@$$CBV?$basic_string@_WU?$char_traits@_W@std@@V?$allocator@_W@2@@std@@V12@@std@@ABUpiecewise_construct_t@2@V?$tuple@ABV?$basic_string@_WU?$char_traits@_W@std@@V?$allocator@_W@2@@std@@@2@V?$tuple@$$V@2@@?$_Default_allocator_traits@V?$allocator@U?$_Tree_node@U?$pair@$$CBV?$basic_string@_WU?$char_traits@_W@std@@V?$allocator@_W@2@@std@@V12@@std@@PAX@std@@@std@@@std@@SGXAAV?$allocator@U?$_Tree_node@U?$pair@$$CBV?$basic_string@_WU?$char_traits@_W@std@@V?$allocator@_W@2@@std@@V12@@std@@PAX@std@@@1@QAU?$pair@$$CBV?$basic_string@_WU?$char_traits@_W@std@@V?$allocator@_W@2@@std@@V12@@1@ABUpiecewise_construct_t@1@$$QAV?$tuple@ABV?$basic_string@_WU?$char_traits@_W@std@@V?$allocator@_W@2@@std@@@1@$$QAV?$tuple@$$V@1@@Z 00425181 f i version_info_editor.obj
 0001:000241a7       ??$distance@V?$_Tree_unchecked_const_iterator@V?$_Tree_val@U?$_Tree_simple_types@U?$pair@$$CBV?$basic_string@_WU?$char_traits@_W@std@@V?$allocator@_W@2@@std@@V?$map@V?$basic_string@_WU?$char_traits@_W@std@@V?$allocator@_W@2@@std@@V12@U?$less@V?$basic_string@_WU?$char_traits@_W@std@@V?$allocator@_W@2@@std@@@2@V?$allocator@U?$pair@$$CBV?$basic_string@_WU?$char_traits@_W@std@@V?$allocator@_W@2@@std@@V12@@std@@@2@@2@@std@@@std@@@std@@U_Iterator_base0@2@@std@@@std@@YGHV?$_Tree_unchecked_const_iterator@V?$_Tree_val@U?$_Tree_simple_types@U?$pair@$$CBV?$basic_string@_WU?$char_traits@_W@std@@V?$allocator@_W@2@@std@@V?$map@V?$basic_string@_WU?$char_traits@_W@std@@V?$allocator@_W@2@@std@@V12@U?$less@V?$basic_string@_WU?$char_traits@_W@std@@V?$allocator@_W@2@@std@@@2@V?$allocator@U?$pair@$$CBV?$basic_string@_WU?$char_traits@_W@std@@V?$allocator@_W@2@@std@@V12@@std@@@2@@2@@std@@@std@@@std@@U_Iterator_base0@2@@0@0@Z 004251a7 f i version_info_editor.obj
 0001:000241d2       ??$exchange@PAU?$_Tree_node@U?$pair@$$CBV?$basic_string@_WU?$char_traits@_W@std@@V?$allocator@_W@2@@std@@V?$map@V?$basic_string@_WU?$char_traits@_W@std@@V?$allocator@_W@2@@std@@V12@U?$less@V?$basic_string@_WU?$char_traits@_W@std@@V?$allocator@_W@2@@std@@@2@V?$allocator@U?$pair@$$CBV?$basic_string@_WU?$char_traits@_W@std@@V?$allocator@_W@2@@std@@V12@@std@@@2@@2@@std@@PAX@std@@AAPAU12@@std@@YGPAU?$_Tree_node@U?$pair@$$CBV?$basic_string@_WU?$char_traits@_W@std@@V?$allocator@_W@2@@std@@V?$map@V?$basic_string@_WU?$char_traits@_W@std@@V?$allocator@_W@2@@std@@V12@U?$less@V?$basic_string@_WU?$char_traits@_W@std@@V?$allocator@_W@2@@std@@@2@V?$allocator@U?$pair@$$CBV?$basic_string@_WU?$char_traits@_W@std@@V?$allocator@_W@2@@std@@V12@@std@@@2@@2@@std@@PAX@0@AAPAU10@0@Z 004251d2 f i version_info_editor.obj
 0001:000241e3       ??$setfill@_W@std@@YG?AU?$_Fillobj@_W@0@_W@Z 004251e3 f i version_info_editor.obj
 0001:000241f2       ??$swap@DX@std@@YGXAAD0@Z  004251f2 f i version_info_editor.obj
 0001:00024207       ??$use_facet@V?$ctype@_W@std@@@std@@YAABV?$ctype@_W@0@ABVlocale@0@@Z 00425207 f i version_info_editor.obj
 0001:00024280       ??$use_facet@V?$num_put@_WV?$ostreambuf_iterator@_WU?$char_traits@_W@std@@@std@@@std@@@std@@YAABV?$num_put@_WV?$ostreambuf_iterator@_WU?$char_traits@_W@std@@@std@@@0@ABVlocale@0@@Z 00425280 f i version_info_editor.obj
 0001:000242f9       ??$use_facet@V?$numpunct@_W@std@@@std@@YAABV?$numpunct@_W@0@ABVlocale@0@@Z 004252f9 f i version_info_editor.obj
 0001:00024370       ??0?$basic_iostream@_WU?$char_traits@_W@std@@@std@@QAE@PAV?$basic_streambuf@_WU?$char_traits@_W@std@@@1@@Z 00425370 f i version_info_editor.obj
 0001:000243d4       ??0?$basic_istream@_WU?$char_traits@_W@std@@@std@@QAE@PAV?$basic_streambuf@_WU?$char_traits@_W@std@@@1@_N@Z 004253d4 f i version_info_editor.obj
 0001:00024428       ??0?$basic_streambuf@_WU?$char_traits@_W@std@@@std@@IAE@XZ 00425428 f i version_info_editor.obj
 0001:0002445e       ??0?$basic_stringbuf@_WU?$char_traits@_W@std@@V?$allocator@_W@2@@std@@QAE@H@Z 0042545e f i version_info_editor.obj
 0001:00024482       ??0?$basic_stringstream@_WU?$char_traits@_W@std@@V?$allocator@_W@2@@std@@QAE@H@Z 00425482 f i version_info_editor.obj
 0001:000244d6       ??0_Sentry_base@?$basic_ostream@_WU?$char_traits@_W@std@@@std@@QAE@AAV12@@Z 004254d6 f i version_info_editor.obj
 0001:000244f7       ??0sentry@?$basic_ostream@_WU?$char_traits@_W@std@@@std@@QAE@AAV12@@Z 004254f7 f i version_info_editor.obj
 0001:0002453f       ??0version_info_editor@pe_bliss@@QAE@AAV?$map@V?$basic_string@_WU?$char_traits@_W@std@@V?$allocator@_W@2@@std@@V?$map@V?$basic_string@_WU?$char_traits@_W@std@@V?$allocator@_W@2@@std@@V12@U?$less@V?$basic_string@_WU?$char_traits@_W@std@@V?$allocator@_W@2@@std@@@2@V?$allocator@U?$pair@$$CBV?$basic_string@_WU?$char_traits@_W@std@@V?$allocator@_W@2@@std@@V12@@std@@@2@@2@U?$less@V?$basic_string@_WU?$char_traits@_W@std@@V?$allocator@_W@2@@std@@@2@V?$allocator@U?$pair@$$CBV?$basic_string@_WU?$char_traits@_W@std@@V?$allocator@_W@2@@std@@V?$map@V?$basic_string@_WU?$char_traits@_W@std@@V?$allocator@_W@2@@std@@V12@U?$less@V?$basic_string@_WU?$char_traits@_W@std@@V?$allocator@_W@2@@std@@@2@V?$allocator@U?$pair@$$CBV?$basic_string@_WU?$char_traits@_W@std@@V?$allocator@_W@2@@std@@V12@@std@@@2@@2@@std@@@2@@std@@AAV?$multimap@GGU?$less@G@std@@V?$allocator@U?$pair@$$CBGG@std@@@2@@3@@Z 0042553f f   version_info_editor.obj
 0001:00024561       ??1?$basic_ios@_WU?$char_traits@_W@std@@@std@@UAE@XZ 00425561 f i version_info_editor.obj
 0001:0002456f       ??1?$basic_iostream@_WU?$char_traits@_W@std@@@std@@UAE@XZ 0042556f f i version_info_editor.obj
 0001:000245c5       ??1?$basic_istream@_WU?$char_traits@_W@std@@@std@@UAE@XZ 004255c5 f i version_info_editor.obj
 0001:000245e1       ??1?$basic_ostream@_WU?$char_traits@_W@std@@@std@@UAE@XZ 004255e1 f i version_info_editor.obj
 0001:000245fd       ??1?$basic_streambuf@_WU?$char_traits@_W@std@@@std@@UAE@XZ 004255fd f i version_info_editor.obj
 0001:0002461e       ??1?$basic_stringbuf@_WU?$char_traits@_W@std@@V?$allocator@_W@2@@std@@UAE@XZ 0042561e f i version_info_editor.obj
 0001:00024634       ??1?$basic_stringstream@_WU?$char_traits@_W@std@@V?$allocator@_W@2@@std@@UAE@XZ 00425634 f i version_info_editor.obj
 0001:00024663       ??1?$ctype@_W@std@@MAE@XZ  00425663 f i version_info_editor.obj
 0001:0002468c       ??1?$num_put@_WV?$ostreambuf_iterator@_WU?$char_traits@_W@std@@@std@@@std@@MAE@XZ 0042568c f i version_info_editor.obj
 0001:00024693       ??1?$numpunct@_W@std@@MAE@XZ 00425693 f i version_info_editor.obj
 0001:000246a9       ??1_Sentry_base@?$basic_ostream@_WU?$char_traits@_W@std@@@std@@QAE@XZ 004256a9 f i version_info_editor.obj
 0001:000246be       ??1ios_base@std@@UAE@XZ    004256be f i version_info_editor.obj
 0001:000246cc       ??1sentry@?$basic_ostream@_WU?$char_traits@_W@std@@@std@@QAE@XZ 004256cc f i version_info_editor.obj
 0001:000246e7       ??4?$ostreambuf_iterator@_WU?$char_traits@_W@std@@@std@@QAEAAV01@_W@Z 004256e7 f i version_info_editor.obj
 0001:0002470d       ??6?$basic_ostream@_WU?$char_traits@_W@std@@@std@@QAEAAV01@G@Z 0042570d f i version_info_editor.obj
 0001:00024820       ??R<lambda_1337019723fdb3c1dc6116579f742d4b>@@QBEXQA_WQB_WIII_W@Z 00425820 f i version_info_editor.obj
 0001:00024878       ??_D?$basic_iostream@_WU?$char_traits@_W@std@@@std@@QAEXXZ 00425878 f i version_info_editor.obj
 0001:00024892       ??_D?$basic_istream@_WU?$char_traits@_W@std@@@std@@QAEXXZ 00425892 f i version_info_editor.obj
 0001:000248be       ??_D?$basic_ostream@_WU?$char_traits@_W@std@@@std@@QAEXXZ 004258be f i version_info_editor.obj
 0001:000248ea       ??_D?$basic_stringstream@_WU?$char_traits@_W@std@@V?$allocator@_W@2@@std@@QAEXXZ 004258ea f i version_info_editor.obj
 0001:00024904       ??_E?$basic_iostream@_WU?$char_traits@_W@std@@@std@@$4PPPPPPPM@A@AEPAXI@Z 00425904 f i version_info_editor.obj
 0001:0002490c       ??_E?$basic_istream@_WU?$char_traits@_W@std@@@std@@$4PPPPPPPM@A@AEPAXI@Z 0042590c f i version_info_editor.obj
 0001:00024914       ??_E?$basic_ostream@_WU?$char_traits@_W@std@@@std@@$4PPPPPPPM@A@AEPAXI@Z 00425914 f i version_info_editor.obj
 0001:0002491c       ??_E?$basic_stringstream@_WU?$char_traits@_W@std@@V?$allocator@_W@2@@std@@$4PPPPPPPM@A@AEPAXI@Z 0042591c f i version_info_editor.obj
 0001:00024924       ??_G?$basic_ios@_WU?$char_traits@_W@std@@@std@@UAEPAXI@Z 00425924 f i version_info_editor.obj
 0001:00024924       ??_E?$basic_ios@_WU?$char_traits@_W@std@@@std@@UAEPAXI@Z 00425924 f i version_info_editor.obj
 0001:0002494b       ??_G?$basic_iostream@_WU?$char_traits@_W@std@@@std@@UAEPAXI@Z 0042594b f i version_info_editor.obj
 0001:0002494b       ??_E?$basic_iostream@_WU?$char_traits@_W@std@@@std@@UAEPAXI@Z 0042594b f i version_info_editor.obj
 0001:0002496d       ??_E?$basic_istream@_WU?$char_traits@_W@std@@@std@@UAEPAXI@Z 0042596d f i version_info_editor.obj
 0001:0002496d       ??_G?$basic_istream@_WU?$char_traits@_W@std@@@std@@UAEPAXI@Z 0042596d f i version_info_editor.obj
 0001:0002498f       ??_G?$basic_ostream@_WU?$char_traits@_W@std@@@std@@UAEPAXI@Z 0042598f f i version_info_editor.obj
 0001:0002498f       ??_E?$basic_ostream@_WU?$char_traits@_W@std@@@std@@UAEPAXI@Z 0042598f f i version_info_editor.obj
 0001:000249b1       ??_G?$basic_streambuf@_WU?$char_traits@_W@std@@@std@@UAEPAXI@Z 004259b1 f i version_info_editor.obj
 0001:000249b1       ??_E?$basic_streambuf@_WU?$char_traits@_W@std@@@std@@UAEPAXI@Z 004259b1 f i version_info_editor.obj
 0001:000249d0       ??_G?$basic_stringbuf@_WU?$char_traits@_W@std@@V?$allocator@_W@2@@std@@UAEPAXI@Z 004259d0 f i version_info_editor.obj
 0001:000249d0       ??_E?$basic_stringbuf@_WU?$char_traits@_W@std@@V?$allocator@_W@2@@std@@UAEPAXI@Z 004259d0 f i version_info_editor.obj
 0001:000249ef       ??_G?$basic_stringstream@_WU?$char_traits@_W@std@@V?$allocator@_W@2@@std@@UAEPAXI@Z 004259ef f i version_info_editor.obj
 0001:000249ef       ??_E?$basic_stringstream@_WU?$char_traits@_W@std@@V?$allocator@_W@2@@std@@UAEPAXI@Z 004259ef f i version_info_editor.obj
 0001:00024a14       ??_E?$ctype@_W@std@@MAEPAXI@Z 00425a14 f i version_info_editor.obj
 0001:00024a14       ??_G?$ctype@_W@std@@MAEPAXI@Z 00425a14 f i version_info_editor.obj
 0001:00024a33       ??_E?$num_put@_WV?$ostreambuf_iterator@_WU?$char_traits@_W@std@@@std@@@std@@MAEPAXI@Z 00425a33 f i version_info_editor.obj
 0001:00024a33       ??_G?$num_put@_WV?$ostreambuf_iterator@_WU?$char_traits@_W@std@@@std@@@std@@MAEPAXI@Z 00425a33 f i version_info_editor.obj
 0001:00024a53       ??_E?$numpunct@_W@std@@MAEPAXI@Z 00425a53 f i version_info_editor.obj
 0001:00024a53       ??_G?$numpunct@_W@std@@MAEPAXI@Z 00425a53 f i version_info_editor.obj
 0001:00024a7e       ??_Gios_base@std@@UAEPAXI@Z 00425a7e f i version_info_editor.obj
 0001:00024a7e       ??_Eios_base@std@@UAEPAXI@Z 00425a7e f i version_info_editor.obj
 0001:00024aa5       ?_Donarrow@?$ctype@_W@std@@IBED_WD@Z 00425aa5 f i version_info_editor.obj
 0001:00024ade       ?_Dowiden@?$ctype@_W@std@@IBE_WD@Z 00425ade f i version_info_editor.obj
 0001:00024b1b       ?_Erase_unchecked@?$_Tree@V?$_Tmap_traits@GGU?$less@G@std@@V?$allocator@U?$pair@$$CBGG@std@@@2@$00@std@@@std@@AAEPAU?$_Tree_node@U?$pair@$$CBGG@std@@PAX@2@V?$_Tree_unchecked_const_iterator@V?$_Tree_val@U?$_Tree_simple_types@U?$pair@$$CBGG@std@@@std@@@std@@U_Iterator_base0@2@@2@@Z 00425b1b f i version_info_editor.obj
 0001:00024b4c       ?_Erase_unchecked@?$_Tree@V?$_Tmap_traits@V?$basic_string@_WU?$char_traits@_W@std@@V?$allocator@_W@2@@std@@V?$map@V?$basic_string@_WU?$char_traits@_W@std@@V?$allocator@_W@2@@std@@V12@U?$less@V?$basic_string@_WU?$char_traits@_W@std@@V?$allocator@_W@2@@std@@@2@V?$allocator@U?$pair@$$CBV?$basic_string@_WU?$char_traits@_W@std@@V?$allocator@_W@2@@std@@V12@@std@@@2@@2@U?$less@V?$basic_string@_WU?$char_traits@_W@std@@V?$allocator@_W@2@@std@@@2@V?$allocator@U?$pair@$$CBV?$basic_string@_WU?$char_traits@_W@std@@V?$allocator@_W@2@@std@@V?$map@V?$basic_string@_WU?$char_traits@_W@std@@V?$allocator@_W@2@@std@@V12@U?$less@V?$basic_string@_WU?$char_traits@_W@std@@V?$allocator@_W@2@@std@@@2@V?$allocator@U?$pair@$$CBV?$basic_string@_WU?$char_traits@_W@std@@V?$allocator@_W@2@@std@@V12@@std@@@2@@2@@std@@@2@$0A@@std@@@std@@AAEPAU?$_Tree_node@U?$pair@$$CBV?$basic_string@_WU?$char_traits@_W@std@@V?$allocator@_W@2@@std@@V?$map@V?$basic_string@_WU?$char_traits@_W@std@@V?$allocator@_W@2@@std@@V12@U?$less@V?$basic_string@_WU?$char_traits@_W@std@@V?$allocator@_W@2@@std@@@2@V?$allocator@U?$pair@$$CBV?$basic_string@_WU?$char_traits@_W@std@@V?$allocator@_W@2@@std@@V12@@std@@@2@@2@@std@@PAX@2@V?$_Tree_unchecked_const_iterator@V?$_Tree_val@U?$_Tree_simple_types@U?$pair@$$CBV?$basic_string@_WU?$char_traits@_W@std@@V?$allocator@_W@2@@std@@V?$map@V?$basic_string@_WU?$char_traits@_W@std@@V?$allocator@_W@2@@std@@V12@U?$less@V?$basic_string@_WU?$char_traits@_W@std@@V?$allocator@_W@2@@std@@@2@V?$allocator@U?$pair@$$CBV?$basic_string@_WU?$char_traits@_W@std@@V?$allocator@_W@2@@std@@V12@@std@@@2@@2@@std@@@std@@@std@@U_Iterator_base0@2@@2@0@Z 00425b4c f i version_info_editor.obj
 0001:00024b8f       ?_Erase_unchecked@?$_Tree@V?$_Tmap_traits@V?$basic_string@_WU?$char_traits@_W@std@@V?$allocator@_W@2@@std@@V?$map@V?$basic_string@_WU?$char_traits@_W@std@@V?$allocator@_W@2@@std@@V12@U?$less@V?$basic_string@_WU?$char_traits@_W@std@@V?$allocator@_W@2@@std@@@2@V?$allocator@U?$pair@$$CBV?$basic_string@_WU?$char_traits@_W@std@@V?$allocator@_W@2@@std@@V12@@std@@@2@@2@U?$less@V?$basic_string@_WU?$char_traits@_W@std@@V?$allocator@_W@2@@std@@@2@V?$allocator@U?$pair@$$CBV?$basic_string@_WU?$char_traits@_W@std@@V?$allocator@_W@2@@std@@V?$map@V?$basic_string@_WU?$char_traits@_W@std@@V?$allocator@_W@2@@std@@V12@U?$less@V?$basic_string@_WU?$char_traits@_W@std@@V?$allocator@_W@2@@std@@@2@V?$allocator@U?$pair@$$CBV?$basic_string@_WU?$char_traits@_W@std@@V?$allocator@_W@2@@std@@V12@@std@@@2@@2@@std@@@2@$0A@@std@@@std@@AAEPAU?$_Tree_node@U?$pair@$$CBV?$basic_string@_WU?$char_traits@_W@std@@V?$allocator@_W@2@@std@@V?$map@V?$basic_string@_WU?$char_traits@_W@std@@V?$allocator@_W@2@@std@@V12@U?$less@V?$basic_string@_WU?$char_traits@_W@std@@V?$allocator@_W@2@@std@@@2@V?$allocator@U?$pair@$$CBV?$basic_string@_WU?$char_traits@_W@std@@V?$allocator@_W@2@@std@@V12@@std@@@2@@2@@std@@PAX@2@V?$_Tree_unchecked_const_iterator@V?$_Tree_val@U?$_Tree_simple_types@U?$pair@$$CBV?$basic_string@_WU?$char_traits@_W@std@@V?$allocator@_W@2@@std@@V?$map@V?$basic_string@_WU?$char_traits@_W@std@@V?$allocator@_W@2@@std@@V12@U?$less@V?$basic_string@_WU?$char_traits@_W@std@@V?$allocator@_W@2@@std@@@2@V?$allocator@U?$pair@$$CBV?$basic_string@_WU?$char_traits@_W@std@@V?$allocator@_W@2@@std@@V12@@std@@@2@@2@@std@@@std@@@std@@U_Iterator_base0@2@@2@@Z 00425b8f f i version_info_editor.obj
 0001:00024bbd       ?_Extract@?$_Tree_val@U?$_Tree_simple_types@U?$pair@$$CBGG@std@@@std@@@std@@QAEPAU?$_Tree_node@U?$pair@$$CBGG@std@@PAX@2@V?$_Tree_unchecked_const_iterator@V?$_Tree_val@U?$_Tree_simple_types@U?$pair@$$CBGG@std@@@std@@@std@@U_Iterator_base0@2@@2@@Z 00425bbd f i version_info_editor.obj
 0001:00024e00       ?_Extract@?$_Tree_val@U?$_Tree_simple_types@U?$pair@$$CBV?$basic_string@_WU?$char_traits@_W@std@@V?$allocator@_W@2@@std@@V?$map@V?$basic_string@_WU?$char_traits@_W@std@@V?$allocator@_W@2@@std@@V12@U?$less@V?$basic_string@_WU?$char_traits@_W@std@@V?$allocator@_W@2@@std@@@2@V?$allocator@U?$pair@$$CBV?$basic_string@_WU?$char_traits@_W@std@@V?$allocator@_W@2@@std@@V12@@std@@@2@@2@@std@@@std@@@std@@QAEPAU?$_Tree_node@U?$pair@$$CBV?$basic_string@_WU?$char_traits@_W@std@@V?$allocator@_W@2@@std@@V?$map@V?$basic_string@_WU?$char_traits@_W@std@@V?$allocator@_W@2@@std@@V12@U?$less@V?$basic_string@_WU?$char_traits@_W@std@@V?$allocator@_W@2@@std@@@2@V?$allocator@U?$pair@$$CBV?$basic_string@_WU?$char_traits@_W@std@@V?$allocator@_W@2@@std@@V12@@std@@@2@@2@@std@@PAX@2@V?$_Tree_unchecked_const_iterator@V?$_Tree_val@U?$_Tree_simple_types@U?$pair@$$CBV?$basic_string@_WU?$char_traits@_W@std@@V?$allocator@_W@2@@std@@V?$map@V?$basic_string@_WU?$char_traits@_W@std@@V?$allocator@_W@2@@std@@V12@U?$less@V?$basic_string@_WU?$char_traits@_W@std@@V?$allocator@_W@2@@std@@@2@V?$allocator@U?$pair@$$CBV?$basic_string@_WU?$char_traits@_W@std@@V?$allocator@_W@2@@std@@V12@@std@@@2@@2@@std@@@std@@@std@@U_Iterator_base0@2@@2@@Z 00425e00 f i version_info_editor.obj
 0001:00025043       ?_Ffmt@?$num_put@_WV?$ostreambuf_iterator@_WU?$char_traits@_W@std@@@std@@@std@@ABAPADPADDH@Z 00426043 f i version_info_editor.obj
 0001:000250d7       ?_Fput@?$num_put@_WV?$ostreambuf_iterator@_WU?$char_traits@_W@std@@@std@@@std@@ABA?AV?$ostreambuf_iterator@_WU?$char_traits@_W@std@@@2@V32@AAVios_base@2@_WPBDI@Z 004260d7 f i version_info_editor.obj
 0001:00025446       ?_Getcat@?$ctype@_W@std@@SAIPAPBVfacet@locale@2@PBV42@@Z 00426446 f i version_info_editor.obj
 0001:000254ab       ?_Getcat@?$num_put@_WV?$ostreambuf_iterator@_WU?$char_traits@_W@std@@@std@@@std@@SAIPAPBVfacet@locale@2@PBV42@@Z 004264ab f i version_info_editor.obj
 0001:00025508       ?_Getcat@?$numpunct@_W@std@@SGIPAPBVfacet@locale@2@PBV42@@Z 00426508 f i version_info_editor.obj
 0001:00025570       ?_Getstate@?$basic_stringbuf@_WU?$char_traits@_W@std@@V?$allocator@_W@2@@std@@CGHH@Z 00426570 f i version_info_editor.obj
 0001:000255a6       ?_Ifmt@?$num_put@_WV?$ostreambuf_iterator@_WU?$char_traits@_W@std@@@std@@@std@@ABAPADPADPBDH@Z 004265a6 f i version_info_editor.obj
 0001:0002561a       ?_Init@?$basic_streambuf@_WU?$char_traits@_W@std@@@std@@IAEXXZ 0042661a f i version_info_editor.obj
 0001:00025658       ?_Init@?$ctype@_W@std@@IAEXABV_Locinfo@2@@Z 00426658 f i version_info_editor.obj
 0001:00025691       ?_Init@?$numpunct@_W@std@@IAEXABV_Locinfo@2@_N@Z 00426691 f i version_info_editor.obj
 0001:0002576a       ?_Init@ios_base@std@@IAEXXZ 0042676a f i version_info_editor.obj
 0001:000257c2       ?_Iput@?$num_put@_WV?$ostreambuf_iterator@_WU?$char_traits@_W@std@@@std@@@std@@ABA?AV?$ostreambuf_iterator@_WU?$char_traits@_W@std@@@2@V32@AAVios_base@2@_WPADI@Z 004267c2 f i version_info_editor.obj
 0001:00025ac9       ?_Lock@?$basic_streambuf@_WU?$char_traits@_W@std@@@std@@UAEXXZ 00426ac9 f i version_info_editor.obj
 0001:00025aca       ?_Osfx@?$basic_ostream@_WU?$char_traits@_W@std@@@std@@QAEXXZ 00426aca f i version_info_editor.obj
 0001:00025b30       ?_Put@?$num_put@_WV?$ostreambuf_iterator@_WU?$char_traits@_W@std@@@std@@@std@@ABA?AV?$ostreambuf_iterator@_WU?$char_traits@_W@std@@@2@V32@PB_WI@Z 00426b30 f i version_info_editor.obj
 0001:00025b65       ?_Rep@?$num_put@_WV?$ostreambuf_iterator@_WU?$char_traits@_W@std@@@std@@@std@@ABA?AV?$ostreambuf_iterator@_WU?$char_traits@_W@std@@@2@V32@_WI@Z 00426b65 f i version_info_editor.obj
 0001:00025b91       ?_Tidy@?$basic_stringbuf@_WU?$char_traits@_W@std@@V?$allocator@_W@2@@std@@IAEXXZ 00426b91 f i version_info_editor.obj
 0001:00025bf3       ?_Tidy@?$numpunct@_W@std@@AAEXXZ 00426bf3 f i version_info_editor.obj
 0001:00025c13       ?_Unlock@?$basic_streambuf@_WU?$char_traits@_W@std@@@std@@UAEXXZ 00426c13 f i version_info_editor.obj
 0001:00025c14       ?add_translation@version_info_editor@pe_bliss@@QAEXABV?$basic_string@_WU?$char_traits@_W@std@@V?$allocator@_W@2@@std@@@Z 00426c14 f   version_info_editor.obj
 0001:00025c3a       ?add_translation@version_info_editor@pe_bliss@@QAEXGG@Z 00426c3a f   version_info_editor.obj
 0001:00025c97       ?assign@?$basic_string@_WU?$char_traits@_W@std@@V?$allocator@_W@2@@std@@QAEAAV12@I_W@Z 00426c97 f i version_info_editor.obj
 0001:00025ce2       ?clear@?$_Tree@V?$_Tmap_traits@V?$basic_string@_WU?$char_traits@_W@std@@V?$allocator@_W@2@@std@@V?$map@V?$basic_string@_WU?$char_traits@_W@std@@V?$allocator@_W@2@@std@@V12@U?$less@V?$basic_string@_WU?$char_traits@_W@std@@V?$allocator@_W@2@@std@@@2@V?$allocator@U?$pair@$$CBV?$basic_string@_WU?$char_traits@_W@std@@V?$allocator@_W@2@@std@@V12@@std@@@2@@2@U?$less@V?$basic_string@_WU?$char_traits@_W@std@@V?$allocator@_W@2@@std@@@2@V?$allocator@U?$pair@$$CBV?$basic_string@_WU?$char_traits@_W@std@@V?$allocator@_W@2@@std@@V?$map@V?$basic_string@_WU?$char_traits@_W@std@@V?$allocator@_W@2@@std@@V12@U?$less@V?$basic_string@_WU?$char_traits@_W@std@@V?$allocator@_W@2@@std@@@2@V?$allocator@U?$pair@$$CBV?$basic_string@_WU?$char_traits@_W@std@@V?$allocator@_W@2@@std@@V12@@std@@@2@@2@@std@@@2@$0A@@std@@@std@@QAEXXZ 00426ce2 f i version_info_editor.obj
 0001:00025d00       ?do_decimal_point@?$numpunct@_W@std@@MBE_WXZ 00426d00 f i version_info_editor.obj
 0001:00025d05       ?do_falsename@?$numpunct@_W@std@@MBE?AV?$basic_string@_WU?$char_traits@_W@std@@V?$allocator@_W@2@@2@XZ 00426d05 f i version_info_editor.obj
 0001:00025d18       ?do_grouping@?$numpunct@_W@std@@MBE?AV?$basic_string@DU?$char_traits@D@std@@V?$allocator@D@2@@2@XZ 00426d18 f i version_info_editor.obj
 0001:00025d2b       ?do_is@?$ctype@_W@std@@MBEPB_WPB_W0PAF@Z 00426d2b f i version_info_editor.obj
 0001:00025d46       ?do_is@?$ctype@_W@std@@MBE_NF_W@Z 00426d46 f i version_info_editor.obj
 0001:00025d60       ?do_narrow@?$ctype@_W@std@@MBED_WD@Z 00426d60 f i version_info_editor.obj
 0001:00025d65       ?do_narrow@?$ctype@_W@std@@MBEPB_WPB_W0DPAD@Z 00426d65 f i version_info_editor.obj
 0001:00025d9a       ?do_put@?$num_put@_WV?$ostreambuf_iterator@_WU?$char_traits@_W@std@@@std@@@std@@MBE?AV?$ostreambuf_iterator@_WU?$char_traits@_W@std@@@2@V32@AAVios_base@2@_WJ@Z 00426d9a f i version_info_editor.obj
 0001:00025def       ?do_put@?$num_put@_WV?$ostreambuf_iterator@_WU?$char_traits@_W@std@@@std@@@std@@MBE?AV?$ostreambuf_iterator@_WU?$char_traits@_W@std@@@2@V32@AAVios_base@2@_WK@Z 00426def f i version_info_editor.obj
 0001:00025e44       ?do_put@?$num_put@_WV?$ostreambuf_iterator@_WU?$char_traits@_W@std@@@std@@@std@@MBE?AV?$ostreambuf_iterator@_WU?$char_traits@_W@std@@@2@V32@AAVios_base@2@_WN@Z 00426e44 f i version_info_editor.obj
 0001:00025fa6       ?do_put@?$num_put@_WV?$ostreambuf_iterator@_WU?$char_traits@_W@std@@@std@@@std@@MBE?AV?$ostreambuf_iterator@_WU?$char_traits@_W@std@@@2@V32@AAVios_base@2@_WO@Z 00426fa6 f i version_info_editor.obj
 0001:00026108       ?do_put@?$num_put@_WV?$ostreambuf_iterator@_WU?$char_traits@_W@std@@@std@@@std@@MBE?AV?$ostreambuf_iterator@_WU?$char_traits@_W@std@@@2@V32@AAVios_base@2@_WPBX@Z 00427108 f i version_info_editor.obj
 0001:00026149       ?do_put@?$num_put@_WV?$ostreambuf_iterator@_WU?$char_traits@_W@std@@@std@@@std@@MBE?AV?$ostreambuf_iterator@_WU?$char_traits@_W@std@@@2@V32@AAVios_base@2@_W_J@Z 00427149 f i version_info_editor.obj
 0001:000261a1       ?do_put@?$num_put@_WV?$ostreambuf_iterator@_WU?$char_traits@_W@std@@@std@@@std@@MBE?AV?$ostreambuf_iterator@_WU?$char_traits@_W@std@@@2@V32@AAVios_base@2@_W_K@Z 004271a1 f i version_info_editor.obj
 0001:000261f9       ?do_put@?$num_put@_WV?$ostreambuf_iterator@_WU?$char_traits@_W@std@@@std@@@std@@MBE?AV?$ostreambuf_iterator@_WU?$char_traits@_W@std@@@2@V32@AAVios_base@2@_W_N@Z 004271f9 f i version_info_editor.obj
 0001:0002639a       ?do_scan_is@?$ctype@_W@std@@MBEPB_WFPB_W0@Z 0042739a f i version_info_editor.obj
 0001:000263c7       ?do_scan_not@?$ctype@_W@std@@MBEPB_WFPB_W0@Z 004273c7 f i version_info_editor.obj
 0001:000263f4       ?do_thousands_sep@?$numpunct@_W@std@@MBE_WXZ 004273f4 f i version_info_editor.obj
 0001:000263f9       ?do_tolower@?$ctype@_W@std@@MBEPB_WPA_WPB_W@Z 004273f9 f i version_info_editor.obj
 0001:00026427       ?do_tolower@?$ctype@_W@std@@MBE_W_W@Z 00427427 f i version_info_editor.obj
 0001:00026439       ?do_toupper@?$ctype@_W@std@@MBEPB_WPA_WPB_W@Z 00427439 f i version_info_editor.obj
 0001:00026467       ?do_toupper@?$ctype@_W@std@@MBE_W_W@Z 00427467 f i version_info_editor.obj
 0001:00026479       ?do_truename@?$numpunct@_W@std@@MBE?AV?$basic_string@_WU?$char_traits@_W@std@@V?$allocator@_W@2@@2@XZ 00427479 f i version_info_editor.obj
 0001:0002648c       ?do_widen@?$ctype@_W@std@@MBEPBDPBD0PA_W@Z 0042748c f i version_info_editor.obj
 0001:000264bf       ?do_widen@?$ctype@_W@std@@MBE_WD@Z 004274bf f i version_info_editor.obj
 0001:000264c4       ?erase@?$_Tree@V?$_Tmap_traits@V?$basic_string@_WU?$char_traits@_W@std@@V?$allocator@_W@2@@std@@V?$map@V?$basic_string@_WU?$char_traits@_W@std@@V?$allocator@_W@2@@std@@V12@U?$less@V?$basic_string@_WU?$char_traits@_W@std@@V?$allocator@_W@2@@std@@@2@V?$allocator@U?$pair@$$CBV?$basic_string@_WU?$char_traits@_W@std@@V?$allocator@_W@2@@std@@V12@@std@@@2@@2@U?$less@V?$basic_string@_WU?$char_traits@_W@std@@V?$allocator@_W@2@@std@@@2@V?$allocator@U?$pair@$$CBV?$basic_string@_WU?$char_traits@_W@std@@V?$allocator@_W@2@@std@@V?$map@V?$basic_string@_WU?$char_traits@_W@std@@V?$allocator@_W@2@@std@@V12@U?$less@V?$basic_string@_WU?$char_traits@_W@std@@V?$allocator@_W@2@@std@@@2@V?$allocator@U?$pair@$$CBV?$basic_string@_WU?$char_traits@_W@std@@V?$allocator@_W@2@@std@@V12@@std@@@2@@2@@std@@@2@$0A@@std@@@std@@QAEIABV?$basic_string@_WU?$char_traits@_W@std@@V?$allocator@_W@2@@2@@Z 004274c4 f i version_info_editor.obj
 0001:000264fb       ?flush@?$basic_ostream@_WU?$char_traits@_W@std@@@std@@QAEAAV12@XZ 004274fb f i version_info_editor.obj
 0001:0002654f       ?hex@std@@YAAAVios_base@1@AAV21@@Z 0042754f f i version_info_editor.obj
 0001:00026566       ?imbue@?$basic_streambuf@_WU?$char_traits@_W@std@@@std@@MAEXABVlocale@2@@Z 00427566 f i version_info_editor.obj
 0001:00026569       ?init@?$basic_ios@_WU?$char_traits@_W@std@@@std@@IAEXPAV?$basic_streambuf@_WU?$char_traits@_W@std@@@2@_N@Z 00427569 f i version_info_editor.obj
 0001:000265b1       ?insert@?$basic_string@_WU?$char_traits@_W@std@@V?$allocator@_W@2@@std@@QAEAAV12@II_W@Z 004275b1 f i version_info_editor.obj
 0001:00026628       ?overflow@?$basic_streambuf@_WU?$char_traits@_W@std@@@std@@MAEGG@Z 00427628 f i version_info_editor.obj
 0001:00026630       ?overflow@?$basic_stringbuf@_WU?$char_traits@_W@std@@V?$allocator@_W@2@@std@@MAEGG@Z 00427630 f i version_info_editor.obj
 0001:00026793       ?pbackfail@?$basic_streambuf@_WU?$char_traits@_W@std@@@std@@MAEGG@Z 00427793 f i version_info_editor.obj
 0001:0002679b       ?pbackfail@?$basic_stringbuf@_WU?$char_traits@_W@std@@V?$allocator@_W@2@@std@@MAEGG@Z 0042779b f i version_info_editor.obj
 0001:000267f5       ?remove_translation@version_info_editor@pe_bliss@@QAEXABV?$basic_string@_WU?$char_traits@_W@std@@V?$allocator@_W@2@@std@@@Z 004277f5 f   version_info_editor.obj
 0001:0002681b       ?remove_translation@version_info_editor@pe_bliss@@QAEXGG@Z 0042781b f   version_info_editor.obj
 0001:00026919       ?seekoff@?$basic_streambuf@_WU?$char_traits@_W@std@@@std@@MAE?AV?$fpos@U_Mbstatet@@@2@_JHH@Z 00427919 f i version_info_editor.obj
 0001:00026935       ?seekoff@?$basic_stringbuf@_WU?$char_traits@_W@std@@V?$allocator@_W@2@@std@@MAE?AV?$fpos@U_Mbstatet@@@2@_JHH@Z 00427935 f i version_info_editor.obj
 0001:00026ac6       ?seekpos@?$basic_streambuf@_WU?$char_traits@_W@std@@@std@@MAE?AV?$fpos@U_Mbstatet@@@2@V32@H@Z 00427ac6 f i version_info_editor.obj
 0001:00026ae2       ?seekpos@?$basic_stringbuf@_WU?$char_traits@_W@std@@V?$allocator@_W@2@@std@@MAE?AV?$fpos@U_Mbstatet@@@2@V32@H@Z 00427ae2 f i version_info_editor.obj
 0001:00026bd8       ?set_company_name@version_info_editor@pe_bliss@@QAEXABV?$basic_string@_WU?$char_traits@_W@std@@V?$allocator@_W@2@@std@@0@Z 00427bd8 f   version_info_editor.obj
 0001:00026c50       ?set_file_description@version_info_editor@pe_bliss@@QAEXABV?$basic_string@_WU?$char_traits@_W@std@@V?$allocator@_W@2@@std@@0@Z 00427c50 f   version_info_editor.obj
 0001:00026cc8       ?set_file_version@version_info_editor@pe_bliss@@QAEXABV?$basic_string@_WU?$char_traits@_W@std@@V?$allocator@_W@2@@std@@0@Z 00427cc8 f   version_info_editor.obj
 0001:00026d40       ?set_internal_name@version_info_editor@pe_bliss@@QAEXABV?$basic_string@_WU?$char_traits@_W@std@@V?$allocator@_W@2@@std@@0@Z 00427d40 f   version_info_editor.obj
 0001:00026db8       ?set_legal_copyright@version_info_editor@pe_bliss@@QAEXABV?$basic_string@_WU?$char_traits@_W@std@@V?$allocator@_W@2@@std@@0@Z 00427db8 f   version_info_editor.obj
 0001:00026e30       ?set_original_filename@version_info_editor@pe_bliss@@QAEXABV?$basic_string@_WU?$char_traits@_W@std@@V?$allocator@_W@2@@std@@0@Z 00427e30 f   version_info_editor.obj
 0001:00026ea8       ?set_product_name@version_info_editor@pe_bliss@@QAEXABV?$basic_string@_WU?$char_traits@_W@std@@V?$allocator@_W@2@@std@@0@Z 00427ea8 f   version_info_editor.obj
 0001:00026f20       ?set_product_version@version_info_editor@pe_bliss@@QAEXABV?$basic_string@_WU?$char_traits@_W@std@@V?$allocator@_W@2@@std@@0@Z 00427f20 f   version_info_editor.obj
 0001:00026f98       ?set_property@version_info_editor@pe_bliss@@QAEXABV?$basic_string@_WU?$char_traits@_W@std@@V?$allocator@_W@2@@std@@00@Z 00427f98 f   version_info_editor.obj
 0001:000270fa       ?setbuf@?$basic_streambuf@_WU?$char_traits@_W@std@@@std@@MAEPAV12@PA_W_J@Z 004280fa f i version_info_editor.obj
 0001:000270ff       ?showmanyc@?$basic_streambuf@_WU?$char_traits@_W@std@@@std@@MAE_JXZ 004280ff f i version_info_editor.obj
 0001:00027104       ?sputc@?$basic_streambuf@_WU?$char_traits@_W@std@@@std@@QAEG_W@Z 00428104 f i version_info_editor.obj
 0001:0002713d       ?str@?$basic_stringbuf@_WU?$char_traits@_W@std@@V?$allocator@_W@2@@std@@QBE?AV?$basic_string@_WU?$char_traits@_W@std@@V?$allocator@_W@2@@2@XZ 0042813d f i version_info_editor.obj
 0001:000271ad       ?sync@?$basic_streambuf@_WU?$char_traits@_W@std@@@std@@MAEHXZ 004281ad f i version_info_editor.obj
 0001:000271b0       ?uflow@?$basic_streambuf@_WU?$char_traits@_W@std@@@std@@MAEGXZ 004281b0 f i version_info_editor.obj
 0001:000271d9       ?underflow@?$basic_streambuf@_WU?$char_traits@_W@std@@@std@@MAEGXZ 004281d9 f i version_info_editor.obj
 0001:000271df       ?underflow@?$basic_stringbuf@_WU?$char_traits@_W@std@@V?$allocator@_W@2@@std@@MAEGXZ 004281df f i version_info_editor.obj
 0001:00027239       ?widen@?$basic_ios@_WU?$char_traits@_W@std@@@std@@QBE_WD@Z 00428239 f i version_info_editor.obj
 0001:00027274       ?xsgetn@?$basic_streambuf@_WU?$char_traits@_W@std@@@std@@MAE_JPA_W_J@Z 00428274 f i version_info_editor.obj
 0001:00027355       ?xsputn@?$basic_streambuf@_WU?$char_traits@_W@std@@@std@@MAE_JPB_W_J@Z 00428355 f i version_info_editor.obj
 0001:0002742f       ___local_stdio_printf_options 0042842f f i version_info_editor.obj
 0001:00027435       __vsprintf_s_l             00428435 f i version_info_editor.obj
 0001:00027463       _sprintf_s                 00428463 f i version_info_editor.obj
 0001:0002747f       _wmemset                   0042847f f i version_info_editor.obj
 0001:000274a9       ??$?6_WU?$char_traits@_W@std@@V?$allocator@_W@1@@std@@YGAAV?$basic_ostream@_WU?$char_traits@_W@std@@@0@AAV10@ABV?$basic_string@_WU?$char_traits@_W@std@@V?$allocator@_W@2@@0@@Z 004284a9 f i version_info_viewer.obj
 0001:000274c7       ??$?8_WU?$char_traits@_W@std@@@std@@YG_NABV?$istreambuf_iterator@_WU?$char_traits@_W@std@@@0@0@Z 004284c7 f i version_info_viewer.obj
 0001:000274d7       ??$?9_WU?$char_traits@_W@std@@@std@@YG_NABV?$istreambuf_iterator@_WU?$char_traits@_W@std@@@0@0@Z 004284d7 f i version_info_viewer.obj
 0001:000274ed       ??$_Common_extract_with_num_get@I@?$basic_istream@_WU?$char_traits@_W@std@@@std@@AAEAAV01@AAI@Z 004284ed f i version_info_viewer.obj
 0001:0002760a       ??$_Emplace_reallocate@V?$basic_string@_WU?$char_traits@_W@std@@V?$allocator@_W@2@@std@@@?$vector@V?$basic_string@_WU?$char_traits@_W@std@@V?$allocator@_W@2@@std@@V?$allocator@V?$basic_string@_WU?$char_traits@_W@std@@V?$allocator@_W@2@@std@@@2@@std@@QAEPAV?$basic_string@_WU?$char_traits@_W@std@@V?$allocator@_W@2@@1@QAV21@$$QAV21@@Z 0042860a f i version_info_viewer.obj
 0001:00027701       ??$_Find@V?$basic_string@_WU?$char_traits@_W@std@@V?$allocator@_W@2@@std@@@?$_Tree@V?$_Tmap_traits@V?$basic_string@_WU?$char_traits@_W@std@@V?$allocator@_W@2@@std@@V12@U?$less@V?$basic_string@_WU?$char_traits@_W@std@@V?$allocator@_W@2@@std@@@2@V?$allocator@U?$pair@$$CBV?$basic_string@_WU?$char_traits@_W@std@@V?$allocator@_W@2@@std@@V12@@std@@@2@$0A@@std@@@std@@ABEPAU?$_Tree_node@U?$pair@$$CBV?$basic_string@_WU?$char_traits@_W@std@@V?$allocator@_W@2@@std@@V12@@std@@PAX@1@ABV?$basic_string@_WU?$char_traits@_W@std@@V?$allocator@_W@2@@1@@Z 00428701 f i version_info_viewer.obj
 0001:00027731       ??$_Find_elem@_W$0BL@@std@@YGIAAY0BL@$$CB_W_W@Z 00428731 f i version_info_viewer.obj
 0001:00027757       ??$_Find_elem@_W$0BN@@std@@YGIAAY0BN@$$CB_W_W@Z 00428757 f i version_info_viewer.obj
 0001:0002777d       ??$_Find_elem@_W$0P@@std@@YGIAAY0P@$$CB_W_W@Z 0042877d f i version_info_viewer.obj
 0001:000277a3       ??$_Find_unchecked1@PB_W_W@std@@YGPB_WPB_WQB_WAB_WU?$integral_constant@_N$0A@@0@@Z 004287a3 f i version_info_viewer.obj
 0001:000277c7       ??$_Find_unchecked@PB_W_W@std@@YGPB_WQB_W0AB_W@Z 004287c7 f i version_info_viewer.obj
 0001:000277e4       ??$_Getloctxt@_WV?$istreambuf_iterator@_WU?$char_traits@_W@std@@@std@@@std@@YAHAAV?$istreambuf_iterator@_WU?$char_traits@_W@std@@@0@0IPB_W@Z 004287e4 f i version_info_viewer.obj
 0001:000279ce       ??$_Insert_string@_WU?$char_traits@_W@std@@I@std@@YGAAV?$basic_ostream@_WU?$char_traits@_W@std@@@0@AAV10@QB_WI@Z 004289ce f i version_info_viewer.obj
 0001:00027b60       ??$_Reallocate_grow_by@V<lambda_15711c68e099a15a58f4d77303cb286d>@@D@?$basic_string@DU?$char_traits@D@std@@V?$allocator@D@2@@std@@AAEAAV01@IV<lambda_15711c68e099a15a58f4d77303cb286d>@@D@Z 00428b60 f i version_info_viewer.obj
 0001:00027bf8       ??$_Reallocate_grow_by@V<lambda_2fb699096920f2dc628cb0826b07831d>@@PB_WI@?$basic_string@_WU?$char_traits@_W@std@@V?$allocator@_W@2@@std@@AAEAAV01@IV<lambda_2fb699096920f2dc628cb0826b07831d>@@PB_WI@Z 00428bf8 f i version_info_viewer.obj
 0001:00027c8c       ??$_Reallocate_grow_by@V<lambda_38fb7828f6004e9a4c6a38bfc6df7f44>@@_W@?$basic_string@_WU?$char_traits@_W@std@@V?$allocator@_W@2@@std@@AAEAAV01@IV<lambda_38fb7828f6004e9a4c6a38bfc6df7f44>@@_W@Z 00428c8c f i version_info_viewer.obj
 0001:00027d44       ??$use_facet@V?$num_get@_WV?$istreambuf_iterator@_WU?$char_traits@_W@std@@@std@@@std@@@std@@YAABV?$num_get@_WV?$istreambuf_iterator@_WU?$char_traits@_W@std@@@std@@@0@ABVlocale@0@@Z 00428d44 f i version_info_viewer.obj
 0001:00027dbd       ??0?$istreambuf_iterator@_WU?$char_traits@_W@std@@@std@@QAE@AAV?$basic_istream@_WU?$char_traits@_W@std@@@1@@Z 00428dbd f i version_info_viewer.obj
 0001:00027ddf       ??0version_info_viewer@pe_bliss@@QAE@ABV?$map@V?$basic_string@_WU?$char_traits@_W@std@@V?$allocator@_W@2@@std@@V?$map@V?$basic_string@_WU?$char_traits@_W@std@@V?$allocator@_W@2@@std@@V12@U?$less@V?$basic_string@_WU?$char_traits@_W@std@@V?$allocator@_W@2@@std@@@2@V?$allocator@U?$pair@$$CBV?$basic_string@_WU?$char_traits@_W@std@@V?$allocator@_W@2@@std@@V12@@std@@@2@@2@U?$less@V?$basic_string@_WU?$char_traits@_W@std@@V?$allocator@_W@2@@std@@@2@V?$allocator@U?$pair@$$CBV?$basic_string@_WU?$char_traits@_W@std@@V?$allocator@_W@2@@std@@V?$map@V?$basic_string@_WU?$char_traits@_W@std@@V?$allocator@_W@2@@std@@V12@U?$less@V?$basic_string@_WU?$char_traits@_W@std@@V?$allocator@_W@2@@std@@@2@V?$allocator@U?$pair@$$CBV?$basic_string@_WU?$char_traits@_W@std@@V?$allocator@_W@2@@std@@V12@@std@@@2@@2@@std@@@2@@std@@ABV?$multimap@GGU?$less@G@std@@V?$allocator@U?$pair@$$CBGG@std@@@2@@3@@Z 00428ddf f   version_info_viewer.obj
 0001:00027df1       ??1?$num_get@_WV?$istreambuf_iterator@_WU?$char_traits@_W@std@@@std@@@std@@MAE@XZ 00428df1 f i version_info_viewer.obj
 0001:00027df8       ??R<lambda_2fb699096920f2dc628cb0826b07831d>@@QBEXQA_WQB_WI1I@Z 00428df8 f i version_info_viewer.obj
 0001:00027e3e       ??_E?$num_get@_WV?$istreambuf_iterator@_WU?$char_traits@_W@std@@@std@@@std@@MAEPAXI@Z 00428e3e f i version_info_viewer.obj
 0001:00027e3e       ??_G?$num_get@_WV?$istreambuf_iterator@_WU?$char_traits@_W@std@@@std@@@std@@MAEPAXI@Z 00428e3e f i version_info_viewer.obj
 0001:00027e5e       ?_Getcat@?$num_get@_WV?$istreambuf_iterator@_WU?$char_traits@_W@std@@@std@@@std@@SAIPAPBVfacet@locale@2@PBV42@@Z 00428e5e f i version_info_viewer.obj
 0001:00027ebb       ?_Getffld@?$num_get@_WV?$istreambuf_iterator@_WU?$char_traits@_W@std@@@std@@@std@@ABAHPADAAV?$istreambuf_iterator@_WU?$char_traits@_W@std@@@2@1AAVios_base@2@PAH@Z 00428ebb f i version_info_viewer.obj
 0001:00028589       ?_Getffldx@?$num_get@_WV?$istreambuf_iterator@_WU?$char_traits@_W@std@@@std@@@std@@ABAHPADAAV?$istreambuf_iterator@_WU?$char_traits@_W@std@@@2@1AAVios_base@2@PAH@Z 00429589 f i version_info_viewer.obj
 0001:00028c24       ?_Getifld@?$num_get@_WV?$istreambuf_iterator@_WU?$char_traits@_W@std@@@std@@@std@@ABAHPADAAV?$istreambuf_iterator@_WU?$char_traits@_W@std@@@2@1HABVlocale@2@@Z 00429c24 f i version_info_viewer.obj
 0001:00029012       ?_Inc@?$istreambuf_iterator@_WU?$char_traits@_W@std@@@std@@AAEXXZ 0042a012 f i version_info_viewer.obj
 0001:00029038       ?_Ipfx@?$basic_istream@_WU?$char_traits@_W@std@@@std@@QAE_N_N@Z 0042a038 f i version_info_viewer.obj
 0001:0002918a       ?_Peek@?$istreambuf_iterator@_WU?$char_traits@_W@std@@@std@@ABE_WXZ 0042a18a f i version_info_viewer.obj
 0001:000291b8       ?_Stodx_v2@std@@YGNPBDPAPADHPAH@Z 0042a1b8 f i version_info_viewer.obj
 0001:00029215       ?_Stofx_v2@std@@YGMPBDPAPADHPAH@Z 0042a215 f i version_info_viewer.obj
 0001:00029274       ?append@?$basic_string@_WU?$char_traits@_W@std@@V?$allocator@_W@2@@std@@QAEAAV12@QB_WI@Z 0042a274 f i version_info_viewer.obj
 0001:000292d2       ?do_get@?$num_get@_WV?$istreambuf_iterator@_WU?$char_traits@_W@std@@@std@@@std@@MBE?AV?$istreambuf_iterator@_WU?$char_traits@_W@std@@@2@V32@0AAVios_base@2@AAHAAG@Z 0042a2d2 f i version_info_viewer.obj
 0001:000293bf       ?do_get@?$num_get@_WV?$istreambuf_iterator@_WU?$char_traits@_W@std@@@std@@@std@@MBE?AV?$istreambuf_iterator@_WU?$char_traits@_W@std@@@2@V32@0AAVios_base@2@AAHAAI@Z 0042a3bf f i version_info_viewer.obj
 0001:00029402       ?do_get@?$num_get@_WV?$istreambuf_iterator@_WU?$char_traits@_W@std@@@std@@@std@@MBE?AV?$istreambuf_iterator@_WU?$char_traits@_W@std@@@2@V32@0AAVios_base@2@AAHAAJ@Z 0042a402 f i version_info_viewer.obj
 0001:000294af       ?do_get@?$num_get@_WV?$istreambuf_iterator@_WU?$char_traits@_W@std@@@std@@@std@@MBE?AV?$istreambuf_iterator@_WU?$char_traits@_W@std@@@2@V32@0AAVios_base@2@AAHAAK@Z 0042a4af f i version_info_viewer.obj
 0001:0002955c       ?do_get@?$num_get@_WV?$istreambuf_iterator@_WU?$char_traits@_W@std@@@std@@@std@@MBE?AV?$istreambuf_iterator@_WU?$char_traits@_W@std@@@2@V32@0AAVios_base@2@AAHAAM@Z 0042a55c f i version_info_viewer.obj
 0001:00029626       ?do_get@?$num_get@_WV?$istreambuf_iterator@_WU?$char_traits@_W@std@@@std@@@std@@MBE?AV?$istreambuf_iterator@_WU?$char_traits@_W@std@@@2@V32@0AAVios_base@2@AAHAAN@Z 0042a626 f i version_info_viewer.obj
 0001:000296f1       ?do_get@?$num_get@_WV?$istreambuf_iterator@_WU?$char_traits@_W@std@@@std@@@std@@MBE?AV?$istreambuf_iterator@_WU?$char_traits@_W@std@@@2@V32@0AAVios_base@2@AAHAAO@Z 0042a6f1 f i version_info_viewer.obj
 0001:00029736       ?do_get@?$num_get@_WV?$istreambuf_iterator@_WU?$char_traits@_W@std@@@std@@@std@@MBE?AV?$istreambuf_iterator@_WU?$char_traits@_W@std@@@2@V32@0AAVios_base@2@AAHAAPAX@Z 0042a736 f i version_info_viewer.obj
 0001:000297dc       ?do_get@?$num_get@_WV?$istreambuf_iterator@_WU?$char_traits@_W@std@@@std@@@std@@MBE?AV?$istreambuf_iterator@_WU?$char_traits@_W@std@@@2@V32@0AAVios_base@2@AAHAA_J@Z 0042a7dc f i version_info_viewer.obj
 0001:00029890       ?do_get@?$num_get@_WV?$istreambuf_iterator@_WU?$char_traits@_W@std@@@std@@@std@@MBE?AV?$istreambuf_iterator@_WU?$char_traits@_W@std@@@2@V32@0AAVios_base@2@AAHAA_K@Z 0042a890 f i version_info_viewer.obj
 0001:00029944       ?do_get@?$num_get@_WV?$istreambuf_iterator@_WU?$char_traits@_W@std@@@std@@@std@@MBE?AV?$istreambuf_iterator@_WU?$char_traits@_W@std@@@2@V32@0AAVios_base@2@AAHAA_N@Z 0042a944 f i version_info_viewer.obj
 0001:00029b20       ?equal@?$istreambuf_iterator@_WU?$char_traits@_W@std@@@std@@QBE_NABV12@@Z 0042ab20 f i version_info_viewer.obj
 0001:00029b57       ?get_company_name@version_info_viewer@pe_bliss@@QBE?BV?$basic_string@_WU?$char_traits@_W@std@@V?$allocator@_W@2@@std@@ABV34@@Z 0042ab57 f   version_info_viewer.obj
 0001:00029bd4       ?get_file_description@version_info_viewer@pe_bliss@@QBE?BV?$basic_string@_WU?$char_traits@_W@std@@V?$allocator@_W@2@@std@@ABV34@@Z 0042abd4 f   version_info_viewer.obj
 0001:00029c51       ?get_file_version@version_info_viewer@pe_bliss@@QBE?BV?$basic_string@_WU?$char_traits@_W@std@@V?$allocator@_W@2@@std@@ABV34@@Z 0042ac51 f   version_info_viewer.obj
 0001:00029cce       ?get_internal_name@version_info_viewer@pe_bliss@@QBE?BV?$basic_string@_WU?$char_traits@_W@std@@V?$allocator@_W@2@@std@@ABV34@@Z 0042acce f   version_info_viewer.obj
 0001:00029d4b       ?get_legal_copyright@version_info_viewer@pe_bliss@@QBE?BV?$basic_string@_WU?$char_traits@_W@std@@V?$allocator@_W@2@@std@@ABV34@@Z 0042ad4b f   version_info_viewer.obj
 0001:00029dc8       ?get_original_filename@version_info_viewer@pe_bliss@@QBE?BV?$basic_string@_WU?$char_traits@_W@std@@V?$allocator@_W@2@@std@@ABV34@@Z 0042adc8 f   version_info_viewer.obj
 0001:00029e45       ?get_product_name@version_info_viewer@pe_bliss@@QBE?BV?$basic_string@_WU?$char_traits@_W@std@@V?$allocator@_W@2@@std@@ABV34@@Z 0042ae45 f   version_info_viewer.obj
 0001:00029ec2       ?get_product_version@version_info_viewer@pe_bliss@@QBE?BV?$basic_string@_WU?$char_traits@_W@std@@V?$allocator@_W@2@@std@@ABV34@@Z 0042aec2 f   version_info_viewer.obj
 0001:00029f3f       ?get_property@version_info_viewer@pe_bliss@@QBE?BV?$basic_string@_WU?$char_traits@_W@std@@V?$allocator@_W@2@@std@@ABV34@0_N@Z 0042af3f f   version_info_viewer.obj
 0001:0002a037       ?get_translation_list@version_info_viewer@pe_bliss@@QBE?BV?$vector@V?$basic_string@_WU?$char_traits@_W@std@@V?$allocator@_W@2@@std@@V?$allocator@V?$basic_string@_WU?$char_traits@_W@std@@V?$allocator@_W@2@@std@@@2@@std@@XZ 0042b037 f   version_info_viewer.obj
 0001:0002a15f       ?push_back@?$basic_string@DU?$char_traits@D@std@@V?$allocator@D@2@@std@@QAEXD@Z 0042b15f f i version_info_viewer.obj
 0001:0002a19b       ?push_back@?$basic_string@_WU?$char_traits@_W@std@@V?$allocator@_W@2@@std@@QAEX_W@Z 0042b19b f i version_info_viewer.obj
 0001:0002a1db       ?sbumpc@?$basic_streambuf@_WU?$char_traits@_W@std@@@std@@QAEGXZ 0042b1db f i version_info_viewer.obj
 0001:0002a209       ?sgetc@?$basic_streambuf@_WU?$char_traits@_W@std@@@std@@QAEGXZ 0042b209 f i version_info_viewer.obj
 0001:0002a22c       ?snextc@?$basic_streambuf@_WU?$char_traits@_W@std@@@std@@QAEGXZ 0042b22c f i version_info_viewer.obj
 0001:0002a274       ?translation_from_string@version_info_viewer@pe_bliss@@SG?BU?$pair@GG@std@@ABV?$basic_string@_WU?$char_traits@_W@std@@V?$allocator@_W@2@@4@@Z 0042b274 f   version_info_viewer.obj
 0001:0002a2e0       ??$?HDU?$char_traits@D@std@@V?$allocator@D@1@@std@@YG?AV?$basic_string@DU?$char_traits@D@std@@V?$allocator@D@2@@0@QBD$$QAV10@@Z 0042b2e0 f i mupakk_main.obj
 0001:0002a300       ??$_Assign_range@PAVexported_function@pe_bliss@@@?$vector@Vexported_function@pe_bliss@@V?$allocator@Vexported_function@pe_bliss@@@std@@@std@@AAEXPAVexported_function@pe_bliss@@0Uforward_iterator_tag@1@@Z 0042b300 f i mupakk_main.obj
 0001:0002a37d       ??$_Copy_unchecked@PAVexported_function@pe_bliss@@PAV12@@std@@YGPAVexported_function@pe_bliss@@PAV12@00@Z 0042b37d f i mupakk_main.obj
 0001:0002a3a5       ??$_Fgetc@D@std@@YG_NAADPAU_iobuf@@@Z 0042b3a5 f i mupakk_main.obj
 0001:0002a3c5       ??$_Fputc@D@std@@YG_NDPAU_iobuf@@@Z 0042b3c5 f i mupakk_main.obj
 0001:0002a3df       ??$_Pocca@V?$allocator@Vexported_function@pe_bliss@@@std@@@std@@YGXAAV?$allocator@Vexported_function@pe_bliss@@@0@ABV10@@Z 0042b3df f i mupakk_main.obj
 0001:0002a3e2       ??$_Reallocate_grow_by@V<lambda_4d79bb85f269e6e8002a4599002d832c>@@IPBDI@?$basic_string@DU?$char_traits@D@std@@V?$allocator@D@2@@std@@AAEAAV01@IV<lambda_4d79bb85f269e6e8002a4599002d832c>@@IPBDI@Z 0042b3e2 f i mupakk_main.obj
 0001:0002a470       ??$_Reallocate_grow_by@V<lambda_6607a66f2a10a1261ff9db96cba1015b>@@IID@?$basic_string@DU?$char_traits@D@std@@V?$allocator@D@2@@std@@AAEAAV01@IV<lambda_6607a66f2a10a1261ff9db96cba1015b>@@IID@Z 0042b470 f i mupakk_main.obj
 0001:0002a4fe       ??$_Traits_find_last_of@U?$char_traits@D@std@@@std@@YGIQBDII0IU?$integral_constant@_N$00@0@@Z 0042b4fe f i mupakk_main.obj
 0001:0002a583       ??$_Ungetc@D@std@@YG_NABDPAU_iobuf@@@Z 0042b583 f i mupakk_main.obj
 0001:0002a59f       ??$_Uninitialized_copy@PAVexported_function@pe_bliss@@V?$allocator@Vexported_function@pe_bliss@@@std@@@std@@YGPAVexported_function@pe_bliss@@QAV12@0PAV12@AAV?$allocator@Vexported_function@pe_bliss@@@0@@Z 0042b59f f i mupakk_main.obj
 0001:0002a5d1       ??$align_up@H@pe_utils@pe_bliss@@SGHHI@Z 0042b5d1 f i mupakk_main.obj
 0001:0002a5ed       ??$assign@PAEX@?$basic_string@DU?$char_traits@D@std@@V?$allocator@D@2@@std@@QAEAAV01@QAE0@Z 0042b5ed f i mupakk_main.obj
 0001:0002a6ab       ??$use_facet@V?$codecvt@DDU_Mbstatet@@@std@@@std@@YAABV?$codecvt@DDU_Mbstatet@@@0@ABVlocale@0@@Z 0042b6ab f i mupakk_main.obj
 0001:0002a724       ??0?$basic_filebuf@DU?$char_traits@D@std@@@std@@QAE@XZ 0042b724 f i mupakk_main.obj
 0001:0002a75d       ??0?$basic_ifstream@DU?$char_traits@D@std@@@std@@QAE@PB_WHH@Z 0042b75d f i mupakk_main.obj
 0001:0002a7e2       ??0?$basic_istream@DU?$char_traits@D@std@@@std@@QAE@PAV?$basic_streambuf@DU?$char_traits@D@std@@@1@_N@Z 0042b7e2 f i mupakk_main.obj
 0001:0002a836       ??0?$basic_ofstream@DU?$char_traits@D@std@@@std@@QAE@ABV?$basic_string@DU?$char_traits@D@std@@V?$allocator@D@2@@1@HH@Z 0042b836 f i mupakk_main.obj
 0001:0002a875       ??0?$basic_ofstream@DU?$char_traits@D@std@@@std@@QAE@PBDHH@Z 0042b875 f i mupakk_main.obj
 0001:0002a8fb       ??0?$basic_ostream@DU?$char_traits@D@std@@@std@@QAE@PAV?$basic_streambuf@DU?$char_traits@D@std@@@1@_N@Z 0042b8fb f i mupakk_main.obj
 0001:0002a947       ??0?$basic_streambuf@DU?$char_traits@D@std@@@std@@IAE@XZ 0042b947 f i mupakk_main.obj
 0001:0002a97d       ??0?$fpos@U_Mbstatet@@@std@@QAE@U_Mbstatet@@_J@Z 0042b97d f i mupakk_main.obj
 0001:0002a9a5       ??0CAtlComModule@ATL@@QAE@XZ 0042b9a5 f i mupakk_main.obj
 0001:0002a9ea       ??0CAtlWinModule@ATL@@QAE@XZ 0042b9ea f i mupakk_main.obj
 0001:0002aa21       ??1?$basic_filebuf@DU?$char_traits@D@std@@@std@@UAE@XZ 0042ba21 f i mupakk_main.obj
 0001:0002aa4a       ??1?$basic_ifstream@DU?$char_traits@D@std@@@std@@UAE@XZ 0042ba4a f i mupakk_main.obj
 0001:0002aa8d       ??1?$basic_ios@DU?$char_traits@D@std@@@std@@UAE@XZ 0042ba8d f i mupakk_main.obj
 0001:0002aa9b       ??1?$basic_istream@DU?$char_traits@D@std@@@std@@UAE@XZ 0042ba9b f i mupakk_main.obj
 0001:0002aab7       ??1?$basic_ofstream@DU?$char_traits@D@std@@@std@@UAE@XZ 0042bab7 f i mupakk_main.obj
 0001:0002aafa       ??1?$basic_ostream@DU?$char_traits@D@std@@@std@@UAE@XZ 0042bafa f i mupakk_main.obj
 0001:0002ab16       ??1?$basic_streambuf@DU?$char_traits@D@std@@@std@@UAE@XZ 0042bb16 f i mupakk_main.obj
 0001:0002ab37       ??1?$codecvt@DDU_Mbstatet@@@std@@MAE@XZ 0042bb37 f i mupakk_main.obj
 0001:0002ab3e       ??1stringdispid@CComTypeInfoHolder@ATL@@QAE@XZ 0042bb3e f i mupakk_main.obj
 0001:0002ab47       ??4exported_function@pe_bliss@@QAEAAV01@ABV01@@Z 0042bb47 f i mupakk_main.obj
 0001:0002ab8e       ??A?$CSimpleArray@GV?$CSimpleArrayEqualHelper@G@ATL@@@ATL@@QAEAAGH@Z 0042bb8e f i mupakk_main.obj
 0001:0002abb0       ??R<lambda_4d79bb85f269e6e8002a4599002d832c>@@QBEXQADQBDII1I@Z 0042bbb0 f i mupakk_main.obj
 0001:0002abf9       ??R<lambda_6607a66f2a10a1261ff9db96cba1015b>@@QBEXQADQBDIIID@Z 0042bbf9 f i mupakk_main.obj
 0001:0002ac44       ??_D?$basic_ifstream@DU?$char_traits@D@std@@@std@@QAEXXZ 0042bc44 f i mupakk_main.obj
 0001:0002ac5e       ??_D?$basic_istream@DU?$char_traits@D@std@@@std@@QAEXXZ 0042bc5e f i mupakk_main.obj
 0001:0002ac8a       ??_D?$basic_ofstream@DU?$char_traits@D@std@@@std@@QAEXXZ 0042bc8a f i mupakk_main.obj
 0001:0002aca4       ??_D?$basic_ostream@DU?$char_traits@D@std@@@std@@QAEXXZ 0042bca4 f i mupakk_main.obj
 0001:0002acd0       ??_E?$basic_ifstream@DU?$char_traits@D@std@@@std@@$4PPPPPPPM@A@AEPAXI@Z 0042bcd0 f i mupakk_main.obj
 0001:0002acd8       ??_E?$basic_istream@DU?$char_traits@D@std@@@std@@$4PPPPPPPM@A@AEPAXI@Z 0042bcd8 f i mupakk_main.obj
 0001:0002ace0       ??_E?$basic_ofstream@DU?$char_traits@D@std@@@std@@$4PPPPPPPM@A@AEPAXI@Z 0042bce0 f i mupakk_main.obj
 0001:0002ace8       ??_E?$basic_ostream@DU?$char_traits@D@std@@@std@@$4PPPPPPPM@A@AEPAXI@Z 0042bce8 f i mupakk_main.obj
 0001:0002acf0       ??_Estringdispid@CComTypeInfoHolder@ATL@@QAEPAXI@Z 0042bcf0 f i mupakk_main.obj
 0001:0002ad58       ??_G?$basic_filebuf@DU?$char_traits@D@std@@@std@@UAEPAXI@Z 0042bd58 f i mupakk_main.obj
 0001:0002ad58       ??_E?$basic_filebuf@DU?$char_traits@D@std@@@std@@UAEPAXI@Z 0042bd58 f i mupakk_main.obj
 0001:0002ad77       ??_G?$basic_ifstream@DU?$char_traits@D@std@@@std@@UAEPAXI@Z 0042bd77 f i mupakk_main.obj
 0001:0002ad77       ??_E?$basic_ifstream@DU?$char_traits@D@std@@@std@@UAEPAXI@Z 0042bd77 f i mupakk_main.obj
 0001:0002ad9c       ??_G?$basic_ios@DU?$char_traits@D@std@@@std@@UAEPAXI@Z 0042bd9c f i mupakk_main.obj
 0001:0002ad9c       ??_E?$basic_ios@DU?$char_traits@D@std@@@std@@UAEPAXI@Z 0042bd9c f i mupakk_main.obj
 0001:0002adc3       ??_G?$basic_istream@DU?$char_traits@D@std@@@std@@UAEPAXI@Z 0042bdc3 f i mupakk_main.obj
 0001:0002adc3       ??_E?$basic_istream@DU?$char_traits@D@std@@@std@@UAEPAXI@Z 0042bdc3 f i mupakk_main.obj
 0001:0002ade5       ??_G?$basic_ofstream@DU?$char_traits@D@std@@@std@@UAEPAXI@Z 0042bde5 f i mupakk_main.obj
 0001:0002ade5       ??_E?$basic_ofstream@DU?$char_traits@D@std@@@std@@UAEPAXI@Z 0042bde5 f i mupakk_main.obj
 0001:0002ae0a       ??_G?$basic_ostream@DU?$char_traits@D@std@@@std@@UAEPAXI@Z 0042be0a f i mupakk_main.obj
 0001:0002ae0a       ??_E?$basic_ostream@DU?$char_traits@D@std@@@std@@UAEPAXI@Z 0042be0a f i mupakk_main.obj
 0001:0002ae2c       ??_E?$basic_streambuf@DU?$char_traits@D@std@@@std@@UAEPAXI@Z 0042be2c f i mupakk_main.obj
 0001:0002ae2c       ??_G?$basic_streambuf@DU?$char_traits@D@std@@@std@@UAEPAXI@Z 0042be2c f i mupakk_main.obj
 0001:0002ae4b       ??_E?$codecvt@DDU_Mbstatet@@@std@@MAEPAXI@Z 0042be4b f i mupakk_main.obj
 0001:0002ae4b       ??_G?$codecvt@DDU_Mbstatet@@@std@@MAEPAXI@Z 0042be4b f i mupakk_main.obj
 0001:0002ae6b       ??_Ecodecvt_base@std@@UAEPAXI@Z 0042be6b f i mupakk_main.obj
 0001:0002ae6b       ??_Gcodecvt_base@std@@UAEPAXI@Z 0042be6b f i mupakk_main.obj
 0001:0002ae8b       ??_Gimage_config_info@pe_bliss@@QAEPAXI@Z 0042be8b f i mupakk_main.obj
 0001:0002aeb8       ??_Gtls_info@pe_bliss@@QAEPAXI@Z 0042beb8 f i mupakk_main.obj
 0001:0002aee2       ??_H@YGXPAXIIP6EPAX0@Z@Z   0042bee2 f i mupakk_main.obj
 0001:0002af04       ??_I@YGXPAXIIP6EX0@Z@Z     0042bf04 f i mupakk_main.obj
 0001:0002af2e       ?AtlWinModuleInit@ATL@@YGJPAU_ATL_WIN_MODULE70@1@@Z 0042bf2e f i mupakk_main.obj
 0001:0002af51       ?AtlWinModuleTerm@ATL@@YGJPAU_ATL_WIN_MODULE70@1@PAUHINSTANCE__@@@Z 0042bf51 f i mupakk_main.obj
 0001:0002afb2       ?Init@CComCriticalSection@ATL@@QAEJXZ 0042bfb2 f i mupakk_main.obj
 0001:0002afd9       ?RemoveAll@?$CSimpleArray@GV?$CSimpleArrayEqualHelper@G@ATL@@@ATL@@QAEXXZ 0042bfd9 f i mupakk_main.obj
 0001:0002aff6       ?Term@CAtlComModule@ATL@@QAEXXZ 0042bff6 f i mupakk_main.obj
 0001:0002b040       ?_AtlInitializeCriticalSectionEx@ATL@@YAHPAU_RTL_CRITICAL_SECTION@@KK@Z 0042c040 f i mupakk_main.obj
 0001:0002b04f       ?_AtlRaiseException@ATL@@YGXKK@Z 0042c04f f i mupakk_main.obj
 0001:0002b064       ?_Buy_raw@?$vector@Vexported_function@pe_bliss@@V?$allocator@Vexported_function@pe_bliss@@@std@@@std@@AAEXI@Z 0042c064 f i mupakk_main.obj
 0001:0002b08a       ?_Clear_and_reserve_geometric@?$vector@Vexported_function@pe_bliss@@V?$allocator@Vexported_function@pe_bliss@@@std@@@std@@AAEXI@Z 0042c08a f i mupakk_main.obj
 0001:0002b0e0       ?_Endwrite@?$basic_filebuf@DU?$char_traits@D@std@@@std@@IAE_NXZ 0042c0e0 f i mupakk_main.obj
 0001:0002b160       ?_Getcat@?$codecvt@DDU_Mbstatet@@@std@@SAIPAPBVfacet@locale@2@PBV42@@Z 0042c160 f i mupakk_main.obj
 0001:0002b1bd       ?_Init@?$basic_filebuf@DU?$char_traits@D@std@@@std@@IAEXPAU_iobuf@@W4_Initfl@12@@Z 0042c1bd f i mupakk_main.obj
 0001:0002b237       ?_Init@?$basic_streambuf@DU?$char_traits@D@std@@@std@@IAEXXZ 0042c237 f i mupakk_main.obj
 0001:0002b275       ?_Initcvt@?$basic_filebuf@DU?$char_traits@D@std@@@std@@IAEXABV?$codecvt@DDU_Mbstatet@@@2@@Z 0042c275 f i mupakk_main.obj
 0001:0002b29d       ?_Lock@?$basic_filebuf@DU?$char_traits@D@std@@@std@@UAEXXZ 0042c29d f i mupakk_main.obj
 0001:0002b2ad       ?_Lock@?$basic_streambuf@DU?$char_traits@D@std@@@std@@UAEXXZ 0042c2ad f i mupakk_main.obj
 0001:0002b2ae       ?_Reset_back@?$basic_filebuf@DU?$char_traits@D@std@@@std@@AAEXXZ 0042c2ae f i mupakk_main.obj
 0001:0002b2d1       ?_Set_back@?$basic_filebuf@DU?$char_traits@D@std@@@std@@AAEXXZ 0042c2d1 f i mupakk_main.obj
 0001:0002b304       ?_Unlock@?$basic_filebuf@DU?$char_traits@D@std@@@std@@UAEXXZ 0042c304 f i mupakk_main.obj
 0001:0002b314       ?_Unlock@?$basic_streambuf@DU?$char_traits@D@std@@@std@@UAEXXZ 0042c314 f i mupakk_main.obj
 0001:0002b315       ?_Xrange@?$vector@Vsection@pe_bliss@@V?$allocator@Vsection@pe_bliss@@@std@@@std@@CGXXZ 0042c315 f i mupakk_main.obj
 0001:0002b320       ?ansitoutf16@Mud_String@@SG?AV?$basic_string@_WU?$char_traits@_W@std@@V?$allocator@_W@2@@std@@ABV?$basic_string@DU?$char_traits@D@std@@V?$allocator@D@2@@3@@Z 0042c320 f i mupakk_main.obj
 0001:0002b404       ?at@?$vector@Vsection@pe_bliss@@V?$allocator@Vsection@pe_bliss@@@std@@@std@@QAEAAVsection@pe_bliss@@I@Z 0042c404 f i mupakk_main.obj
 0001:0002b429       ?close@?$basic_filebuf@DU?$char_traits@D@std@@@std@@QAEPAV12@XZ 0042c429 f i mupakk_main.obj
 0001:0002b47d       ?compress_file@@YGHPA_W@Z  0042c47d f   mupakk_main.obj
 0001:0002c962       ?do_always_noconv@?$codecvt@DDU_Mbstatet@@@std@@MBE_NXZ 0042d962 f i mupakk_main.obj
 0001:0002c965       ?do_always_noconv@codecvt_base@std@@MBE_NXZ 0042d965 f i mupakk_main.obj
 0001:0002c968       ?do_encoding@codecvt_base@std@@MBEHXZ 0042d968 f i mupakk_main.obj
 0001:0002c96c       ?do_in@?$codecvt@DDU_Mbstatet@@@std@@MBEHAAU_Mbstatet@@PBD1AAPBDPAD3AAPAD@Z 0042d96c f i mupakk_main.obj
 0001:0002c986       ?do_length@?$codecvt@DDU_Mbstatet@@@std@@MBEHAAU_Mbstatet@@PBD1I@Z 0042d986 f i mupakk_main.obj
 0001:0002c99a       ?do_max_length@codecvt_base@std@@MBEHXZ 0042d99a f i mupakk_main.obj
 0001:0002c99e       ?do_out@?$codecvt@DDU_Mbstatet@@@std@@MBEHAAU_Mbstatet@@PBD1AAPBDPAD3AAPAD@Z 0042d99e f i mupakk_main.obj
 0001:0002c9b8       ?do_unshift@?$codecvt@DDU_Mbstatet@@@std@@MBEHAAU_Mbstatet@@PAD1AAPAD@Z 0042d9b8 f i mupakk_main.obj
 0001:0002c9c8       ?erase@?$basic_string@DU?$char_traits@D@std@@V?$allocator@D@2@@std@@QAEAAV12@II@Z 0042d9c8 f i mupakk_main.obj
 0001:0002ca16       ?find_last_of@?$basic_string@DU?$char_traits@D@std@@V?$allocator@D@2@@std@@QBEIQBDI@Z 0042da16 f i mupakk_main.obj
 0001:0002ca4b       ?imbue@?$basic_filebuf@DU?$char_traits@D@std@@@std@@MAEXABVlocale@2@@Z 0042da4b f i mupakk_main.obj
 0001:0002ca64       ?imbue@?$basic_streambuf@DU?$char_traits@D@std@@@std@@MAEXABVlocale@2@@Z 0042da64 f i mupakk_main.obj
 0001:0002ca67       ?init@?$basic_ios@DU?$char_traits@D@std@@@std@@IAEXPAV?$basic_streambuf@DU?$char_traits@D@std@@@2@_N@Z 0042da67 f i mupakk_main.obj
 0001:0002caae       ?insert@?$basic_string@DU?$char_traits@D@std@@V?$allocator@D@2@@std@@QAE?AV?$_String_iterator@V?$_String_val@U?$_Simple_types@D@std@@@std@@@2@V?$_String_const_iterator@V?$_String_val@U?$_Simple_types@D@std@@@std@@@2@ID@Z 0042daae f i mupakk_main.obj
 0001:0002cae6       ?insert@?$basic_string@DU?$char_traits@D@std@@V?$allocator@D@2@@std@@QAEAAV12@IID@Z 0042dae6 f i mupakk_main.obj
 0001:0002cb59       ?insert@?$basic_string@DU?$char_traits@D@std@@V?$allocator@D@2@@std@@QAEAAV12@IQBD@Z 0042db59 f i mupakk_main.obj
 0001:0002cb7c       ?insert@?$basic_string@DU?$char_traits@D@std@@V?$allocator@D@2@@std@@QAEAAV12@IQBDI@Z 0042db7c f i mupakk_main.obj
 0001:0002cc44       ?open@?$basic_filebuf@DU?$char_traits@D@std@@@std@@QAEPAV12@PBDHH@Z 0042dc44 f i mupakk_main.obj
 0001:0002cca4       ?open@?$basic_filebuf@DU?$char_traits@D@std@@@std@@QAEPAV12@PB_WHH@Z 0042dca4 f i mupakk_main.obj
 0001:0002cd04       ?overflow@?$basic_filebuf@DU?$char_traits@D@std@@@std@@MAEHH@Z 0042dd04 f i mupakk_main.obj
 0001:0002cdf3       ?overflow@?$basic_streambuf@DU?$char_traits@D@std@@@std@@MAEHH@Z 0042ddf3 f i mupakk_main.obj
 0001:0002cdf9       ?pbackfail@?$basic_filebuf@DU?$char_traits@D@std@@@std@@MAEHH@Z 0042ddf9 f i mupakk_main.obj
 0001:0002ce78       ?pbackfail@?$basic_streambuf@DU?$char_traits@D@std@@@std@@MAEHH@Z 0042de78 f i mupakk_main.obj
 0001:0002ce7e       ?reset@?$auto_ptr@V?$basic_ifstream@DU?$char_traits@D@std@@@std@@@std@@QAEXPAV?$basic_ifstream@DU?$char_traits@D@std@@@2@@Z 0042de7e f i mupakk_main.obj
 0001:0002cea4       ?reset@?$auto_ptr@Vimage_config_info@pe_bliss@@@std@@QAEXPAVimage_config_info@pe_bliss@@@Z 0042dea4 f i mupakk_main.obj
 0001:0002cec4       ?reset@?$auto_ptr@Vtls_info@pe_bliss@@@std@@QAEXPAVtls_info@pe_bliss@@@Z 0042dec4 f i mupakk_main.obj
 0001:0002cee4       ?seekoff@?$basic_filebuf@DU?$char_traits@D@std@@@std@@MAE?AV?$fpos@U_Mbstatet@@@2@_JHH@Z 0042dee4 f i mupakk_main.obj
 0001:0002cf9f       ?seekoff@?$basic_streambuf@DU?$char_traits@D@std@@@std@@MAE?AV?$fpos@U_Mbstatet@@@2@_JHH@Z 0042df9f f i mupakk_main.obj
 0001:0002cfbb       ?seekpos@?$basic_filebuf@DU?$char_traits@D@std@@@std@@MAE?AV?$fpos@U_Mbstatet@@@2@V32@H@Z 0042dfbb f i mupakk_main.obj
 0001:0002d040       ?seekpos@?$basic_streambuf@DU?$char_traits@D@std@@@std@@MAE?AV?$fpos@U_Mbstatet@@@2@V32@H@Z 0042e040 f i mupakk_main.obj
 0001:0002d05c       ?setbuf@?$basic_filebuf@DU?$char_traits@D@std@@@std@@MAEPAV?$basic_streambuf@DU?$char_traits@D@std@@@2@PAD_J@Z 0042e05c f i mupakk_main.obj
 0001:0002d0aa       ?setbuf@?$basic_streambuf@DU?$char_traits@D@std@@@std@@MAEPAV12@PAD_J@Z 0042e0aa f i mupakk_main.obj
 0001:0002d0af       ?showmanyc@?$basic_streambuf@DU?$char_traits@D@std@@@std@@MAE_JXZ 0042e0af f i mupakk_main.obj
 0001:0002d0b4       ?sync@?$basic_filebuf@DU?$char_traits@D@std@@@std@@MAEHXZ 0042e0b4 f i mupakk_main.obj
 0001:0002d0df       ?sync@?$basic_streambuf@DU?$char_traits@D@std@@@std@@MAEHXZ 0042e0df f i mupakk_main.obj
 0001:0002d0e2       ?uflow@?$basic_filebuf@DU?$char_traits@D@std@@@std@@MAEHXZ 0042e0e2 f i mupakk_main.obj
 0001:0002d29c       ?uflow@?$basic_streambuf@DU?$char_traits@D@std@@@std@@MAEHXZ 0042e29c f i mupakk_main.obj
 0001:0002d2c1       ?underflow@?$basic_filebuf@DU?$char_traits@D@std@@@std@@MAEHXZ 0042e2c1 f i mupakk_main.obj
 0001:0002d2fb       ?underflow@?$basic_streambuf@DU?$char_traits@D@std@@@std@@MAEHXZ 0042e2fb f i mupakk_main.obj
 0001:0002d2ff       ?utf16toansi@Mud_String@@SG?AV?$basic_string@DU?$char_traits@D@std@@V?$allocator@D@2@@std@@ABV?$basic_string@_WU?$char_traits@_W@std@@V?$allocator@_W@2@@3@@Z 0042e2ff f i mupakk_main.obj
 0001:0002d3cd       ?widen@?$basic_ios@DU?$char_traits@D@std@@@std@@QBEDD@Z 0042e3cd f i mupakk_main.obj
 0001:0002d406       ?x86_filter_enc@@YGIPAEI@Z 0042e406 f   mupakk_main.obj
 0001:0002d57b       ?xsgetn@?$basic_filebuf@DU?$char_traits@D@std@@@std@@MAE_JPAD_J@Z 0042e57b f i mupakk_main.obj
 0001:0002d691       ?xsgetn@?$basic_streambuf@DU?$char_traits@D@std@@@std@@MAE_JPAD_J@Z 0042e691 f i mupakk_main.obj
 0001:0002d765       ?xsputn@?$basic_filebuf@DU?$char_traits@D@std@@@std@@MAE_JPBD_J@Z 0042e765 f i mupakk_main.obj
 0001:0002d83b       ?xsputn@?$basic_streambuf@DU?$char_traits@D@std@@@std@@MAE_JPBD_J@Z 0042e83b f i mupakk_main.obj
 0001:0002d906       ??$?6U?$char_traits@D@std@@@std@@YGAAV?$basic_ostream@DU?$char_traits@D@std@@@0@AAV10@PBD@Z 0042e906 f i mupakk_res.obj
 0001:0002dac1       ??$endl@DU?$char_traits@D@std@@@std@@YAAAV?$basic_ostream@DU?$char_traits@D@std@@@0@AAV10@@Z 0042eac1 f i mupakk_res.obj
 0001:0002daea       ?at@?$vector@IV?$allocator@I@std@@@std@@QBEABII@Z 0042eaea f i mupakk_res.obj
 0001:0002db08       ?rebuild_resources@@YGXPAVpe_base@pe_bliss@@PAVresource_directory@2@@Z 0042eb08 f   mupakk_res.obj
 0001:0002dd7e       ??$?0$$CBV?$basic_string@DU?$char_traits@D@std@@V?$allocator@D@2@@std@@$$CBUJmpLabel@Xbyak@@$0A@@?$pair@$$CBV?$basic_string@DU?$char_traits@D@std@@V?$allocator@D@2@@std@@$$CBUJmpLabel@Xbyak@@@std@@QAE@ABV?$basic_string@DU?$char_traits@D@std@@V?$allocator@D@2@@1@ABUJmpLabel@Xbyak@@@Z 0042ed7e f i mupakk_stubs.obj
 0001:0002dda7       ??$?0AAU?$pair@$$CBV?$basic_string@DU?$char_traits@D@std@@V?$allocator@D@2@@std@@USlabelVal@LabelManager@Xbyak@@@std@@@?$_List_node_emplace_op2@V?$allocator@U?$_List_node@U?$pair@$$CBV?$basic_string@DU?$char_traits@D@std@@V?$allocator@D@2@@std@@USlabelVal@LabelManager@Xbyak@@@std@@PAX@std@@@std@@@std@@QAE@AAV?$allocator@U?$_List_node@U?$pair@$$CBV?$basic_string@DU?$char_traits@D@std@@V?$allocator@D@2@@std@@USlabelVal@LabelManager@Xbyak@@@std@@PAX@std@@@1@AAU?$pair@$$CBV?$basic_string@DU?$char_traits@D@std@@V?$allocator@D@2@@std@@USlabelVal@LabelManager@Xbyak@@@1@@Z 0042eda7 f i mupakk_stubs.obj
 0001:0002ddd0       ??$?0U?$pair@$$CBH$$CBUJmpLabel@Xbyak@@@std@@@?$_List_node_emplace_op2@V?$allocator@U?$_List_node@U?$pair@$$CBH$$CBUJmpLabel@Xbyak@@@std@@PAX@std@@@std@@@std@@QAE@AAV?$allocator@U?$_List_node@U?$pair@$$CBH$$CBUJmpLabel@Xbyak@@@std@@PAX@std@@@1@$$QAU?$pair@$$CBH$$CBUJmpLabel@Xbyak@@@1@@Z 0042edd0 f i mupakk_stubs.obj
 0001:0002ddfd       ??$?0U?$pair@$$CBV?$basic_string@DU?$char_traits@D@std@@V?$allocator@D@2@@std@@$$CBUJmpLabel@Xbyak@@@std@@@?$_List_node_emplace_op2@V?$allocator@U?$_List_node@U?$pair@$$CBV?$basic_string@DU?$char_traits@D@std@@V?$allocator@D@2@@std@@$$CBUJmpLabel@Xbyak@@@std@@PAX@std@@@std@@@std@@QAE@AAV?$allocator@U?$_List_node@U?$pair@$$CBV?$basic_string@DU?$char_traits@D@std@@V?$allocator@D@2@@std@@$$CBUJmpLabel@Xbyak@@@std@@PAX@std@@@1@$$QAU?$pair@$$CBV?$basic_string@DU?$char_traits@D@std@@V?$allocator@D@2@@std@@$$CBUJmpLabel@Xbyak@@@1@@Z 0042edfd f i mupakk_stubs.obj
 0001:0002de26       ??$?0UAddrInfo@CodeArray@Xbyak@@@?$_List_node_emplace_op2@V?$allocator@U?$_List_node@UAddrInfo@CodeArray@Xbyak@@PAX@std@@@std@@@std@@QAE@AAV?$allocator@U?$_List_node@UAddrInfo@CodeArray@Xbyak@@PAX@std@@@1@$$QAUAddrInfo@CodeArray@Xbyak@@@Z 0042ee26 f i mupakk_stubs.obj
 0001:0002de52       ??$?0USlabelState@LabelManager@Xbyak@@@?$_List_node_emplace_op2@V?$allocator@U?$_List_node@USlabelState@LabelManager@Xbyak@@PAX@std@@@std@@@std@@QAE@AAV?$allocator@U?$_List_node@USlabelState@LabelManager@Xbyak@@PAX@std@@@1@$$QAUSlabelState@LabelManager@Xbyak@@@Z 0042ee52 f i mupakk_stubs.obj
 0001:0002de7b       ??$?0V?$allocator@U?$_List_node@U?$pair@$$CBV?$basic_string@DU?$char_traits@D@std@@V?$allocator@D@2@@std@@$$CBUJmpLabel@Xbyak@@@std@@PAX@std@@@std@@@?$list@U?$pair@$$CBV?$basic_string@DU?$char_traits@D@std@@V?$allocator@D@2@@std@@$$CBUJmpLabel@Xbyak@@@std@@V?$allocator@U?$pair@$$CBV?$basic_string@DU?$char_traits@D@std@@V?$allocator@D@2@@std@@$$CBUJmpLabel@Xbyak@@@std@@@2@@std@@AAE@U_Move_allocator_tag@1@AAV?$allocator@U?$_List_node@U?$pair@$$CBV?$basic_string@DU?$char_traits@D@std@@V?$allocator@D@2@@std@@$$CBUJmpLabel@Xbyak@@@std@@PAX@std@@@1@@Z 0042ee7b f i mupakk_stubs.obj
 0001:0002de99       ??$?0V?$allocator@U?$_List_node@U?$pair@$$CBV?$basic_string@DU?$char_traits@D@std@@V?$allocator@D@2@@std@@USlabelVal@LabelManager@Xbyak@@@std@@PAX@std@@@std@@@?$list@U?$pair@$$CBV?$basic_string@DU?$char_traits@D@std@@V?$allocator@D@2@@std@@USlabelVal@LabelManager@Xbyak@@@std@@V?$allocator@U?$pair@$$CBV?$basic_string@DU?$char_traits@D@std@@V?$allocator@D@2@@std@@USlabelVal@LabelManager@Xbyak@@@std@@@2@@std@@AAE@U_Move_allocator_tag@1@AAV?$allocator@U?$_List_node@U?$pair@$$CBV?$basic_string@DU?$char_traits@D@std@@V?$allocator@D@2@@std@@USlabelVal@LabelManager@Xbyak@@@std@@PAX@std@@@1@@Z 0042ee99 f i mupakk_stubs.obj
 0001:0002deb7       ??$?8DU?$char_traits@D@std@@V?$allocator@D@1@@std@@YG_NABV?$basic_string@DU?$char_traits@D@std@@V?$allocator@D@2@@0@QBD@Z 0042eeb7 f i mupakk_stubs.obj
 0001:0002dec7       ??$_Construct_in_place@PAU?$_List_node@U?$pair@$$CBH$$CBUJmpLabel@Xbyak@@@std@@PAX@std@@AAPAU12@@std@@YGXAAPAU?$_List_node@U?$pair@$$CBH$$CBUJmpLabel@Xbyak@@@std@@PAX@0@0@Z 0042eec7 f i mupakk_stubs.obj
 0001:0002ded6       ??$_Construct_in_place@PAU?$_List_node@U?$pair@$$CBH$$CBUJmpLabel@Xbyak@@@std@@PAX@std@@ABQAU12@@std@@YGXAAPAU?$_List_node@U?$pair@$$CBH$$CBUJmpLabel@Xbyak@@@std@@PAX@0@ABQAU10@@Z 0042eed6 f i mupakk_stubs.obj
 0001:0002dee5       ??$_Construct_in_place@PAU?$_List_node@U?$pair@$$CBHUClabelVal@LabelManager@Xbyak@@@std@@PAX@std@@AAPAU12@@std@@YGXAAPAU?$_List_node@U?$pair@$$CBHUClabelVal@LabelManager@Xbyak@@@std@@PAX@0@0@Z 0042eee5 f i mupakk_stubs.obj
 0001:0002def4       ??$_Construct_in_place@PAU?$_List_node@U?$pair@$$CBV?$basic_string@DU?$char_traits@D@std@@V?$allocator@D@2@@std@@$$CBUJmpLabel@Xbyak@@@std@@PAX@std@@AAPAU12@@std@@YGXAAPAU?$_List_node@U?$pair@$$CBV?$basic_string@DU?$char_traits@D@std@@V?$allocator@D@2@@std@@$$CBUJmpLabel@Xbyak@@@std@@PAX@0@0@Z 0042eef4 f i mupakk_stubs.obj
 0001:0002df03       ??$_Construct_in_place@PAU?$_List_node@U?$pair@$$CBV?$basic_string@DU?$char_traits@D@std@@V?$allocator@D@2@@std@@$$CBUJmpLabel@Xbyak@@@std@@PAX@std@@ABQAU12@@std@@YGXAAPAU?$_List_node@U?$pair@$$CBV?$basic_string@DU?$char_traits@D@std@@V?$allocator@D@2@@std@@$$CBUJmpLabel@Xbyak@@@std@@PAX@0@ABQAU10@@Z 0042ef03 f i mupakk_stubs.obj
 0001:0002df12       ??$_Construct_in_place@PAU?$_List_node@U?$pair@$$CBV?$basic_string@DU?$char_traits@D@std@@V?$allocator@D@2@@std@@USlabelVal@LabelManager@Xbyak@@@std@@PAX@std@@AAPAU12@@std@@YGXAAPAU?$_List_node@U?$pair@$$CBV?$basic_string@DU?$char_traits@D@std@@V?$allocator@D@2@@std@@USlabelVal@LabelManager@Xbyak@@@std@@PAX@0@0@Z 0042ef12 f i mupakk_stubs.obj
 0001:0002df21       ??$_Construct_in_place@PAU?$_List_node@U?$pair@$$CBV?$basic_string@DU?$char_traits@D@std@@V?$allocator@D@2@@std@@USlabelVal@LabelManager@Xbyak@@@std@@PAX@std@@ABQAU12@@std@@YGXAAPAU?$_List_node@U?$pair@$$CBV?$basic_string@DU?$char_traits@D@std@@V?$allocator@D@2@@std@@USlabelVal@LabelManager@Xbyak@@@std@@PAX@0@ABQAU10@@Z 0042ef21 f i mupakk_stubs.obj
 0001:0002df30       ??$_Construct_in_place@PAU?$_List_node@UAddrInfo@CodeArray@Xbyak@@PAX@std@@AAPAU12@@std@@YGXAAPAU?$_List_node@UAddrInfo@CodeArray@Xbyak@@PAX@0@0@Z 0042ef30 f i mupakk_stubs.obj
 0001:0002df3f       ??$_Construct_in_place@PAU?$_List_node@UAddrInfo@CodeArray@Xbyak@@PAX@std@@ABQAU12@@std@@YGXAAPAU?$_List_node@UAddrInfo@CodeArray@Xbyak@@PAX@0@ABQAU10@@Z 0042ef3f f i mupakk_stubs.obj
 0001:0002df4e       ??$_Construct_in_place@PAU?$_List_node@USlabelState@LabelManager@Xbyak@@PAX@std@@AAPAU12@@std@@YGXAAPAU?$_List_node@USlabelState@LabelManager@Xbyak@@PAX@0@0@Z 0042ef4e f i mupakk_stubs.obj
 0001:0002df5d       ??$_Construct_in_place@PAU?$_List_node@USlabelState@LabelManager@Xbyak@@PAX@std@@ABQAU12@@std@@YGXAAPAU?$_List_node@USlabelState@LabelManager@Xbyak@@PAX@0@ABQAU10@@Z 0042ef5d f i mupakk_stubs.obj
 0001:0002df6c       ??$_Construct_in_place@V?$_List_unchecked_iterator@V?$_List_val@U?$_List_simple_types@U?$pair@$$CBH$$CBUJmpLabel@Xbyak@@@std@@@std@@@std@@@std@@ABV12@@std@@YGXAAV?$_List_unchecked_iterator@V?$_List_val@U?$_List_simple_types@U?$pair@$$CBH$$CBUJmpLabel@Xbyak@@@std@@@std@@@std@@@0@ABV10@@Z 0042ef6c f i mupakk_stubs.obj
 0001:0002df7b       ??$_Construct_in_place@V?$_List_unchecked_iterator@V?$_List_val@U?$_List_simple_types@U?$pair@$$CBHUClabelVal@LabelManager@Xbyak@@@std@@@std@@@std@@@std@@ABV12@@std@@YGXAAV?$_List_unchecked_iterator@V?$_List_val@U?$_List_simple_types@U?$pair@$$CBHUClabelVal@LabelManager@Xbyak@@@std@@@std@@@std@@@0@ABV10@@Z 0042ef7b f i mupakk_stubs.obj
 0001:0002df8a       ??$_Construct_in_place@V?$_List_unchecked_iterator@V?$_List_val@U?$_List_simple_types@U?$pair@$$CBV?$basic_string@DU?$char_traits@D@std@@V?$allocator@D@2@@std@@$$CBUJmpLabel@Xbyak@@@std@@@std@@@std@@@std@@ABV12@@std@@YGXAAV?$_List_unchecked_iterator@V?$_List_val@U?$_List_simple_types@U?$pair@$$CBV?$basic_string@DU?$char_traits@D@std@@V?$allocator@D@2@@std@@$$CBUJmpLabel@Xbyak@@@std@@@std@@@std@@@0@ABV10@@Z 0042ef8a f i mupakk_stubs.obj
 0001:0002df99       ??$_Construct_in_place@V?$_List_unchecked_iterator@V?$_List_val@U?$_List_simple_types@U?$pair@$$CBV?$basic_string@DU?$char_traits@D@std@@V?$allocator@D@2@@std@@USlabelVal@LabelManager@Xbyak@@@std@@@std@@@std@@@std@@ABV12@@std@@YGXAAV?$_List_unchecked_iterator@V?$_List_val@U?$_List_simple_types@U?$pair@$$CBV?$basic_string@DU?$char_traits@D@std@@V?$allocator@D@2@@std@@USlabelVal@LabelManager@Xbyak@@@std@@@std@@@std@@@0@ABV10@@Z 0042ef99 f i mupakk_stubs.obj
 0001:0002dfa8       ??$_Destroy_in_place@PAU?$_List_node@U?$pair@$$CBH$$CBUJmpLabel@Xbyak@@@std@@PAX@std@@@std@@YGXAAPAU?$_List_node@U?$pair@$$CBH$$CBUJmpLabel@Xbyak@@@std@@PAX@0@@Z 0042efa8 f i mupakk_stubs.obj
 0001:0002dfab       ??$_Destroy_in_place@PAU?$_List_node@U?$pair@$$CBHUClabelVal@LabelManager@Xbyak@@@std@@PAX@std@@@std@@YGXAAPAU?$_List_node@U?$pair@$$CBHUClabelVal@LabelManager@Xbyak@@@std@@PAX@0@@Z 0042efab f i mupakk_stubs.obj
 0001:0002dfae       ??$_Destroy_in_place@PAU?$_List_node@U?$pair@$$CBV?$basic_string@DU?$char_traits@D@std@@V?$allocator@D@2@@std@@$$CBUJmpLabel@Xbyak@@@std@@PAX@std@@@std@@YGXAAPAU?$_List_node@U?$pair@$$CBV?$basic_string@DU?$char_traits@D@std@@V?$allocator@D@2@@std@@$$CBUJmpLabel@Xbyak@@@std@@PAX@0@@Z 0042efae f i mupakk_stubs.obj
 0001:0002dfb1       ??$_Destroy_in_place@PAU?$_List_node@U?$pair@$$CBV?$basic_string@DU?$char_traits@D@std@@V?$allocator@D@2@@std@@USlabelVal@LabelManager@Xbyak@@@std@@PAX@std@@@std@@YGXAAPAU?$_List_node@U?$pair@$$CBV?$basic_string@DU?$char_traits@D@std@@V?$allocator@D@2@@std@@USlabelVal@LabelManager@Xbyak@@@std@@PAX@0@@Z 0042efb1 f i mupakk_stubs.obj
 0001:0002dfb4       ??$_Destroy_in_place@PAU?$_List_node@UAddrInfo@CodeArray@Xbyak@@PAX@std@@@std@@YGXAAPAU?$_List_node@UAddrInfo@CodeArray@Xbyak@@PAX@0@@Z 0042efb4 f i mupakk_stubs.obj
 0001:0002dfb7       ??$_Destroy_in_place@PAU?$_List_node@USlabelState@LabelManager@Xbyak@@PAX@std@@@std@@YGXAAPAU?$_List_node@USlabelState@LabelManager@Xbyak@@PAX@0@@Z 0042efb7 f i mupakk_stubs.obj
 0001:0002dfba       ??$_Destroy_range@PAV?$_List_unchecked_iterator@V?$_List_val@U?$_List_simple_types@U?$pair@$$CBH$$CBUJmpLabel@Xbyak@@@std@@@std@@@std@@@std@@@std@@YGXPAV?$_List_unchecked_iterator@V?$_List_val@U?$_List_simple_types@U?$pair@$$CBH$$CBUJmpLabel@Xbyak@@@std@@@std@@@std@@@0@QAV10@@Z 0042efba f i mupakk_stubs.obj
 0001:0002dfbd       ??$_Destroy_range@PAV?$_List_unchecked_iterator@V?$_List_val@U?$_List_simple_types@U?$pair@$$CBHUClabelVal@LabelManager@Xbyak@@@std@@@std@@@std@@@std@@@std@@YGXPAV?$_List_unchecked_iterator@V?$_List_val@U?$_List_simple_types@U?$pair@$$CBHUClabelVal@LabelManager@Xbyak@@@std@@@std@@@std@@@0@QAV10@@Z 0042efbd f i mupakk_stubs.obj
 0001:0002dfc0       ??$_Destroy_range@PAV?$_List_unchecked_iterator@V?$_List_val@U?$_List_simple_types@U?$pair@$$CBV?$basic_string@DU?$char_traits@D@std@@V?$allocator@D@2@@std@@$$CBUJmpLabel@Xbyak@@@std@@@std@@@std@@@std@@@std@@YGXPAV?$_List_unchecked_iterator@V?$_List_val@U?$_List_simple_types@U?$pair@$$CBV?$basic_string@DU?$char_traits@D@std@@V?$allocator@D@2@@std@@$$CBUJmpLabel@Xbyak@@@std@@@std@@@std@@@0@QAV10@@Z 0042efc0 f i mupakk_stubs.obj
 0001:0002dfc3       ??$_Destroy_range@PAV?$_List_unchecked_iterator@V?$_List_val@U?$_List_simple_types@U?$pair@$$CBV?$basic_string@DU?$char_traits@D@std@@V?$allocator@D@2@@std@@USlabelVal@LabelManager@Xbyak@@@std@@@std@@@std@@@std@@@std@@YGXPAV?$_List_unchecked_iterator@V?$_List_val@U?$_List_simple_types@U?$pair@$$CBV?$basic_string@DU?$char_traits@D@std@@V?$allocator@D@2@@std@@USlabelVal@LabelManager@Xbyak@@@std@@@std@@@std@@@0@QAV10@@Z 0042efc3 f i mupakk_stubs.obj
 0001:0002dfc7       ??$_Emplace@UAddrInfo@CodeArray@Xbyak@@@?$list@UAddrInfo@CodeArray@Xbyak@@V?$allocator@UAddrInfo@CodeArray@Xbyak@@@std@@@std@@QAEPAU?$_List_node@UAddrInfo@CodeArray@Xbyak@@PAX@1@QAU21@$$QAUAddrInfo@CodeArray@Xbyak@@@Z 0042efc7 f i mupakk_stubs.obj
 0001:0002e00a       ??$_Emplace@USlabelState@LabelManager@Xbyak@@@?$list@USlabelState@LabelManager@Xbyak@@V?$allocator@USlabelState@LabelManager@Xbyak@@@std@@@std@@QAEPAU?$_List_node@USlabelState@LabelManager@Xbyak@@PAX@1@QAU21@$$QAUSlabelState@LabelManager@Xbyak@@@Z 0042f00a f i mupakk_stubs.obj
 0001:0002e04d       ??$_Find_first@V?$basic_string@DU?$char_traits@D@std@@V?$allocator@D@2@@std@@@?$_Hash@V?$_Umap_traits@V?$basic_string@DU?$char_traits@D@std@@V?$allocator@D@2@@std@@$$CBUJmpLabel@Xbyak@@V?$_Uhash_compare@V?$basic_string@DU?$char_traits@D@std@@V?$allocator@D@2@@std@@U?$hash@V?$basic_string@DU?$char_traits@D@std@@V?$allocator@D@2@@std@@@2@U?$equal_to@V?$basic_string@DU?$char_traits@D@std@@V?$allocator@D@2@@std@@@2@@2@V?$allocator@U?$pair@$$CBV?$basic_string@DU?$char_traits@D@std@@V?$allocator@D@2@@std@@$$CBUJmpLabel@Xbyak@@@std@@@2@$00@std@@@std@@ABEPAU?$_List_node@U?$pair@$$CBV?$basic_string@DU?$char_traits@D@std@@V?$allocator@D@2@@std@@$$CBUJmpLabel@Xbyak@@@std@@PAX@1@ABV?$basic_string@DU?$char_traits@D@std@@V?$allocator@D@2@@1@I@Z 0042f04d f i mupakk_stubs.obj
 0001:0002e08c       ??$_Find_last@H@?$_Hash@V?$_Umap_traits@H$$CBUJmpLabel@Xbyak@@V?$_Uhash_compare@HU?$hash@H@std@@U?$equal_to@H@2@@std@@V?$allocator@U?$pair@$$CBH$$CBUJmpLabel@Xbyak@@@std@@@4@$00@std@@@std@@IBE?AU?$_Hash_find_last_result@PAU?$_List_node@U?$pair@$$CBH$$CBUJmpLabel@Xbyak@@@std@@PAX@std@@@1@ABHI@Z 0042f08c f i mupakk_stubs.obj
 0001:0002e0dd       ??$_Find_last@H@?$_Hash@V?$_Umap_traits@HUClabelVal@LabelManager@Xbyak@@V?$_Uhash_compare@HU?$hash@H@std@@U?$equal_to@H@2@@std@@V?$allocator@U?$pair@$$CBHUClabelVal@LabelManager@Xbyak@@@std@@@5@$0A@@std@@@std@@IBE?AU?$_Hash_find_last_result@PAU?$_List_node@U?$pair@$$CBHUClabelVal@LabelManager@Xbyak@@@std@@PAX@std@@@1@ABHI@Z 0042f0dd f i mupakk_stubs.obj
 0001:0002e12e       ??$_Find_last@V?$basic_string@DU?$char_traits@D@std@@V?$allocator@D@2@@std@@@?$_Hash@V?$_Umap_traits@V?$basic_string@DU?$char_traits@D@std@@V?$allocator@D@2@@std@@$$CBUJmpLabel@Xbyak@@V?$_Uhash_compare@V?$basic_string@DU?$char_traits@D@std@@V?$allocator@D@2@@std@@U?$hash@V?$basic_string@DU?$char_traits@D@std@@V?$allocator@D@2@@std@@@2@U?$equal_to@V?$basic_string@DU?$char_traits@D@std@@V?$allocator@D@2@@std@@@2@@2@V?$allocator@U?$pair@$$CBV?$basic_string@DU?$char_traits@D@std@@V?$allocator@D@2@@std@@$$CBUJmpLabel@Xbyak@@@std@@@2@$00@std@@@std@@IBE?AU?$_Hash_find_last_result@PAU?$_List_node@U?$pair@$$CBV?$basic_string@DU?$char_traits@D@std@@V?$allocator@D@2@@std@@$$CBUJmpLabel@Xbyak@@@std@@PAX@std@@@1@ABV?$basic_string@DU?$char_traits@D@std@@V?$allocator@D@2@@1@I@Z 0042f12e f i mupakk_stubs.obj
 0001:0002e189       ??$_Find_last@V?$basic_string@DU?$char_traits@D@std@@V?$allocator@D@2@@std@@@?$_Hash@V?$_Umap_traits@V?$basic_string@DU?$char_traits@D@std@@V?$allocator@D@2@@std@@USlabelVal@LabelManager@Xbyak@@V?$_Uhash_compare@V?$basic_string@DU?$char_traits@D@std@@V?$allocator@D@2@@std@@U?$hash@V?$basic_string@DU?$char_traits@D@std@@V?$allocator@D@2@@std@@@2@U?$equal_to@V?$basic_string@DU?$char_traits@D@std@@V?$allocator@D@2@@std@@@2@@2@V?$allocator@U?$pair@$$CBV?$basic_string@DU?$char_traits@D@std@@V?$allocator@D@2@@std@@USlabelVal@LabelManager@Xbyak@@@std@@@2@$0A@@std@@@std@@IBE?AU?$_Hash_find_last_result@PAU?$_List_node@U?$pair@$$CBV?$basic_string@DU?$char_traits@D@std@@V?$allocator@D@2@@std@@USlabelVal@LabelManager@Xbyak@@@std@@PAX@std@@@1@ABV?$basic_string@DU?$char_traits@D@std@@V?$allocator@D@2@@1@I@Z 0042f189 f i mupakk_stubs.obj
 0001:0002e1e4       ??$_Fnv1a_append_value@H@std@@YGIIABH@Z 0042f1e4 f i mupakk_stubs.obj
 0001:0002e1f6       ??$_Free_non_head@V?$allocator@U?$_List_node@U?$pair@$$CBH$$CBUJmpLabel@Xbyak@@@std@@PAX@std@@@std@@@?$_List_node@U?$pair@$$CBH$$CBUJmpLabel@Xbyak@@@std@@PAX@std@@SGXAAV?$allocator@U?$_List_node@U?$pair@$$CBH$$CBUJmpLabel@Xbyak@@@std@@PAX@std@@@1@PAU01@@Z 0042f1f6 f i mupakk_stubs.obj
 0001:0002e21d       ??$_Free_non_head@V?$allocator@U?$_List_node@U?$pair@$$CBHUClabelVal@LabelManager@Xbyak@@@std@@PAX@std@@@std@@@?$_List_node@U?$pair@$$CBHUClabelVal@LabelManager@Xbyak@@@std@@PAX@std@@SGXAAV?$allocator@U?$_List_node@U?$pair@$$CBHUClabelVal@LabelManager@Xbyak@@@std@@PAX@std@@@1@PAU01@@Z 0042f21d f i mupakk_stubs.obj
 0001:0002e244       ??$_Free_non_head@V?$allocator@U?$_List_node@U?$pair@$$CBV?$basic_string@DU?$char_traits@D@std@@V?$allocator@D@2@@std@@$$CBUJmpLabel@Xbyak@@@std@@PAX@std@@@std@@@?$_List_node@U?$pair@$$CBV?$basic_string@DU?$char_traits@D@std@@V?$allocator@D@2@@std@@$$CBUJmpLabel@Xbyak@@@std@@PAX@std@@SGXAAV?$allocator@U?$_List_node@U?$pair@$$CBV?$basic_string@DU?$char_traits@D@std@@V?$allocator@D@2@@std@@$$CBUJmpLabel@Xbyak@@@std@@PAX@std@@@1@PAU01@@Z 0042f244 f i mupakk_stubs.obj
 0001:0002e26b       ??$_Free_non_head@V?$allocator@U?$_List_node@U?$pair@$$CBV?$basic_string@DU?$char_traits@D@std@@V?$allocator@D@2@@std@@USlabelVal@LabelManager@Xbyak@@@std@@PAX@std@@@std@@@?$_List_node@U?$pair@$$CBV?$basic_string@DU?$char_traits@D@std@@V?$allocator@D@2@@std@@USlabelVal@LabelManager@Xbyak@@@std@@PAX@std@@SGXAAV?$allocator@U?$_List_node@U?$pair@$$CBV?$basic_string@DU?$char_traits@D@std@@V?$allocator@D@2@@std@@USlabelVal@LabelManager@Xbyak@@@std@@PAX@std@@@1@PAU01@@Z 0042f26b f i mupakk_stubs.obj
 0001:0002e292       ??$_Free_non_head@V?$allocator@U?$_List_node@UAddrInfo@CodeArray@Xbyak@@PAX@std@@@std@@@?$_List_node@UAddrInfo@CodeArray@Xbyak@@PAX@std@@SGXAAV?$allocator@U?$_List_node@UAddrInfo@CodeArray@Xbyak@@PAX@std@@@1@PAU01@@Z 0042f292 f i mupakk_stubs.obj
 0001:0002e2b9       ??$_Free_non_head@V?$allocator@U?$_List_node@USlabelState@LabelManager@Xbyak@@PAX@std@@@std@@@?$_List_node@USlabelState@LabelManager@Xbyak@@PAX@std@@SGXAAV?$allocator@U?$_List_node@USlabelState@LabelManager@Xbyak@@PAX@std@@@1@PAU01@@Z 0042f2b9 f i mupakk_stubs.obj
 0001:0002e2e0       ??$_Freenode@V?$allocator@U?$_List_node@U?$pair@$$CBV?$basic_string@DU?$char_traits@D@std@@V?$allocator@D@2@@std@@$$CBUJmpLabel@Xbyak@@@std@@PAX@std@@@std@@@?$_List_node@U?$pair@$$CBV?$basic_string@DU?$char_traits@D@std@@V?$allocator@D@2@@std@@$$CBUJmpLabel@Xbyak@@@std@@PAX@std@@SGXAAV?$allocator@U?$_List_node@U?$pair@$$CBV?$basic_string@DU?$char_traits@D@std@@V?$allocator@D@2@@std@@$$CBUJmpLabel@Xbyak@@@std@@PAX@std@@@1@PAU01@@Z 0042f2e0 f i mupakk_stubs.obj
 0001:0002e2fb       ??$_Freenode@V?$allocator@U?$_List_node@U?$pair@$$CBV?$basic_string@DU?$char_traits@D@std@@V?$allocator@D@2@@std@@USlabelVal@LabelManager@Xbyak@@@std@@PAX@std@@@std@@@?$_List_node@U?$pair@$$CBV?$basic_string@DU?$char_traits@D@std@@V?$allocator@D@2@@std@@USlabelVal@LabelManager@Xbyak@@@std@@PAX@std@@SGXAAV?$allocator@U?$_List_node@U?$pair@$$CBV?$basic_string@DU?$char_traits@D@std@@V?$allocator@D@2@@std@@USlabelVal@LabelManager@Xbyak@@@std@@PAX@std@@@1@PAU01@@Z 0042f2fb f i mupakk_stubs.obj
 0001:0002e316       ??$_Freenode@V?$allocator@U?$_List_node@USlabelState@LabelManager@Xbyak@@PAX@std@@@std@@@?$_List_node@USlabelState@LabelManager@Xbyak@@PAX@std@@SGXAAV?$allocator@U?$_List_node@USlabelState@LabelManager@Xbyak@@PAX@std@@@1@PAU01@@Z 0042f316 f i mupakk_stubs.obj
 0001:0002e331       ??$_Hash_array_representation@D@std@@YGIQBDI@Z 0042f331 f i mupakk_stubs.obj
 0001:0002e346       ??$_Hash_representation@H@std@@YGIABH@Z 0042f346 f i mupakk_stubs.obj
 0001:0002e359       ??$_Swap_adl@PAU?$_List_node@U?$pair@$$CBV?$basic_string@DU?$char_traits@D@std@@V?$allocator@D@2@@std@@$$CBUJmpLabel@Xbyak@@@std@@PAX@std@@@std@@YGXAAPAU?$_List_node@U?$pair@$$CBV?$basic_string@DU?$char_traits@D@std@@V?$allocator@D@2@@std@@$$CBUJmpLabel@Xbyak@@@std@@PAX@0@0@Z 0042f359 f i mupakk_stubs.obj
 0001:0002e36e       ??$_Swap_adl@PAU?$_List_node@U?$pair@$$CBV?$basic_string@DU?$char_traits@D@std@@V?$allocator@D@2@@std@@USlabelVal@LabelManager@Xbyak@@@std@@PAX@std@@@std@@YGXAAPAU?$_List_node@U?$pair@$$CBV?$basic_string@DU?$char_traits@D@std@@V?$allocator@D@2@@std@@USlabelVal@LabelManager@Xbyak@@@std@@PAX@0@0@Z 0042f36e f i mupakk_stubs.obj
 0001:0002e383       ??$_Swap_adl@PAV?$_List_unchecked_iterator@V?$_List_val@U?$_List_simple_types@U?$pair@$$CBV?$basic_string@DU?$char_traits@D@std@@V?$allocator@D@2@@std@@$$CBUJmpLabel@Xbyak@@@std@@@std@@@std@@@std@@@std@@YGXAAPAV?$_List_unchecked_iterator@V?$_List_val@U?$_List_simple_types@U?$pair@$$CBV?$basic_string@DU?$char_traits@D@std@@V?$allocator@D@2@@std@@$$CBUJmpLabel@Xbyak@@@std@@@std@@@std@@@0@0@Z 0042f383 f i mupakk_stubs.obj
 0001:0002e398       ??$_Swap_adl@PAV?$_List_unchecked_iterator@V?$_List_val@U?$_List_simple_types@U?$pair@$$CBV?$basic_string@DU?$char_traits@D@std@@V?$allocator@D@2@@std@@USlabelVal@LabelManager@Xbyak@@@std@@@std@@@std@@@std@@@std@@YGXAAPAV?$_List_unchecked_iterator@V?$_List_val@U?$_List_simple_types@U?$pair@$$CBV?$basic_string@DU?$char_traits@D@std@@V?$allocator@D@2@@std@@USlabelVal@LabelManager@Xbyak@@@std@@@std@@@std@@@0@0@Z 0042f398 f i mupakk_stubs.obj
 0001:0002e3ad       ??$define_inner@V?$unordered_map@V?$basic_string@DU?$char_traits@D@std@@V?$allocator@D@2@@std@@USlabelVal@LabelManager@Xbyak@@U?$hash@V?$basic_string@DU?$char_traits@D@std@@V?$allocator@D@2@@std@@@2@U?$equal_to@V?$basic_string@DU?$char_traits@D@std@@V?$allocator@D@2@@std@@@2@V?$allocator@U?$pair@$$CBV?$basic_string@DU?$char_traits@D@std@@V?$allocator@D@2@@std@@USlabelVal@LabelManager@Xbyak@@@std@@@2@@std@@V?$unordered_multimap@V?$basic_string@DU?$char_traits@D@std@@V?$allocator@D@2@@std@@$$CBUJmpLabel@Xbyak@@U?$hash@V?$basic_string@DU?$char_traits@D@std@@V?$allocator@D@2@@std@@@2@U?$equal_to@V?$basic_string@DU?$char_traits@D@std@@V?$allocator@D@2@@std@@@2@V?$allocator@U?$pair@$$CBV?$basic_string@DU?$char_traits@D@std@@V?$allocator@D@2@@std@@$$CBUJmpLabel@Xbyak@@@std@@@2@@2@V?$basic_string@DU?$char_traits@D@std@@V?$allocator@D@2@@2@@LabelManager@Xbyak@@AAEXAAV?$unordered_map@V?$basic_string@DU?$char_traits@D@std@@V?$allocator@D@2@@std@@USlabelVal@LabelManager@Xbyak@@U?$hash@V?$basic_string@DU?$char_traits@D@std@@V?$allocator@D@2@@std@@@2@U?$equal_to@V?$basic_string@DU?$char_traits@D@std@@V?$allocator@D@2@@std@@@2@V?$allocator@U?$pair@$$CBV?$basic_string@DU?$char_traits@D@std@@V?$allocator@D@2@@std@@USlabelVal@LabelManager@Xbyak@@@std@@@2@@std@@AAV?$unordered_multimap@V?$basic_string@DU?$char_traits@D@std@@V?$allocator@D@2@@std@@$$CBUJmpLabel@Xbyak@@U?$hash@V?$basic_string@DU?$char_traits@D@std@@V?$allocator@D@2@@std@@@2@U?$equal_to@V?$basic_string@DU?$char_traits@D@std@@V?$allocator@D@2@@std@@@2@V?$allocator@U?$pair@$$CBV?$basic_string@DU?$char_traits@D@std@@V?$allocator@D@2@@std@@$$CBUJmpLabel@Xbyak@@@std@@@2@@3@ABV?$basic_string@DU?$char_traits@D@std@@V?$allocator@D@2@@3@I@Z 0042f3ad f i mupakk_stubs.obj
 0001:0002e508       ??$emplace@AAU?$pair@$$CBV?$basic_string@DU?$char_traits@D@std@@V?$allocator@D@2@@std@@USlabelVal@LabelManager@Xbyak@@@std@@@?$_Hash@V?$_Umap_traits@V?$basic_string@DU?$char_traits@D@std@@V?$allocator@D@2@@std@@USlabelVal@LabelManager@Xbyak@@V?$_Uhash_compare@V?$basic_string@DU?$char_traits@D@std@@V?$allocator@D@2@@std@@U?$hash@V?$basic_string@DU?$char_traits@D@std@@V?$allocator@D@2@@std@@@2@U?$equal_to@V?$basic_string@DU?$char_traits@D@std@@V?$allocator@D@2@@std@@@2@@2@V?$allocator@U?$pair@$$CBV?$basic_string@DU?$char_traits@D@std@@V?$allocator@D@2@@std@@USlabelVal@LabelManager@Xbyak@@@std@@@2@$0A@@std@@@std@@QAE?AU?$pair@V?$_List_iterator@V?$_List_val@U?$_List_simple_types@U?$pair@$$CBV?$basic_string@DU?$char_traits@D@std@@V?$allocator@D@2@@std@@USlabelVal@LabelManager@Xbyak@@@std@@@std@@@std@@@std@@_N@1@AAU?$pair@$$CBV?$basic_string@DU?$char_traits@D@std@@V?$allocator@D@2@@std@@USlabelVal@LabelManager@Xbyak@@@1@@Z 0042f508 f i mupakk_stubs.obj
 0001:0002e59c       ??$emplace@U?$pair@$$CBH$$CBUJmpLabel@Xbyak@@@std@@@?$_Hash@V?$_Umap_traits@H$$CBUJmpLabel@Xbyak@@V?$_Uhash_compare@HU?$hash@H@std@@U?$equal_to@H@2@@std@@V?$allocator@U?$pair@$$CBH$$CBUJmpLabel@Xbyak@@@std@@@4@$00@std@@@std@@QAE?AV?$_List_iterator@V?$_List_val@U?$_List_simple_types@U?$pair@$$CBH$$CBUJmpLabel@Xbyak@@@std@@@std@@@std@@@1@$$QAU?$pair@$$CBH$$CBUJmpLabel@Xbyak@@@1@@Z 0042f59c f i mupakk_stubs.obj
 0001:0002e60e       ??$emplace@U?$pair@$$CBV?$basic_string@DU?$char_traits@D@std@@V?$allocator@D@2@@std@@$$CBUJmpLabel@Xbyak@@@std@@@?$_Hash@V?$_Umap_traits@V?$basic_string@DU?$char_traits@D@std@@V?$allocator@D@2@@std@@$$CBUJmpLabel@Xbyak@@V?$_Uhash_compare@V?$basic_string@DU?$char_traits@D@std@@V?$allocator@D@2@@std@@U?$hash@V?$basic_string@DU?$char_traits@D@std@@V?$allocator@D@2@@std@@@2@U?$equal_to@V?$basic_string@DU?$char_traits@D@std@@V?$allocator@D@2@@std@@@2@@2@V?$allocator@U?$pair@$$CBV?$basic_string@DU?$char_traits@D@std@@V?$allocator@D@2@@std@@$$CBUJmpLabel@Xbyak@@@std@@@2@$00@std@@@std@@QAE?AV?$_List_iterator@V?$_List_val@U?$_List_simple_types@U?$pair@$$CBV?$basic_string@DU?$char_traits@D@std@@V?$allocator@D@2@@std@@$$CBUJmpLabel@Xbyak@@@std@@@std@@@std@@@1@$$QAU?$pair@$$CBV?$basic_string@DU?$char_traits@D@std@@V?$allocator@D@2@@std@@$$CBUJmpLabel@Xbyak@@@1@@Z 0042f60e f i mupakk_stubs.obj
 0001:0002e67b       ??$exchange@IABI@std@@YGIAAIABI@Z 0042f67b f i mupakk_stubs.obj
 0001:0002e68c       ??$exchange@II@std@@YGIAAI$$QAI@Z 0042f68c f i mupakk_stubs.obj
 0001:0002e69d       ??$exchange@PAU?$_List_node@U?$pair@$$CBH$$CBUJmpLabel@Xbyak@@@std@@PAX@std@@$$T@std@@YGPAU?$_List_node@U?$pair@$$CBH$$CBUJmpLabel@Xbyak@@@std@@PAX@0@AAPAU10@$$QA$$T@Z 0042f69d f i mupakk_stubs.obj
 0001:0002e6ae       ??$exchange@PAU?$_List_node@U?$pair@$$CBV?$basic_string@DU?$char_traits@D@std@@V?$allocator@D@2@@std@@$$CBUJmpLabel@Xbyak@@@std@@PAX@std@@$$T@std@@YGPAU?$_List_node@U?$pair@$$CBV?$basic_string@DU?$char_traits@D@std@@V?$allocator@D@2@@std@@$$CBUJmpLabel@Xbyak@@@std@@PAX@0@AAPAU10@$$QA$$T@Z 0042f6ae f i mupakk_stubs.obj
 0001:0002e6bf       ??$exchange@PAU?$_List_node@U?$pair@$$CBV?$basic_string@DU?$char_traits@D@std@@V?$allocator@D@2@@std@@USlabelVal@LabelManager@Xbyak@@@std@@PAX@std@@$$T@std@@YGPAU?$_List_node@U?$pair@$$CBV?$basic_string@DU?$char_traits@D@std@@V?$allocator@D@2@@std@@USlabelVal@LabelManager@Xbyak@@@std@@PAX@0@AAPAU10@$$QA$$T@Z 0042f6bf f i mupakk_stubs.obj
 0001:0002e6d0       ??$fill@PAV?$_List_unchecked_iterator@V?$_List_val@U?$_List_simple_types@U?$pair@$$CBH$$CBUJmpLabel@Xbyak@@@std@@@std@@@std@@@std@@V12@@std@@YGXQAV?$_List_unchecked_iterator@V?$_List_val@U?$_List_simple_types@U?$pair@$$CBH$$CBUJmpLabel@Xbyak@@@std@@@std@@@std@@@0@0ABV10@@Z 0042f6d0 f i mupakk_stubs.obj
 0001:0002e72e       ??$fill@PAV?$_List_unchecked_iterator@V?$_List_val@U?$_List_simple_types@U?$pair@$$CBHUClabelVal@LabelManager@Xbyak@@@std@@@std@@@std@@@std@@V12@@std@@YGXQAV?$_List_unchecked_iterator@V?$_List_val@U?$_List_simple_types@U?$pair@$$CBHUClabelVal@LabelManager@Xbyak@@@std@@@std@@@std@@@0@0ABV10@@Z 0042f72e f i mupakk_stubs.obj
 0001:0002e78c       ??$fill@PAV?$_List_unchecked_iterator@V?$_List_val@U?$_List_simple_types@U?$pair@$$CBV?$basic_string@DU?$char_traits@D@std@@V?$allocator@D@2@@std@@$$CBUJmpLabel@Xbyak@@@std@@@std@@@std@@@std@@V12@@std@@YGXQAV?$_List_unchecked_iterator@V?$_List_val@U?$_List_simple_types@U?$pair@$$CBV?$basic_string@DU?$char_traits@D@std@@V?$allocator@D@2@@std@@$$CBUJmpLabel@Xbyak@@@std@@@std@@@std@@@0@0ABV10@@Z 0042f78c f i mupakk_stubs.obj
 0001:0002e7ea       ??$fill@PAV?$_List_unchecked_iterator@V?$_List_val@U?$_List_simple_types@U?$pair@$$CBV?$basic_string@DU?$char_traits@D@std@@V?$allocator@D@2@@std@@USlabelVal@LabelManager@Xbyak@@@std@@@std@@@std@@@std@@V12@@std@@YGXQAV?$_List_unchecked_iterator@V?$_List_val@U?$_List_simple_types@U?$pair@$$CBV?$basic_string@DU?$char_traits@D@std@@V?$allocator@D@2@@std@@USlabelVal@LabelManager@Xbyak@@@std@@@std@@@std@@@0@0ABV10@@Z 0042f7ea f i mupakk_stubs.obj
 0001:0002e848       ??$find@X@?$_Hash@V?$_Umap_traits@HUClabelVal@LabelManager@Xbyak@@V?$_Uhash_compare@HU?$hash@H@std@@U?$equal_to@H@2@@std@@V?$allocator@U?$pair@$$CBHUClabelVal@LabelManager@Xbyak@@@std@@@5@$0A@@std@@@std@@QBE?AV?$_List_const_iterator@V?$_List_val@U?$_List_simple_types@U?$pair@$$CBHUClabelVal@LabelManager@Xbyak@@@std@@@std@@@std@@@1@ABH@Z 0042f848 f i mupakk_stubs.obj
 0001:0002e882       ??$find@X@?$_Hash@V?$_Umap_traits@V?$basic_string@DU?$char_traits@D@std@@V?$allocator@D@2@@std@@USlabelVal@LabelManager@Xbyak@@V?$_Uhash_compare@V?$basic_string@DU?$char_traits@D@std@@V?$allocator@D@2@@std@@U?$hash@V?$basic_string@DU?$char_traits@D@std@@V?$allocator@D@2@@std@@@2@U?$equal_to@V?$basic_string@DU?$char_traits@D@std@@V?$allocator@D@2@@std@@@2@@2@V?$allocator@U?$pair@$$CBV?$basic_string@DU?$char_traits@D@std@@V?$allocator@D@2@@std@@USlabelVal@LabelManager@Xbyak@@@std@@@2@$0A@@std@@@std@@QAE?AV?$_List_iterator@V?$_List_val@U?$_List_simple_types@U?$pair@$$CBV?$basic_string@DU?$char_traits@D@std@@V?$allocator@D@2@@std@@USlabelVal@LabelManager@Xbyak@@@std@@@std@@@std@@@1@ABV?$basic_string@DU?$char_traits@D@std@@V?$allocator@D@2@@1@@Z 0042f882 f i mupakk_stubs.obj
 0001:0002e8b5       ??$find@X@?$_Hash@V?$_Umap_traits@V?$basic_string@DU?$char_traits@D@std@@V?$allocator@D@2@@std@@USlabelVal@LabelManager@Xbyak@@V?$_Uhash_compare@V?$basic_string@DU?$char_traits@D@std@@V?$allocator@D@2@@std@@U?$hash@V?$basic_string@DU?$char_traits@D@std@@V?$allocator@D@2@@std@@@2@U?$equal_to@V?$basic_string@DU?$char_traits@D@std@@V?$allocator@D@2@@std@@@2@@2@V?$allocator@U?$pair@$$CBV?$basic_string@DU?$char_traits@D@std@@V?$allocator@D@2@@std@@USlabelVal@LabelManager@Xbyak@@@std@@@2@$0A@@std@@@std@@QBE?AV?$_List_const_iterator@V?$_List_val@U?$_List_simple_types@U?$pair@$$CBV?$basic_string@DU?$char_traits@D@std@@V?$allocator@D@2@@std@@USlabelVal@LabelManager@Xbyak@@@std@@@std@@@std@@@1@ABV?$basic_string@DU?$char_traits@D@std@@V?$allocator@D@2@@1@@Z 0042f8b5 f i mupakk_stubs.obj
 0001:0002e8e8       ??$getOffset_inner@V?$unordered_map@HUClabelVal@LabelManager@Xbyak@@U?$hash@H@std@@U?$equal_to@H@5@V?$allocator@U?$pair@$$CBHUClabelVal@LabelManager@Xbyak@@@std@@@5@@std@@H@LabelManager@Xbyak@@ABE_NABV?$unordered_map@HUClabelVal@LabelManager@Xbyak@@U?$hash@H@std@@U?$equal_to@H@5@V?$allocator@U?$pair@$$CBHUClabelVal@LabelManager@Xbyak@@@std@@@5@@std@@PAIABH@Z 0042f8e8 f i mupakk_stubs.obj
 0001:0002e918       ??$getOffset_inner@V?$unordered_map@V?$basic_string@DU?$char_traits@D@std@@V?$allocator@D@2@@std@@USlabelVal@LabelManager@Xbyak@@U?$hash@V?$basic_string@DU?$char_traits@D@std@@V?$allocator@D@2@@std@@@2@U?$equal_to@V?$basic_string@DU?$char_traits@D@std@@V?$allocator@D@2@@std@@@2@V?$allocator@U?$pair@$$CBV?$basic_string@DU?$char_traits@D@std@@V?$allocator@D@2@@std@@USlabelVal@LabelManager@Xbyak@@@std@@@2@@std@@V?$basic_string@DU?$char_traits@D@std@@V?$allocator@D@2@@2@@LabelManager@Xbyak@@ABE_NABV?$unordered_map@V?$basic_string@DU?$char_traits@D@std@@V?$allocator@D@2@@std@@USlabelVal@LabelManager@Xbyak@@U?$hash@V?$basic_string@DU?$char_traits@D@std@@V?$allocator@D@2@@std@@@2@U?$equal_to@V?$basic_string@DU?$char_traits@D@std@@V?$allocator@D@2@@std@@@2@V?$allocator@U?$pair@$$CBV?$basic_string@DU?$char_traits@D@std@@V?$allocator@D@2@@std@@USlabelVal@LabelManager@Xbyak@@@std@@@2@@std@@PAIABV?$basic_string@DU?$char_traits@D@std@@V?$allocator@D@2@@3@@Z 0042f918 f i mupakk_stubs.obj
 0001:0002e948       ??$opJmp@V?$basic_string@DU?$char_traits@D@std@@V?$allocator@D@2@@std@@@CodeGenerator@Xbyak@@AAEXAAV?$basic_string@DU?$char_traits@D@std@@V?$allocator@D@2@@std@@W4LabelType@01@EEE@Z 0042f948 f i mupakk_stubs.obj
 0001:0002ea1e       ??$putL_inner@$$CBVLabel@Xbyak@@@CodeGenerator@Xbyak@@AAEXABVLabel@1@_NI@Z 0042fa1e f i mupakk_stubs.obj
 0001:0002eaf6       ??$swap@PAU?$_List_node@U?$pair@$$CBV?$basic_string@DU?$char_traits@D@std@@V?$allocator@D@2@@std@@$$CBUJmpLabel@Xbyak@@@std@@PAX@std@@X@std@@YGXAAPAU?$_List_node@U?$pair@$$CBV?$basic_string@DU?$char_traits@D@std@@V?$allocator@D@2@@std@@$$CBUJmpLabel@Xbyak@@@std@@PAX@0@0@Z 0042faf6 f i mupakk_stubs.obj
 0001:0002eb0b       ??$swap@PAU?$_List_node@U?$pair@$$CBV?$basic_string@DU?$char_traits@D@std@@V?$allocator@D@2@@std@@USlabelVal@LabelManager@Xbyak@@@std@@PAX@std@@X@std@@YGXAAPAU?$_List_node@U?$pair@$$CBV?$basic_string@DU?$char_traits@D@std@@V?$allocator@D@2@@std@@USlabelVal@LabelManager@Xbyak@@@std@@PAX@0@0@Z 0042fb0b f i mupakk_stubs.obj
 0001:0002eb20       ??$swap@PAV?$_List_unchecked_iterator@V?$_List_val@U?$_List_simple_types@U?$pair@$$CBV?$basic_string@DU?$char_traits@D@std@@V?$allocator@D@2@@std@@$$CBUJmpLabel@Xbyak@@@std@@@std@@@std@@@std@@X@std@@YGXAAPAV?$_List_unchecked_iterator@V?$_List_val@U?$_List_simple_types@U?$pair@$$CBV?$basic_string@DU?$char_traits@D@std@@V?$allocator@D@2@@std@@$$CBUJmpLabel@Xbyak@@@std@@@std@@@std@@@0@0@Z 0042fb20 f i mupakk_stubs.obj
 0001:0002eb35       ??$swap@PAV?$_List_unchecked_iterator@V?$_List_val@U?$_List_simple_types@U?$pair@$$CBV?$basic_string@DU?$char_traits@D@std@@V?$allocator@D@2@@std@@USlabelVal@LabelManager@Xbyak@@@std@@@std@@@std@@@std@@X@std@@YGXAAPAV?$_List_unchecked_iterator@V?$_List_val@U?$_List_simple_types@U?$pair@$$CBV?$basic_string@DU?$char_traits@D@std@@V?$allocator@D@2@@std@@USlabelVal@LabelManager@Xbyak@@@std@@@std@@@std@@@0@0@Z 0042fb35 f i mupakk_stubs.obj
 0001:0002eb4a       ??$swap@PBVOperand@Xbyak@@X@std@@YGXAAPBVOperand@Xbyak@@0@Z 0042fb4a f i mupakk_stubs.obj
 0001:0002eb5f       ??$swap@USReg@RegExp@Xbyak@@X@std@@YGXAAUSReg@RegExp@Xbyak@@0@Z 0042fb5f f i mupakk_stubs.obj
 0001:0002eb78       ??$uninitialized_fill@PAV?$_List_unchecked_iterator@V?$_List_val@U?$_List_simple_types@U?$pair@$$CBH$$CBUJmpLabel@Xbyak@@@std@@@std@@@std@@@std@@V12@@std@@YGXQAV?$_List_unchecked_iterator@V?$_List_val@U?$_List_simple_types@U?$pair@$$CBH$$CBUJmpLabel@Xbyak@@@std@@@std@@@std@@@0@0ABV10@@Z 0042fb78 f i mupakk_stubs.obj
 0001:0002eb96       ??$uninitialized_fill@PAV?$_List_unchecked_iterator@V?$_List_val@U?$_List_simple_types@U?$pair@$$CBHUClabelVal@LabelManager@Xbyak@@@std@@@std@@@std@@@std@@V12@@std@@YGXQAV?$_List_unchecked_iterator@V?$_List_val@U?$_List_simple_types@U?$pair@$$CBHUClabelVal@LabelManager@Xbyak@@@std@@@std@@@std@@@0@0ABV10@@Z 0042fb96 f i mupakk_stubs.obj
 0001:0002ebb4       ??$uninitialized_fill@PAV?$_List_unchecked_iterator@V?$_List_val@U?$_List_simple_types@U?$pair@$$CBV?$basic_string@DU?$char_traits@D@std@@V?$allocator@D@2@@std@@$$CBUJmpLabel@Xbyak@@@std@@@std@@@std@@@std@@V12@@std@@YGXQAV?$_List_unchecked_iterator@V?$_List_val@U?$_List_simple_types@U?$pair@$$CBV?$basic_string@DU?$char_traits@D@std@@V?$allocator@D@2@@std@@$$CBUJmpLabel@Xbyak@@@std@@@std@@@std@@@0@0ABV10@@Z 0042fbb4 f i mupakk_stubs.obj
 0001:0002ebd2       ??$uninitialized_fill@PAV?$_List_unchecked_iterator@V?$_List_val@U?$_List_simple_types@U?$pair@$$CBV?$basic_string@DU?$char_traits@D@std@@V?$allocator@D@2@@std@@USlabelVal@LabelManager@Xbyak@@@std@@@std@@@std@@@std@@V12@@std@@YGXQAV?$_List_unchecked_iterator@V?$_List_val@U?$_List_simple_types@U?$pair@$$CBV?$basic_string@DU?$char_traits@D@std@@V?$allocator@D@2@@std@@USlabelVal@LabelManager@Xbyak@@@std@@@std@@@std@@@0@0ABV10@@Z 0042fbd2 f i mupakk_stubs.obj
 0001:0002ebf0       ??0?$_Hash@V?$_Umap_traits@H$$CBUJmpLabel@Xbyak@@V?$_Uhash_compare@HU?$hash@H@std@@U?$equal_to@H@2@@std@@V?$allocator@U?$pair@$$CBH$$CBUJmpLabel@Xbyak@@@std@@@4@$00@std@@@std@@IAE@ABV?$_Uhash_compare@HU?$hash@H@std@@U?$equal_to@H@2@@1@ABV?$allocator@U?$pair@$$CBH$$CBUJmpLabel@Xbyak@@@std@@@1@@Z 0042fbf0 f i mupakk_stubs.obj
 0001:0002ec3a       ??0?$_Hash@V?$_Umap_traits@HUClabelVal@LabelManager@Xbyak@@V?$_Uhash_compare@HU?$hash@H@std@@U?$equal_to@H@2@@std@@V?$allocator@U?$pair@$$CBHUClabelVal@LabelManager@Xbyak@@@std@@@5@$0A@@std@@@std@@IAE@ABV?$_Uhash_compare@HU?$hash@H@std@@U?$equal_to@H@2@@1@ABV?$allocator@U?$pair@$$CBHUClabelVal@LabelManager@Xbyak@@@std@@@1@@Z 0042fc3a f i mupakk_stubs.obj
 0001:0002ec84       ??0?$_Hash@V?$_Umap_traits@V?$basic_string@DU?$char_traits@D@std@@V?$allocator@D@2@@std@@$$CBUJmpLabel@Xbyak@@V?$_Uhash_compare@V?$basic_string@DU?$char_traits@D@std@@V?$allocator@D@2@@std@@U?$hash@V?$basic_string@DU?$char_traits@D@std@@V?$allocator@D@2@@std@@@2@U?$equal_to@V?$basic_string@DU?$char_traits@D@std@@V?$allocator@D@2@@std@@@2@@2@V?$allocator@U?$pair@$$CBV?$basic_string@DU?$char_traits@D@std@@V?$allocator@D@2@@std@@$$CBUJmpLabel@Xbyak@@@std@@@2@$00@std@@@std@@IAE@$$QAV01@@Z 0042fc84 f i mupakk_stubs.obj
 0001:0002ed08       ??0?$_Hash@V?$_Umap_traits@V?$basic_string@DU?$char_traits@D@std@@V?$allocator@D@2@@std@@$$CBUJmpLabel@Xbyak@@V?$_Uhash_compare@V?$basic_string@DU?$char_traits@D@std@@V?$allocator@D@2@@std@@U?$hash@V?$basic_string@DU?$char_traits@D@std@@V?$allocator@D@2@@std@@@2@U?$equal_to@V?$basic_string@DU?$char_traits@D@std@@V?$allocator@D@2@@std@@@2@@2@V?$allocator@U?$pair@$$CBV?$basic_string@DU?$char_traits@D@std@@V?$allocator@D@2@@std@@$$CBUJmpLabel@Xbyak@@@std@@@2@$00@std@@@std@@IAE@ABV?$_Uhash_compare@V?$basic_string@DU?$char_traits@D@std@@V?$allocator@D@2@@std@@U?$hash@V?$basic_string@DU?$char_traits@D@std@@V?$allocator@D@2@@std@@@2@U?$equal_to@V?$basic_string@DU?$char_traits@D@std@@V?$allocator@D@2@@std@@@2@@1@ABV?$allocator@U?$pair@$$CBV?$basic_string@DU?$char_traits@D@std@@V?$allocator@D@2@@std@@$$CBUJmpLabel@Xbyak@@@std@@@1@@Z 0042fd08 f i mupakk_stubs.obj
 0001:0002ed52       ??0?$_Hash@V?$_Umap_traits@V?$basic_string@DU?$char_traits@D@std@@V?$allocator@D@2@@std@@USlabelVal@LabelManager@Xbyak@@V?$_Uhash_compare@V?$basic_string@DU?$char_traits@D@std@@V?$allocator@D@2@@std@@U?$hash@V?$basic_string@DU?$char_traits@D@std@@V?$allocator@D@2@@std@@@2@U?$equal_to@V?$basic_string@DU?$char_traits@D@std@@V?$allocator@D@2@@std@@@2@@2@V?$allocator@U?$pair@$$CBV?$basic_string@DU?$char_traits@D@std@@V?$allocator@D@2@@std@@USlabelVal@LabelManager@Xbyak@@@std@@@2@$0A@@std@@@std@@IAE@$$QAV01@@Z 0042fd52 f i mupakk_stubs.obj
 0001:0002edd6       ??0?$_Hash@V?$_Umap_traits@V?$basic_string@DU?$char_traits@D@std@@V?$allocator@D@2@@std@@USlabelVal@LabelManager@Xbyak@@V?$_Uhash_compare@V?$basic_string@DU?$char_traits@D@std@@V?$allocator@D@2@@std@@U?$hash@V?$basic_string@DU?$char_traits@D@std@@V?$allocator@D@2@@std@@@2@U?$equal_to@V?$basic_string@DU?$char_traits@D@std@@V?$allocator@D@2@@std@@@2@@2@V?$allocator@U?$pair@$$CBV?$basic_string@DU?$char_traits@D@std@@V?$allocator@D@2@@std@@USlabelVal@LabelManager@Xbyak@@@std@@@2@$0A@@std@@@std@@IAE@ABV?$_Uhash_compare@V?$basic_string@DU?$char_traits@D@std@@V?$allocator@D@2@@std@@U?$hash@V?$basic_string@DU?$char_traits@D@std@@V?$allocator@D@2@@std@@@2@U?$equal_to@V?$basic_string@DU?$char_traits@D@std@@V?$allocator@D@2@@std@@@2@@1@ABV?$allocator@U?$pair@$$CBV?$basic_string@DU?$char_traits@D@std@@V?$allocator@D@2@@std@@USlabelVal@LabelManager@Xbyak@@@std@@@1@@Z 0042fdd6 f i mupakk_stubs.obj
 0001:0002ee20       ??0?$list@U?$pair@$$CBH$$CBUJmpLabel@Xbyak@@@std@@V?$allocator@U?$pair@$$CBH$$CBUJmpLabel@Xbyak@@@std@@@2@@std@@QAE@ABV?$allocator@U?$pair@$$CBH$$CBUJmpLabel@Xbyak@@@std@@@1@@Z 0042fe20 f i mupakk_stubs.obj
 0001:0002ee3e       ??0?$list@U?$pair@$$CBHUClabelVal@LabelManager@Xbyak@@@std@@V?$allocator@U?$pair@$$CBHUClabelVal@LabelManager@Xbyak@@@std@@@2@@std@@QAE@ABV?$allocator@U?$pair@$$CBHUClabelVal@LabelManager@Xbyak@@@std@@@1@@Z 0042fe3e f i mupakk_stubs.obj
 0001:0002ee5c       ??0?$list@U?$pair@$$CBV?$basic_string@DU?$char_traits@D@std@@V?$allocator@D@2@@std@@$$CBUJmpLabel@Xbyak@@@std@@V?$allocator@U?$pair@$$CBV?$basic_string@DU?$char_traits@D@std@@V?$allocator@D@2@@std@@$$CBUJmpLabel@Xbyak@@@std@@@2@@std@@QAE@ABV?$allocator@U?$pair@$$CBV?$basic_string@DU?$char_traits@D@std@@V?$allocator@D@2@@std@@$$CBUJmpLabel@Xbyak@@@std@@@1@@Z 0042fe5c f i mupakk_stubs.obj
 0001:0002ee7a       ??0?$list@U?$pair@$$CBV?$basic_string@DU?$char_traits@D@std@@V?$allocator@D@2@@std@@USlabelVal@LabelManager@Xbyak@@@std@@V?$allocator@U?$pair@$$CBV?$basic_string@DU?$char_traits@D@std@@V?$allocator@D@2@@std@@USlabelVal@LabelManager@Xbyak@@@std@@@2@@std@@QAE@ABV?$allocator@U?$pair@$$CBV?$basic_string@DU?$char_traits@D@std@@V?$allocator@D@2@@std@@USlabelVal@LabelManager@Xbyak@@@std@@@1@@Z 0042fe7a f i mupakk_stubs.obj
 0001:0002ee98       ??0?$list@UAddrInfo@CodeArray@Xbyak@@V?$allocator@UAddrInfo@CodeArray@Xbyak@@@std@@@std@@QAE@XZ 0042fe98 f i mupakk_stubs.obj
 0001:0002eeb4       ??0?$list@USlabelState@LabelManager@Xbyak@@V?$allocator@USlabelState@LabelManager@Xbyak@@@std@@@std@@QAE@XZ 0042feb4 f i mupakk_stubs.obj
 0001:0002eed0       ??0?$pair@$$CBV?$basic_string@DU?$char_traits@D@std@@V?$allocator@D@2@@std@@$$CBUJmpLabel@Xbyak@@@std@@QAE@$$QAU01@@Z 0042fed0 f i mupakk_stubs.obj
 0001:0002eef9       ??0?$pair@$$CBV?$basic_string@DU?$char_traits@D@std@@V?$allocator@D@2@@std@@USlabelVal@LabelManager@Xbyak@@@std@@QAE@ABU01@@Z 0042fef9 f i mupakk_stubs.obj
 0001:0002ef1c       ??0Address@Xbyak@@QAE@I_NI0000@Z 0042ff1c f i mupakk_stubs.obj
 0001:0002ef5f       ??0Bootstrapper@@QAE@HHH@Z 0042ff5f f i mupakk_stubs.obj
 0001:0002f175       ??0CodeArray@Xbyak@@QAE@IPAXPAUAllocator@1@@Z 00430175 f i mupakk_stubs.obj
 0001:0002f257       ??0CodeGenerator@Xbyak@@QAE@IPAXPAUAllocator@1@@Z 00430257 f i mupakk_stubs.obj
 0001:0002f74e       ??0Error@Xbyak@@QAE@ABV01@@Z 0043074e f i mupakk_stubs.obj
 0001:0002f76f       ??0Error@Xbyak@@QAE@H@Z    0043076f f i mupakk_stubs.obj
 0001:0002f7b1       ??0LabelManager@Xbyak@@QAE@XZ 004307b1 f i mupakk_stubs.obj
 0001:0002f7f5       ??0RegExp@Xbyak@@QAE@ABVReg@1@H@Z 004307f5 f i mupakk_stubs.obj
 0001:0002f880       ??0SlabelState@LabelManager@Xbyak@@QAE@$$QAU012@@Z 00430880 f i mupakk_stubs.obj
 0001:0002f8a1       ??0SlabelState@LabelManager@Xbyak@@QAE@XZ 004308a1 f i mupakk_stubs.obj
 0001:0002f8d3       ??1Allocator@Xbyak@@UAE@XZ 004308d3 f i mupakk_stubs.obj
 0001:0002f8da       ??1CodeArray@Xbyak@@UAE@XZ 004308da f i mupakk_stubs.obj
 0001:0002f92d       ??1Error@Xbyak@@UAE@XZ     0043092d f i mupakk_stubs.obj
 0001:0002f93e       ??1LabelManager@Xbyak@@QAE@XZ 0043093e f i mupakk_stubs.obj
 0001:0002f96a       ??1SlabelState@LabelManager@Xbyak@@QAE@XZ 0043096a f i mupakk_stubs.obj
 0001:0002f98e       ??HXbyak@@YG?AVRegExp@0@ABV10@0@Z 0043098e f i mupakk_stubs.obj
 0001:0002fa56       ??R?$hash@V?$basic_string@DU?$char_traits@D@std@@V?$allocator@D@2@@std@@@std@@QBEIABV?$basic_string@DU?$char_traits@D@std@@V?$allocator@D@2@@1@@Z 00430a56 f i mupakk_stubs.obj
 0001:0002fa75       ??_GAllocator@Xbyak@@UAEPAXI@Z 00430a75 f i mupakk_stubs.obj
 0001:0002fa75       ??_EAllocator@Xbyak@@UAEPAXI@Z 00430a75 f i mupakk_stubs.obj
 0001:0002fa95       ??_EBootstrapper@@UAEPAXI@Z 00430a95 f i mupakk_stubs.obj
 0001:0002fa95       ??_GBootstrapper@@UAEPAXI@Z 00430a95 f i mupakk_stubs.obj
 0001:0002fac1       ??_ECodeArray@Xbyak@@UAEPAXI@Z 00430ac1 f i mupakk_stubs.obj
 0001:0002fac1       ??_GCodeArray@Xbyak@@UAEPAXI@Z 00430ac1 f i mupakk_stubs.obj
 0001:0002fae0       ??_GCodeGenerator@Xbyak@@UAEPAXI@Z 00430ae0 f i mupakk_stubs.obj
 0001:0002fae0       ??_ECodeGenerator@Xbyak@@UAEPAXI@Z 00430ae0 f i mupakk_stubs.obj
 0001:0002fb0c       ??_GError@Xbyak@@UAEPAXI@Z 00430b0c f i mupakk_stubs.obj
 0001:0002fb0c       ??_EError@Xbyak@@UAEPAXI@Z 00430b0c f i mupakk_stubs.obj
 0001:0002fb36       ?IsInInt32@inner@Xbyak@@YG_N_K@Z 00430b36 f i mupakk_stubs.obj
 0001:0002fb60       ?L@CodeGenerator@Xbyak@@QAEXABV?$basic_string@DU?$char_traits@D@std@@V?$allocator@D@2@@std@@@Z 00430b60 f i mupakk_stubs.obj
 0001:0002fb85       ?_Assign_grow@?$_Hash_vec@V?$allocator@V?$_List_unchecked_iterator@V?$_List_val@U?$_List_simple_types@U?$pair@$$CBH$$CBUJmpLabel@Xbyak@@@std@@@std@@@std@@@std@@@std@@@std@@QAEXIV?$_List_unchecked_iterator@V?$_List_val@U?$_List_simple_types@U?$pair@$$CBH$$CBUJmpLabel@Xbyak@@@std@@@std@@@std@@@2@@Z 00430b85 f i mupakk_stubs.obj
 0001:0002fbe9       ?_Assign_grow@?$_Hash_vec@V?$allocator@V?$_List_unchecked_iterator@V?$_List_val@U?$_List_simple_types@U?$pair@$$CBHUClabelVal@LabelManager@Xbyak@@@std@@@std@@@std@@@std@@@std@@@std@@QAEXIV?$_List_unchecked_iterator@V?$_List_val@U?$_List_simple_types@U?$pair@$$CBHUClabelVal@LabelManager@Xbyak@@@std@@@std@@@std@@@2@@Z 00430be9 f i mupakk_stubs.obj
 0001:0002fc4d       ?_Assign_grow@?$_Hash_vec@V?$allocator@V?$_List_unchecked_iterator@V?$_List_val@U?$_List_simple_types@U?$pair@$$CBV?$basic_string@DU?$char_traits@D@std@@V?$allocator@D@2@@std@@$$CBUJmpLabel@Xbyak@@@std@@@std@@@std@@@std@@@std@@@std@@QAEXIV?$_List_unchecked_iterator@V?$_List_val@U?$_List_simple_types@U?$pair@$$CBV?$basic_string@DU?$char_traits@D@std@@V?$allocator@D@2@@std@@$$CBUJmpLabel@Xbyak@@@std@@@std@@@std@@@2@@Z 00430c4d f i mupakk_stubs.obj
 0001:0002fcb1       ?_Assign_grow@?$_Hash_vec@V?$allocator@V?$_List_unchecked_iterator@V?$_List_val@U?$_List_simple_types@U?$pair@$$CBV?$basic_string@DU?$char_traits@D@std@@V?$allocator@D@2@@std@@USlabelVal@LabelManager@Xbyak@@@std@@@std@@@std@@@std@@@std@@@std@@QAEXIV?$_List_unchecked_iterator@V?$_List_val@U?$_List_simple_types@U?$pair@$$CBV?$basic_string@DU?$char_traits@D@std@@V?$allocator@D@2@@std@@USlabelVal@LabelManager@Xbyak@@@std@@@std@@@std@@@2@@Z 00430cb1 f i mupakk_stubs.obj
 0001:0002fd15       ?_Bump_erased@_Range_eraser@?$_Hash@V?$_Umap_traits@H$$CBUJmpLabel@Xbyak@@V?$_Uhash_compare@HU?$hash@H@std@@U?$equal_to@H@2@@std@@V?$allocator@U?$pair@$$CBH$$CBUJmpLabel@Xbyak@@@std@@@4@$00@std@@@std@@QAEXXZ 00430d15 f i mupakk_stubs.obj
 0001:0002fd31       ?_Bump_erased@_Range_eraser@?$_Hash@V?$_Umap_traits@HUClabelVal@LabelManager@Xbyak@@V?$_Uhash_compare@HU?$hash@H@std@@U?$equal_to@H@2@@std@@V?$allocator@U?$pair@$$CBHUClabelVal@LabelManager@Xbyak@@@std@@@5@$0A@@std@@@std@@QAEXXZ 00430d31 f i mupakk_stubs.obj
 0001:0002fd4d       ?_Check_max_size@?$_Hash@V?$_Umap_traits@H$$CBUJmpLabel@Xbyak@@V?$_Uhash_compare@HU?$hash@H@std@@U?$equal_to@H@2@@std@@V?$allocator@U?$pair@$$CBH$$CBUJmpLabel@Xbyak@@@std@@@4@$00@std@@@std@@IBEXXZ 00430d4d f i mupakk_stubs.obj
 0001:0002fd62       ?_Check_max_size@?$_Hash@V?$_Umap_traits@V?$basic_string@DU?$char_traits@D@std@@V?$allocator@D@2@@std@@$$CBUJmpLabel@Xbyak@@V?$_Uhash_compare@V?$basic_string@DU?$char_traits@D@std@@V?$allocator@D@2@@std@@U?$hash@V?$basic_string@DU?$char_traits@D@std@@V?$allocator@D@2@@std@@@2@U?$equal_to@V?$basic_string@DU?$char_traits@D@std@@V?$allocator@D@2@@std@@@2@@2@V?$allocator@U?$pair@$$CBV?$basic_string@DU?$char_traits@D@std@@V?$allocator@D@2@@std@@$$CBUJmpLabel@Xbyak@@@std@@@2@$00@std@@@std@@IBEXXZ 00430d62 f i mupakk_stubs.obj
 0001:0002fd77       ?_Check_max_size@?$_Hash@V?$_Umap_traits@V?$basic_string@DU?$char_traits@D@std@@V?$allocator@D@2@@std@@USlabelVal@LabelManager@Xbyak@@V?$_Uhash_compare@V?$basic_string@DU?$char_traits@D@std@@V?$allocator@D@2@@std@@U?$hash@V?$basic_string@DU?$char_traits@D@std@@V?$allocator@D@2@@std@@@2@U?$equal_to@V?$basic_string@DU?$char_traits@D@std@@V?$allocator@D@2@@std@@@2@@2@V?$allocator@U?$pair@$$CBV?$basic_string@DU?$char_traits@D@std@@V?$allocator@D@2@@std@@USlabelVal@LabelManager@Xbyak@@@std@@@2@$0A@@std@@@std@@IBEXXZ 00430d77 f i mupakk_stubs.obj
 0001:0002fd8c       ?_Check_rehash_required_1@?$_Hash@V?$_Umap_traits@H$$CBUJmpLabel@Xbyak@@V?$_Uhash_compare@HU?$hash@H@std@@U?$equal_to@H@2@@std@@V?$allocator@U?$pair@$$CBH$$CBUJmpLabel@Xbyak@@@std@@@4@$00@std@@@std@@IBE_NXZ 00430d8c f i mupakk_stubs.obj
 0001:0002fdce       ?_Check_rehash_required_1@?$_Hash@V?$_Umap_traits@V?$basic_string@DU?$char_traits@D@std@@V?$allocator@D@2@@std@@$$CBUJmpLabel@Xbyak@@V?$_Uhash_compare@V?$basic_string@DU?$char_traits@D@std@@V?$allocator@D@2@@std@@U?$hash@V?$basic_string@DU?$char_traits@D@std@@V?$allocator@D@2@@std@@@2@U?$equal_to@V?$basic_string@DU?$char_traits@D@std@@V?$allocator@D@2@@std@@@2@@2@V?$allocator@U?$pair@$$CBV?$basic_string@DU?$char_traits@D@std@@V?$allocator@D@2@@std@@$$CBUJmpLabel@Xbyak@@@std@@@2@$00@std@@@std@@IBE_NXZ 00430dce f i mupakk_stubs.obj
 0001:0002fe10       ?_Check_rehash_required_1@?$_Hash@V?$_Umap_traits@V?$basic_string@DU?$char_traits@D@std@@V?$allocator@D@2@@std@@USlabelVal@LabelManager@Xbyak@@V?$_Uhash_compare@V?$basic_string@DU?$char_traits@D@std@@V?$allocator@D@2@@std@@U?$hash@V?$basic_string@DU?$char_traits@D@std@@V?$allocator@D@2@@std@@@2@U?$equal_to@V?$basic_string@DU?$char_traits@D@std@@V?$allocator@D@2@@std@@@2@@2@V?$allocator@U?$pair@$$CBV?$basic_string@DU?$char_traits@D@std@@V?$allocator@D@2@@std@@USlabelVal@LabelManager@Xbyak@@@std@@@2@$0A@@std@@@std@@IBE_NXZ 00430e10 f i mupakk_stubs.obj
 0001:0002fe52       ?_Desired_grow_bucket_count@?$_Hash@V?$_Umap_traits@H$$CBUJmpLabel@Xbyak@@V?$_Uhash_compare@HU?$hash@H@std@@U?$equal_to@H@2@@std@@V?$allocator@U?$pair@$$CBH$$CBUJmpLabel@Xbyak@@@std@@@4@$00@std@@@std@@IBEII@Z 00430e52 f i mupakk_stubs.obj
 0001:0002fe86       ?_Desired_grow_bucket_count@?$_Hash@V?$_Umap_traits@V?$basic_string@DU?$char_traits@D@std@@V?$allocator@D@2@@std@@$$CBUJmpLabel@Xbyak@@V?$_Uhash_compare@V?$basic_string@DU?$char_traits@D@std@@V?$allocator@D@2@@std@@U?$hash@V?$basic_string@DU?$char_traits@D@std@@V?$allocator@D@2@@std@@@2@U?$equal_to@V?$basic_string@DU?$char_traits@D@std@@V?$allocator@D@2@@std@@@2@@2@V?$allocator@U?$pair@$$CBV?$basic_string@DU?$char_traits@D@std@@V?$allocator@D@2@@std@@$$CBUJmpLabel@Xbyak@@@std@@@2@$00@std@@@std@@IBEII@Z 00430e86 f i mupakk_stubs.obj
 0001:0002feba       ?_Desired_grow_bucket_count@?$_Hash@V?$_Umap_traits@V?$basic_string@DU?$char_traits@D@std@@V?$allocator@D@2@@std@@USlabelVal@LabelManager@Xbyak@@V?$_Uhash_compare@V?$basic_string@DU?$char_traits@D@std@@V?$allocator@D@2@@std@@U?$hash@V?$basic_string@DU?$char_traits@D@std@@V?$allocator@D@2@@std@@@2@U?$equal_to@V?$basic_string@DU?$char_traits@D@std@@V?$allocator@D@2@@std@@@2@@2@V?$allocator@U?$pair@$$CBV?$basic_string@DU?$char_traits@D@std@@V?$allocator@D@2@@std@@USlabelVal@LabelManager@Xbyak@@@std@@@2@$0A@@std@@@std@@IBEII@Z 00430eba f i mupakk_stubs.obj
 0001:0002feee       ?_Equal@?$basic_string@DU?$char_traits@D@std@@V?$allocator@D@2@@std@@QBE_NQBD@Z 00430eee f i mupakk_stubs.obj
 0001:0002ff1b       ?_Erase_bucket@?$_Hash@V?$_Umap_traits@V?$basic_string@DU?$char_traits@D@std@@V?$allocator@D@2@@std@@$$CBUJmpLabel@Xbyak@@V?$_Uhash_compare@V?$basic_string@DU?$char_traits@D@std@@V?$allocator@D@2@@std@@U?$hash@V?$basic_string@DU?$char_traits@D@std@@V?$allocator@D@2@@std@@@2@U?$equal_to@V?$basic_string@DU?$char_traits@D@std@@V?$allocator@D@2@@std@@@2@@2@V?$allocator@U?$pair@$$CBV?$basic_string@DU?$char_traits@D@std@@V?$allocator@D@2@@std@@$$CBUJmpLabel@Xbyak@@@std@@@2@$00@std@@@std@@IAEXPAU?$_List_node@U?$pair@$$CBV?$basic_string@DU?$char_traits@D@std@@V?$allocator@D@2@@std@@$$CBUJmpLabel@Xbyak@@@std@@PAX@2@I@Z 00430f1b f i mupakk_stubs.obj
 0001:0002ff51       ?_Erase_bucket@?$_Hash@V?$_Umap_traits@V?$basic_string@DU?$char_traits@D@std@@V?$allocator@D@2@@std@@USlabelVal@LabelManager@Xbyak@@V?$_Uhash_compare@V?$basic_string@DU?$char_traits@D@std@@V?$allocator@D@2@@std@@U?$hash@V?$basic_string@DU?$char_traits@D@std@@V?$allocator@D@2@@std@@@2@U?$equal_to@V?$basic_string@DU?$char_traits@D@std@@V?$allocator@D@2@@std@@@2@@2@V?$allocator@U?$pair@$$CBV?$basic_string@DU?$char_traits@D@std@@V?$allocator@D@2@@std@@USlabelVal@LabelManager@Xbyak@@@std@@@2@$0A@@std@@@std@@IAEXPAU?$_List_node@U?$pair@$$CBV?$basic_string@DU?$char_traits@D@std@@V?$allocator@D@2@@std@@USlabelVal@LabelManager@Xbyak@@@std@@PAX@2@I@Z 00430f51 f i mupakk_stubs.obj
 0001:0002ff87       ?_Fnv1a_append_bytes@std@@YGIIQBEI@Z 00430f87 f i mupakk_stubs.obj
 0001:0002ffb1       ?_Forced_rehash@?$_Hash@V?$_Umap_traits@H$$CBUJmpLabel@Xbyak@@V?$_Uhash_compare@HU?$hash@H@std@@U?$equal_to@H@2@@std@@V?$allocator@U?$pair@$$CBH$$CBUJmpLabel@Xbyak@@@std@@@4@$00@std@@@std@@IAEXI@Z 00430fb1 f i mupakk_stubs.obj
 0001:000300ec       ?_Forced_rehash@?$_Hash@V?$_Umap_traits@V?$basic_string@DU?$char_traits@D@std@@V?$allocator@D@2@@std@@$$CBUJmpLabel@Xbyak@@V?$_Uhash_compare@V?$basic_string@DU?$char_traits@D@std@@V?$allocator@D@2@@std@@U?$hash@V?$basic_string@DU?$char_traits@D@std@@V?$allocator@D@2@@std@@@2@U?$equal_to@V?$basic_string@DU?$char_traits@D@std@@V?$allocator@D@2@@std@@@2@@2@V?$allocator@U?$pair@$$CBV?$basic_string@DU?$char_traits@D@std@@V?$allocator@D@2@@std@@$$CBUJmpLabel@Xbyak@@@std@@@2@$00@std@@@std@@IAEXI@Z 004310ec f i mupakk_stubs.obj
 0001:00030251       ?_Forced_rehash@?$_Hash@V?$_Umap_traits@V?$basic_string@DU?$char_traits@D@std@@V?$allocator@D@2@@std@@USlabelVal@LabelManager@Xbyak@@V?$_Uhash_compare@V?$basic_string@DU?$char_traits@D@std@@V?$allocator@D@2@@std@@U?$hash@V?$basic_string@DU?$char_traits@D@std@@V?$allocator@D@2@@std@@@2@U?$equal_to@V?$basic_string@DU?$char_traits@D@std@@V?$allocator@D@2@@std@@@2@@2@V?$allocator@U?$pair@$$CBV?$basic_string@DU?$char_traits@D@std@@V?$allocator@D@2@@std@@USlabelVal@LabelManager@Xbyak@@@std@@@2@$0A@@std@@@std@@IAEXI@Z 00431251 f i mupakk_stubs.obj
 0001:000303b6       ?_Insert_new_node_before@?$_Hash@V?$_Umap_traits@H$$CBUJmpLabel@Xbyak@@V?$_Uhash_compare@HU?$hash@H@std@@U?$equal_to@H@2@@std@@V?$allocator@U?$pair@$$CBH$$CBUJmpLabel@Xbyak@@@std@@@4@$00@std@@@std@@IAEPAU?$_List_node@U?$pair@$$CBH$$CBUJmpLabel@Xbyak@@@std@@PAX@2@IQAU32@0@Z 004313b6 f i mupakk_stubs.obj
 0001:00030403       ?_Insert_new_node_before@?$_Hash@V?$_Umap_traits@V?$basic_string@DU?$char_traits@D@std@@V?$allocator@D@2@@std@@$$CBUJmpLabel@Xbyak@@V?$_Uhash_compare@V?$basic_string@DU?$char_traits@D@std@@V?$allocator@D@2@@std@@U?$hash@V?$basic_string@DU?$char_traits@D@std@@V?$allocator@D@2@@std@@@2@U?$equal_to@V?$basic_string@DU?$char_traits@D@std@@V?$allocator@D@2@@std@@@2@@2@V?$allocator@U?$pair@$$CBV?$basic_string@DU?$char_traits@D@std@@V?$allocator@D@2@@std@@$$CBUJmpLabel@Xbyak@@@std@@@2@$00@std@@@std@@IAEPAU?$_List_node@U?$pair@$$CBV?$basic_string@DU?$char_traits@D@std@@V?$allocator@D@2@@std@@$$CBUJmpLabel@Xbyak@@@std@@PAX@2@IQAU32@0@Z 00431403 f i mupakk_stubs.obj
 0001:00030450       ?_Insert_new_node_before@?$_Hash@V?$_Umap_traits@V?$basic_string@DU?$char_traits@D@std@@V?$allocator@D@2@@std@@USlabelVal@LabelManager@Xbyak@@V?$_Uhash_compare@V?$basic_string@DU?$char_traits@D@std@@V?$allocator@D@2@@std@@U?$hash@V?$basic_string@DU?$char_traits@D@std@@V?$allocator@D@2@@std@@@2@U?$equal_to@V?$basic_string@DU?$char_traits@D@std@@V?$allocator@D@2@@std@@@2@@2@V?$allocator@U?$pair@$$CBV?$basic_string@DU?$char_traits@D@std@@V?$allocator@D@2@@std@@USlabelVal@LabelManager@Xbyak@@@std@@@2@$0A@@std@@@std@@IAEPAU?$_List_node@U?$pair@$$CBV?$basic_string@DU?$char_traits@D@std@@V?$allocator@D@2@@std@@USlabelVal@LabelManager@Xbyak@@@std@@PAX@2@IQAU32@0@Z 00431450 f i mupakk_stubs.obj
 0001:0003049d       ?_Min_load_factor_buckets@?$_Hash@V?$_Umap_traits@H$$CBUJmpLabel@Xbyak@@V?$_Uhash_compare@HU?$hash@H@std@@U?$equal_to@H@2@@std@@V?$allocator@U?$pair@$$CBH$$CBUJmpLabel@Xbyak@@@std@@@4@$00@std@@@std@@IBEII@Z 0043149d f i mupakk_stubs.obj
 0001:000304ed       ?_Min_load_factor_buckets@?$_Hash@V?$_Umap_traits@V?$basic_string@DU?$char_traits@D@std@@V?$allocator@D@2@@std@@$$CBUJmpLabel@Xbyak@@V?$_Uhash_compare@V?$basic_string@DU?$char_traits@D@std@@V?$allocator@D@2@@std@@U?$hash@V?$basic_string@DU?$char_traits@D@std@@V?$allocator@D@2@@std@@@2@U?$equal_to@V?$basic_string@DU?$char_traits@D@std@@V?$allocator@D@2@@std@@@2@@2@V?$allocator@U?$pair@$$CBV?$basic_string@DU?$char_traits@D@std@@V?$allocator@D@2@@std@@$$CBUJmpLabel@Xbyak@@@std@@@2@$00@std@@@std@@IBEII@Z 004314ed f i mupakk_stubs.obj
 0001:0003053d       ?_Min_load_factor_buckets@?$_Hash@V?$_Umap_traits@V?$basic_string@DU?$char_traits@D@std@@V?$allocator@D@2@@std@@USlabelVal@LabelManager@Xbyak@@V?$_Uhash_compare@V?$basic_string@DU?$char_traits@D@std@@V?$allocator@D@2@@std@@U?$hash@V?$basic_string@DU?$char_traits@D@std@@V?$allocator@D@2@@std@@@2@U?$equal_to@V?$basic_string@DU?$char_traits@D@std@@V?$allocator@D@2@@std@@@2@@2@V?$allocator@U?$pair@$$CBV?$basic_string@DU?$char_traits@D@std@@V?$allocator@D@2@@std@@USlabelVal@LabelManager@Xbyak@@@std@@@2@$0A@@std@@@std@@IBEII@Z 0043153d f i mupakk_stubs.obj
 0001:0003058d       ?_Rehash_for_1@?$_Hash@V?$_Umap_traits@H$$CBUJmpLabel@Xbyak@@V?$_Uhash_compare@HU?$hash@H@std@@U?$equal_to@H@2@@std@@V?$allocator@U?$pair@$$CBH$$CBUJmpLabel@Xbyak@@@std@@@4@$00@std@@@std@@IAEXXZ 0043158d f i mupakk_stubs.obj
 0001:000305a4       ?_Rehash_for_1@?$_Hash@V?$_Umap_traits@V?$basic_string@DU?$char_traits@D@std@@V?$allocator@D@2@@std@@$$CBUJmpLabel@Xbyak@@V?$_Uhash_compare@V?$basic_string@DU?$char_traits@D@std@@V?$allocator@D@2@@std@@U?$hash@V?$basic_string@DU?$char_traits@D@std@@V?$allocator@D@2@@std@@@2@U?$equal_to@V?$basic_string@DU?$char_traits@D@std@@V?$allocator@D@2@@std@@@2@@2@V?$allocator@U?$pair@$$CBV?$basic_string@DU?$char_traits@D@std@@V?$allocator@D@2@@std@@$$CBUJmpLabel@Xbyak@@@std@@@2@$00@std@@@std@@IAEXXZ 004315a4 f i mupakk_stubs.obj
 0001:000305bb       ?_Rehash_for_1@?$_Hash@V?$_Umap_traits@V?$basic_string@DU?$char_traits@D@std@@V?$allocator@D@2@@std@@USlabelVal@LabelManager@Xbyak@@V?$_Uhash_compare@V?$basic_string@DU?$char_traits@D@std@@V?$allocator@D@2@@std@@U?$hash@V?$basic_string@DU?$char_traits@D@std@@V?$allocator@D@2@@std@@@2@U?$equal_to@V?$basic_string@DU?$char_traits@D@std@@V?$allocator@D@2@@std@@@2@@2@V?$allocator@U?$pair@$$CBV?$basic_string@DU?$char_traits@D@std@@V?$allocator@D@2@@std@@USlabelVal@LabelManager@Xbyak@@@std@@@2@$0A@@std@@@std@@IAEXXZ 004315bb f i mupakk_stubs.obj
 0001:000305d2       ?_Swap_val@?$_Vector_val@U?$_Simple_types@V?$_List_unchecked_iterator@V?$_List_val@U?$_List_simple_types@U?$pair@$$CBV?$basic_string@DU?$char_traits@D@std@@V?$allocator@D@2@@std@@$$CBUJmpLabel@Xbyak@@@std@@@std@@@std@@@std@@@std@@@std@@QAEXAAV12@@Z 004315d2 f i mupakk_stubs.obj
 0001:000305ff       ?_Swap_val@?$_Vector_val@U?$_Simple_types@V?$_List_unchecked_iterator@V?$_List_val@U?$_List_simple_types@U?$pair@$$CBV?$basic_string@DU?$char_traits@D@std@@V?$allocator@D@2@@std@@USlabelVal@LabelManager@Xbyak@@@std@@@std@@@std@@@std@@@std@@@std@@QAEXAAV12@@Z 004315ff f i mupakk_stubs.obj
 0001:0003062c       ?_Tidy@?$_Hash_vec@V?$allocator@V?$_List_unchecked_iterator@V?$_List_val@U?$_List_simple_types@U?$pair@$$CBH$$CBUJmpLabel@Xbyak@@@std@@@std@@@std@@@std@@@std@@@std@@QAEXXZ 0043162c f i mupakk_stubs.obj
 0001:0003064b       ?_Tidy@?$_Hash_vec@V?$allocator@V?$_List_unchecked_iterator@V?$_List_val@U?$_List_simple_types@U?$pair@$$CBHUClabelVal@LabelManager@Xbyak@@@std@@@std@@@std@@@std@@@std@@@std@@QAEXXZ 0043164b f i mupakk_stubs.obj
 0001:0003066a       ?_Tidy@?$_Hash_vec@V?$allocator@V?$_List_unchecked_iterator@V?$_List_val@U?$_List_simple_types@U?$pair@$$CBV?$basic_string@DU?$char_traits@D@std@@V?$allocator@D@2@@std@@$$CBUJmpLabel@Xbyak@@@std@@@std@@@std@@@std@@@std@@@std@@QAEXXZ 0043166a f i mupakk_stubs.obj
 0001:00030689       ?_Tidy@?$_Hash_vec@V?$allocator@V?$_List_unchecked_iterator@V?$_List_val@U?$_List_simple_types@U?$pair@$$CBV?$basic_string@DU?$char_traits@D@std@@V?$allocator@D@2@@std@@USlabelVal@LabelManager@Xbyak@@@std@@@std@@@std@@@std@@@std@@@std@@QAEXXZ 00431689 f i mupakk_stubs.obj
 0001:000306a8       ?_Tidy@?$list@U?$pair@$$CBH$$CBUJmpLabel@Xbyak@@@std@@V?$allocator@U?$pair@$$CBH$$CBUJmpLabel@Xbyak@@@std@@@2@@std@@AAEXXZ 004316a8 f i mupakk_stubs.obj
 0001:000306c0       ?_Tidy@?$list@U?$pair@$$CBHUClabelVal@LabelManager@Xbyak@@@std@@V?$allocator@U?$pair@$$CBHUClabelVal@LabelManager@Xbyak@@@std@@@2@@std@@AAEXXZ 004316c0 f i mupakk_stubs.obj
 0001:000306d8       ?_Tidy@?$list@U?$pair@$$CBV?$basic_string@DU?$char_traits@D@std@@V?$allocator@D@2@@std@@$$CBUJmpLabel@Xbyak@@@std@@V?$allocator@U?$pair@$$CBV?$basic_string@DU?$char_traits@D@std@@V?$allocator@D@2@@std@@$$CBUJmpLabel@Xbyak@@@std@@@2@@std@@AAEXXZ 004316d8 f i mupakk_stubs.obj
 0001:000306f0       ?_Tidy@?$list@U?$pair@$$CBV?$basic_string@DU?$char_traits@D@std@@V?$allocator@D@2@@std@@USlabelVal@LabelManager@Xbyak@@@std@@V?$allocator@U?$pair@$$CBV?$basic_string@DU?$char_traits@D@std@@V?$allocator@D@2@@std@@USlabelVal@LabelManager@Xbyak@@@std@@@2@@std@@AAEXXZ 004316f0 f i mupakk_stubs.obj
 0001:00030708       ?_Tidy@?$list@UAddrInfo@CodeArray@Xbyak@@V?$allocator@UAddrInfo@CodeArray@Xbyak@@@std@@@std@@AAEXXZ 00431708 f i mupakk_stubs.obj
 0001:00030720       ?_Tidy@?$list@USlabelState@LabelManager@Xbyak@@V?$allocator@USlabelState@LabelManager@Xbyak@@@std@@@std@@AAEXXZ 00431720 f i mupakk_stubs.obj
 0001:00030738       ?_Unchecked_erase@?$_Hash@V?$_Umap_traits@H$$CBUJmpLabel@Xbyak@@V?$_Uhash_compare@HU?$hash@H@std@@U?$equal_to@H@2@@std@@V?$allocator@U?$pair@$$CBH$$CBUJmpLabel@Xbyak@@@std@@@4@$00@std@@@std@@AAEPAU?$_List_node@U?$pair@$$CBH$$CBUJmpLabel@Xbyak@@@std@@PAX@2@PAU32@QAU32@@Z 00431738 f i mupakk_stubs.obj
 0001:0003087c       ?_Unchecked_erase@?$_Hash@V?$_Umap_traits@HUClabelVal@LabelManager@Xbyak@@V?$_Uhash_compare@HU?$hash@H@std@@U?$equal_to@H@2@@std@@V?$allocator@U?$pair@$$CBHUClabelVal@LabelManager@Xbyak@@@std@@@5@$0A@@std@@@std@@AAEPAU?$_List_node@U?$pair@$$CBHUClabelVal@LabelManager@Xbyak@@@std@@PAX@2@PAU32@QAU32@@Z 0043187c f i mupakk_stubs.obj
 0001:000309c0       ?_Unchecked_erase@?$_Hash@V?$_Umap_traits@V?$basic_string@DU?$char_traits@D@std@@V?$allocator@D@2@@std@@$$CBUJmpLabel@Xbyak@@V?$_Uhash_compare@V?$basic_string@DU?$char_traits@D@std@@V?$allocator@D@2@@std@@U?$hash@V?$basic_string@DU?$char_traits@D@std@@V?$allocator@D@2@@std@@@2@U?$equal_to@V?$basic_string@DU?$char_traits@D@std@@V?$allocator@D@2@@std@@@2@@2@V?$allocator@U?$pair@$$CBV?$basic_string@DU?$char_traits@D@std@@V?$allocator@D@2@@std@@$$CBUJmpLabel@Xbyak@@@std@@@2@$00@std@@@std@@AAEPAU?$_List_node@U?$pair@$$CBV?$basic_string@DU?$char_traits@D@std@@V?$allocator@D@2@@std@@$$CBUJmpLabel@Xbyak@@@std@@PAX@2@PAU32@@Z 004319c0 f i mupakk_stubs.obj
 0001:000309ed       ?_Unchecked_erase@?$_Hash@V?$_Umap_traits@V?$basic_string@DU?$char_traits@D@std@@V?$allocator@D@2@@std@@USlabelVal@LabelManager@Xbyak@@V?$_Uhash_compare@V?$basic_string@DU?$char_traits@D@std@@V?$allocator@D@2@@std@@U?$hash@V?$basic_string@DU?$char_traits@D@std@@V?$allocator@D@2@@std@@@2@U?$equal_to@V?$basic_string@DU?$char_traits@D@std@@V?$allocator@D@2@@std@@@2@@2@V?$allocator@U?$pair@$$CBV?$basic_string@DU?$char_traits@D@std@@V?$allocator@D@2@@std@@USlabelVal@LabelManager@Xbyak@@@std@@@2@$0A@@std@@@std@@AAEPAU?$_List_node@U?$pair@$$CBV?$basic_string@DU?$char_traits@D@std@@V?$allocator@D@2@@std@@USlabelVal@LabelManager@Xbyak@@@std@@PAX@2@PAU32@@Z 004319ed f i mupakk_stubs.obj
 0001:00030a1a       ?_Unchecked_erase@?$list@U?$pair@$$CBV?$basic_string@DU?$char_traits@D@std@@V?$allocator@D@2@@std@@$$CBUJmpLabel@Xbyak@@@std@@V?$allocator@U?$pair@$$CBV?$basic_string@DU?$char_traits@D@std@@V?$allocator@D@2@@std@@$$CBUJmpLabel@Xbyak@@@std@@@2@@std@@AAEPAU?$_List_node@U?$pair@$$CBV?$basic_string@DU?$char_traits@D@std@@V?$allocator@D@2@@std@@$$CBUJmpLabel@Xbyak@@@std@@PAX@2@QAU32@@Z 00431a1a f i mupakk_stubs.obj
 0001:00030a3e       ?_Unchecked_erase@?$list@U?$pair@$$CBV?$basic_string@DU?$char_traits@D@std@@V?$allocator@D@2@@std@@USlabelVal@LabelManager@Xbyak@@@std@@V?$allocator@U?$pair@$$CBV?$basic_string@DU?$char_traits@D@std@@V?$allocator@D@2@@std@@USlabelVal@LabelManager@Xbyak@@@std@@@2@@std@@AAEPAU?$_List_node@U?$pair@$$CBV?$basic_string@DU?$char_traits@D@std@@V?$allocator@D@2@@std@@USlabelVal@LabelManager@Xbyak@@@std@@PAX@2@QAU32@@Z 00431a3e f i mupakk_stubs.obj
 0001:00030a62       ?addUndefinedLabel@LabelManager@Xbyak@@QAEXABV?$basic_string@DU?$char_traits@D@std@@V?$allocator@D@2@@std@@ABUJmpLabel@2@@Z 00431a62 f i mupakk_stubs.obj
 0001:00030aad       ?addUndefinedLabel@LabelManager@Xbyak@@QAEXABVLabel@2@ABUJmpLabel@2@@Z 00431aad f i mupakk_stubs.obj
 0001:00030ade       ?alloc@Allocator@Xbyak@@UAEPAEI@Z 00431ade f i mupakk_stubs.obj
 0001:00030af1       ?build_stub@@YGPAEHHHPAH@Z 00431af1 f   mupakk_stubs.obj
 0001:00030c4e       ?call@CodeGenerator@Xbyak@@QAEXABVOperand@2@@Z 00431c4e f i mupakk_stubs.obj
 0001:00030c6e       ?clear@?$_Hash@V?$_Umap_traits@H$$CBUJmpLabel@Xbyak@@V?$_Uhash_compare@HU?$hash@H@std@@U?$equal_to@H@2@@std@@V?$allocator@U?$pair@$$CBH$$CBUJmpLabel@Xbyak@@@std@@@4@$00@std@@@std@@QAEXXZ 00431c6e f i mupakk_stubs.obj
 0001:00030cb5       ?clear@?$_Hash@V?$_Umap_traits@HUClabelVal@LabelManager@Xbyak@@V?$_Uhash_compare@HU?$hash@H@std@@U?$equal_to@H@2@@std@@V?$allocator@U?$pair@$$CBHUClabelVal@LabelManager@Xbyak@@@std@@@5@$0A@@std@@@std@@QAEXXZ 00431cb5 f i mupakk_stubs.obj
 0001:00030cfc       ?clear@?$list@U?$pair@$$CBH$$CBUJmpLabel@Xbyak@@@std@@V?$allocator@U?$pair@$$CBH$$CBUJmpLabel@Xbyak@@@std@@@2@@std@@QAEXXZ 00431cfc f i mupakk_stubs.obj
 0001:00030d16       ?clear@?$list@U?$pair@$$CBHUClabelVal@LabelManager@Xbyak@@@std@@V?$allocator@U?$pair@$$CBHUClabelVal@LabelManager@Xbyak@@@std@@@2@@std@@QAEXXZ 00431d16 f i mupakk_stubs.obj
 0001:00030d30       ?clear@?$list@USlabelState@LabelManager@Xbyak@@V?$allocator@USlabelState@LabelManager@Xbyak@@@std@@@std@@QAEXXZ 00431d30 f i mupakk_stubs.obj
 0001:00030d4a       ?db@Address@Xbyak@@QAEXH@Z 00431d4a f i mupakk_stubs.obj
 0001:00030d83       ?db@CodeArray@Xbyak@@QAEXH@Z 00431d83 f i mupakk_stubs.obj
 0001:00030dcc       ?db@CodeArray@Xbyak@@QAEXPBEH@Z 00431dcc f i mupakk_stubs.obj
 0001:00030df6       ?db@CodeArray@Xbyak@@QAEX_KH@Z 00431df6 f i mupakk_stubs.obj
 0001:00030e4d       ?dd@Address@Xbyak@@QAEXI@Z 00431e4d f i mupakk_stubs.obj
 0001:00030e70       ?defineSlabel@LabelManager@Xbyak@@QAEXV?$basic_string@DU?$char_traits@D@std@@V?$allocator@D@2@@std@@@Z 00431e70 f i mupakk_stubs.obj
 0001:00031031       ?free@Allocator@Xbyak@@UAEXPAE@Z 00432031 f i mupakk_stubs.obj
 0001:0003103e       ?getId@LabelManager@Xbyak@@ABEHABVLabel@2@@Z 0043203e f i mupakk_stubs.obj
 0001:00031058       ?getOffset@LabelManager@Xbyak@@QBE_NPAIAAV?$basic_string@DU?$char_traits@D@std@@V?$allocator@D@2@@std@@@Z 00432058 f i mupakk_stubs.obj
 0001:00031271       ?getOffset@LabelManager@Xbyak@@QBE_NPAIABVLabel@2@@Z 00432271 f i mupakk_stubs.obj
 0001:00031299       ?getRex@Reg@Xbyak@@QBEEABV12@@Z 00432299 f i mupakk_stubs.obj
 0001:00031306       ?get_bootloadersz@@YGIXZ   00432306 f   mupakk_stubs.obj
 0001:00031344       ?growMemory@CodeArray@Xbyak@@IAEXXZ 00432344 f i mupakk_stubs.obj
 0001:000313b1       ?hasRex@Reg@Xbyak@@ABE_NXZ 004323b1 f i mupakk_stubs.obj
 0001:000313de       ?is@Operand@Xbyak@@QBE_NHI@Z 004323de f i mupakk_stubs.obj
 0001:00031400       ?jmp@CodeGenerator@Xbyak@@QAEXABVOperand@2@@Z 00432400 f i mupakk_stubs.obj
 0001:00031420       ?jmp@CodeGenerator@Xbyak@@QAEXV?$basic_string@DU?$char_traits@D@std@@V?$allocator@D@2@@std@@W4LabelType@12@@Z 00432420 f i mupakk_stubs.obj
 0001:00031446       ?lea@CodeGenerator@Xbyak@@QAEXABUReg32e@2@ABVAddress@2@@Z 00432446 f i mupakk_stubs.obj
 0001:00031464       ?makeAddress@AddressFrame@Xbyak@@ABE?AVAddress@2@ABVRegExp@2@@Z 00432464 f i mupakk_stubs.obj
 0001:0003162a       ?makeJmp@CodeGenerator@Xbyak@@AAEXIW4LabelType@12@EEE@Z 0043262a f i mupakk_stubs.obj
 0001:000316c0       ?mov@CodeGenerator@Xbyak@@QAEXABVOperand@2@I@Z 004326c0 f i mupakk_stubs.obj
 0001:000317cb       ?mov_imm@CodeGenerator@Xbyak@@AAEHABVReg@2@I@Z 004327cb f i mupakk_stubs.obj
 0001:0003183e       ?opAddr@CodeGenerator@Xbyak@@AAEXABVAddress@2@H@Z 0043283e f i mupakk_stubs.obj
 0001:0003187a       ?opModM@CodeGenerator@Xbyak@@AAEXABVAddress@2@ABVReg@2@HHHH@Z 0043287a f i mupakk_stubs.obj
 0001:0003191d       ?opModR@CodeGenerator@Xbyak@@AAEXABVReg@2@0HHH@Z 0043291d f i mupakk_stubs.obj
 0001:00031991       ?opPushPop@CodeGenerator@Xbyak@@AAEXABVOperand@2@HHH@Z 00432991 f i mupakk_stubs.obj
 0001:00031a29       ?opR_ModM@CodeGenerator@Xbyak@@AAEXABVOperand@2@HHHHH_NH@Z 00432a29 f i mupakk_stubs.obj
 0001:00031aec       ?optimize@RegExp@Xbyak@@QBE?AV12@XZ 00432aec f i mupakk_stubs.obj
 0001:00031b44       ?reset@LabelManager@Xbyak@@QAEXXZ 00432b44 f i mupakk_stubs.obj
 0001:00031bca       ?ret@CodeGenerator@Xbyak@@QAEXH@Z 00432bca f i mupakk_stubs.obj
 0001:00031bfd       ?rewrite@CodeArray@Xbyak@@QAEXI_KI@Z 00432bfd f i mupakk_stubs.obj
 0001:00031c6a       ?rex@CodeGenerator@Xbyak@@AAEXABVOperand@2@0@Z 00432c6a f i mupakk_stubs.obj
 0001:00031d3c       ?save@CodeArray@Xbyak@@QAEXIIHW4LabelMode@inner@2@@Z 00432d3c f i mupakk_stubs.obj
 0001:00031d6c       ?set@SReg@RegExp@Xbyak@@QAEXABVReg@3@@Z 00432d6c f i mupakk_stubs.obj
 0001:00031d9f       ?stubcode_sz@@YGHXZ        00432d9f f   mupakk_stubs.obj
 0001:00031df6       ?useProtect@Allocator@Xbyak@@UBE_NXZ 00432df6 f i mupakk_stubs.obj
 0001:00031df9       ?verify@Address@Xbyak@@ABEXXZ 00432df9 f i mupakk_stubs.obj
 0001:00031e20       ?verify@RegExp@Xbyak@@QBEXXZ 00432e20 f i mupakk_stubs.obj
 0001:00031e87       ?verifyMemHasSize@CodeGenerator@Xbyak@@ABEXABVOperand@2@@Z 00432e87 f i mupakk_stubs.obj
 0001:00031eba       ?what@Error@Xbyak@@UBEPBDXZ 00432eba f i mupakk_stubs.obj
 0001:00031ec5       __vfprintf_l               00432ec5 f i mupakk_stubs.obj
 0001:00031fb2       _fprintf                   00432fb2 f i mupakk_stubs.obj
 0001:0003227c       ??_ECAppModule@WTL@@UAEPAXI@Z 0043327c f i exepacker.obj
 0001:0003227c       ??_GCAppModule@WTL@@UAEPAXI@Z 0043327c f i exepacker.obj
 0001:000322a1       ?Lock@CAtlModule@ATL@@UAEJXZ 004332a1 f i exepacker.obj
 0001:000322ab       ?Unlock@CAtlModule@ATL@@UAEJXZ 004332ab f i exepacker.obj
 0001:000322b5       ?GetLockCount@CAtlModule@ATL@@UAEJXZ 004332b5 f i exepacker.obj
 0001:000322b9       ?GetGITPtr@CAtlModule@ATL@@UAEJPAPAUIGlobalInterfaceTable@@@Z 004332b9 f i exepacker.obj
 0001:00032302       ?AddCommonRGSReplacements@?$CAtlModuleT@VCComModule@ATL@@@ATL@@UAEJPAUIRegistrarBase@@@Z 00433302 f i exepacker.obj
 0001:00032319       ?UpdateRegistryFromResourceD@CComModule@ATL@@UAGJPB_WHPAU_ATL_REGMAP_ENTRY@2@@Z 00433319 f i exepacker.obj
 0001:00032321       ?UpdateRegistryFromResourceD@CComModule@ATL@@UAGJIHPAU_ATL_REGMAP_ENTRY@2@@Z 00433321 f i exepacker.obj
 0001:00032329       ?UpdateRegistryFromResource@CComModule@ATL@@UAGJPB_WHPAU_ATL_REGMAP_ENTRY@2@@Z 00433329 f i exepacker.obj
 0001:0003232e       ?UpdateRegistryFromResource@CComModule@ATL@@UAGJIHPAU_ATL_REGMAP_ENTRY@2@@Z 0043332e f i exepacker.obj
 0001:00032333       ??_GCComModule@ATL@@UAEPAXI@Z 00433333 f i exepacker.obj
 0001:00032333       ??_ECComModule@ATL@@UAEPAXI@Z 00433333 f i exepacker.obj
 0001:00032358       ?QueryInterface@CRegObject@ATL@@UAGJABU_GUID@@PAPAX@Z 00433358 f i exepacker.obj
 0001:00032360       ?AddRef@CRegObject@ATL@@UAGKXZ 00433360 f i exepacker.obj
 0001:00032366       ?Release@CRegObject@ATL@@UAGKXZ 00433366 f i exepacker.obj
 0001:0003236b       ?AddReplacement@CRegObject@ATL@@UAGJPB_W0@Z 0043336b f i exepacker.obj
 0001:000323b9       ?ClearReplacements@CRegObject@ATL@@UAGJXZ 004333b9 f i exepacker.obj
 0001:000323e1       ??_GCRegObject@ATL@@UAEPAXI@Z 004333e1 f i exepacker.obj
 0001:000323e1       ??_ECRegObject@ATL@@UAEPAXI@Z 004333e1 f i exepacker.obj
 0001:00032400       ??$AtlModuleRegisterWndClassInfoT@VAtlModuleRegisterWndClassInfoParamW@ATL@@@ATL@@YGGPAU_ATL_BASE_MODULE70@0@PAU_ATL_WIN_MODULE70@0@PAU_ATL_WNDCLASSINFOW@0@PAP6GJPAUHWND__@@IIJ@ZVAtlModuleRegisterWndClassInfoParamW@0@@Z 00433400 f i exepacker.obj
 0001:00032574       ??$AtlMultiply@I@ATL@@YGJPAIII@Z 00433574 f i exepacker.obj
 0001:00032597       ??$AtlMultiply@K@ATL@@YGJPAKKK@Z 00433597 f i exepacker.obj
 0001:000325ba       ??$AtlMultiplyThrow@I@ATL@@YGIII@Z 004335ba f i exepacker.obj
 0001:000325de       ??$_ThreadProcThunk@VCProcessThread@@@@YGKPAX@Z 004335de f i exepacker.obj
 0001:000325e8       ??$_ThreadProcThunk@VCProcessThread_Console@@@@YGKPAX@Z 004335e8 f i exepacker.obj
 0001:000325f2       ??0?$CDialogTabImpl@VCDialogTabCtrl@@V?$CTabCtrlT@VCWindow@ATL@@@WTL@@V?$CWinTraits@$0FGAAAAAA@$0A@@ATL@@@@QAE@XZ 004335f2 f i exepacker.obj
 0001:00032620       ??0?$CDlgContainerImpl@VCDlgContainerCtrl@@VCWindow@ATL@@V?$CWinTraits@$0FGAAAAAA@$0A@@3@@@QAE@XZ 00433620 f i exepacker.obj
 0001:00032649       ??0?$CHyperLinkImpl@VCHyperLink@WTL@@VCWindow@ATL@@V?$CWinTraits@$0FGAAAAAA@$0A@@4@@WTL@@QAE@K@Z 00433649 f i exepacker.obj
 0001:000326a3       ??0?$CThreadImpl@VCProcessThread@@V?$CThreadT@$00@@@@QAE@K@Z 004336a3 f i exepacker.obj
 0001:000326d2       ??0?$CThreadImpl@VCProcessThread_Console@@V?$CThreadT@$00@@@@QAE@K@Z 004336d2 f i exepacker.obj
 0001:00032701       ??0?$CUpdateUI@VCMainDlg@@@WTL@@QAE@XZ 00433701 f i exepacker.obj
 0001:0003273b       ??0CAboutDlg@@QAE@XZ       0043373b f i exepacker.obj
 0001:00032779       ??0CAtlModule@ATL@@QAE@XZ  00433779 f i exepacker.obj
 0001:000327ba       ??0CMainDlg@@QAE@XZ        004337ba f i exepacker.obj
 0001:00032812       ??0CPackDlg@@QAE@XZ        00433812 f i exepacker.obj
 0001:00032832       ??0CParseBuffer@CRegParser@ATL@@QAE@H@Z 00433832 f i exepacker.obj
 0001:00032864       ??0CProcessThread@@QAE@PAUHWND__@@PA_W@Z 00433864 f i exepacker.obj
 0001:0003288e       ??0CProcessThread_Console@@QAE@PA_W@Z 0043388e f i exepacker.obj
 0001:000328b1       ??0CRegObject@ATL@@QAE@XZ  004338b1 f i exepacker.obj
 0001:000328da       ??0CString@WTL@@QAE@PBD@Z  004338da f i exepacker.obj
 0001:0003292e       ??0CString@WTL@@QAE@PB_W@Z 0043392e f i exepacker.obj
 0001:0003298b       ??0LogMessage@@AAE@XZ      0043398b f   exepacker.obj
 0001:00032991       ??0_ATL_MSG@ATL@@QAE@PAUHWND__@@IIJH@Z 00433991 f i exepacker.obj
 0001:000329c9       ??1?$CDialogImplBaseT@VCWindow@ATL@@@ATL@@UAE@XZ 004339c9 f i exepacker.obj
 0001:000329d8       ??1?$CDialogTabImpl@VCDialogTabCtrl@@V?$CTabCtrlT@VCWindow@ATL@@@WTL@@V?$CWinTraits@$0FGAAAAAA@$0A@@ATL@@@@UAE@XZ 004339d8 f i exepacker.obj
 0001:000329f3       ??1?$CDlgContainerImpl@VCDlgContainerCtrl@@VCWindow@ATL@@V?$CWinTraits@$0FGAAAAAA@$0A@@3@@@UAE@XZ 004339f3 f i exepacker.obj
 0001:00032a0e       ??1?$CHyperLinkImpl@VCHyperLink@WTL@@VCWindow@ATL@@V?$CWinTraits@$0FGAAAAAA@$0A@@4@@WTL@@UAE@XZ 00433a0e f i exepacker.obj
 0001:00032a33       ??1?$CThreadT@$00@@QAE@XZ  00433a33 f i exepacker.obj
 0001:00032a49       ??1?$CWindowImplRoot@V?$CTabCtrlT@VCWindow@ATL@@@WTL@@@ATL@@UAE@XZ 00433a49 f i exepacker.obj
 0001:00032a58       ??1?$CWindowImplRoot@VCWindow@ATL@@@ATL@@UAE@XZ 00433a58 f i exepacker.obj
 0001:00032a67       ??1CAboutDlg@@UAE@XZ       00433a67 f i exepacker.obj
 0001:00032a82       ??1CAtlModule@ATL@@UAE@XZ  00433a82 f i exepacker.obj
 0001:00032a87       ??1CMainDlg@@UAE@XZ        00433a87 f i exepacker.obj
 0001:00032ac5       ??1CProcessThread@@QAE@XZ  00433ac5 f i exepacker.obj
 0001:00032adf       ??1CProcessThread_Console@@QAE@XZ 00433adf f i exepacker.obj
 0001:00032af9       ??1CRegObject@ATL@@UAE@XZ  00433af9 f i exepacker.obj
 0001:00032b2d       ??1CString@WTL@@QAE@XZ     00433b2d f i exepacker.obj
 0001:00032b56       ??1CUpdateUIBase@WTL@@QAE@XZ 00433b56 f i exepacker.obj
 0001:00032ba7       ??1LogMessage@@QAE@XZ      00433ba7 f   exepacker.obj
 0001:00032ba8       ??A?$CSimpleArray@PAUHWND__@@V?$CSimpleArrayEqualHelper@PAUHWND__@@@ATL@@@ATL@@QAEAAPAUHWND__@@H@Z 00433ba8 f i exepacker.obj
 0001:00032bca       ??A?$CSimpleArray@PAUHWND__@@V?$CSimpleArrayEqualHelper@PAUHWND__@@@ATL@@@ATL@@QBEABQAUHWND__@@H@Z 00433bca f i exepacker.obj
 0001:00032bec       ??A?$CSimpleArray@PAVCIdleHandler@WTL@@V?$CSimpleArrayEqualHelper@PAVCIdleHandler@WTL@@@ATL@@@ATL@@QAEAAPAVCIdleHandler@WTL@@H@Z 00433bec f i exepacker.obj
 0001:00032c0e       ??A?$CSimpleArray@PAVCMessageFilter@WTL@@V?$CSimpleArrayEqualHelper@PAVCMessageFilter@WTL@@@ATL@@@ATL@@QAEAAPAVCMessageFilter@WTL@@H@Z 00433c0e f i exepacker.obj
 0001:00032c30       ??_GCAboutDlg@@UAEPAXI@Z   00433c30 f i exepacker.obj
 0001:00032c30       ??_ECAboutDlg@@UAEPAXI@Z   00433c30 f i exepacker.obj
 0001:00032c52       ??_ECDialogTabCtrl@@UAEPAXI@Z 00433c52 f i exepacker.obj
 0001:00032c52       ??_GCDialogTabCtrl@@UAEPAXI@Z 00433c52 f i exepacker.obj
 0001:00032c71       ??_ECDlgContainerCtrl@@UAEPAXI@Z 00433c71 f i exepacker.obj
 0001:00032c71       ??_GCDlgContainerCtrl@@UAEPAXI@Z 00433c71 f i exepacker.obj
 0001:00032c90       ??_ECHyperLink@WTL@@UAEPAXI@Z 00433c90 f i exepacker.obj
 0001:00032c90       ??_GCHyperLink@WTL@@UAEPAXI@Z 00433c90 f i exepacker.obj
 0001:00032caf       ??_ECMainDlg@@UAEPAXI@Z    00433caf f i exepacker.obj
 0001:00032caf       ??_GCMainDlg@@UAEPAXI@Z    00433caf f i exepacker.obj
 0001:00032cd1       ??_ECPackDlg@@UAEPAXI@Z    00433cd1 f i exepacker.obj
 0001:00032cd1       ??_GCPackDlg@@UAEPAXI@Z    00433cd1 f i exepacker.obj
 0001:00032cf9       ?Add@?$CSimpleArray@GV?$CSimpleArrayEqualHelper@G@ATL@@@ATL@@QAEHABG@Z 00433cf9 f i exepacker.obj
 0001:00032d70       ?Add@?$CSimpleArray@PAUHWND__@@V?$CSimpleArrayEqualHelper@PAUHWND__@@@ATL@@@ATL@@QAEHABQAUHWND__@@@Z 00433d70 f i exepacker.obj
 0001:00032def       ?Add@?$CSimpleArray@PAVCIdleHandler@WTL@@V?$CSimpleArrayEqualHelper@PAVCIdleHandler@WTL@@@ATL@@@ATL@@QAEHABQAVCIdleHandler@WTL@@@Z 00433def f i exepacker.obj
 0001:00032e6e       ?Add@?$CSimpleArray@PAVCMessageFilter@WTL@@V?$CSimpleArrayEqualHelper@PAVCMessageFilter@WTL@@@ATL@@@ATL@@QAEHABQAVCMessageFilter@WTL@@@Z 00433e6e f i exepacker.obj
 0001:00032eed       ?Add@?$CSimpleArray@U_AtlUpdateUIElement@CUpdateUIBase@WTL@@V?$CSimpleArrayEqualHelper@U_AtlUpdateUIElement@CUpdateUIBase@WTL@@@ATL@@@ATL@@QAEHABU_AtlUpdateUIElement@CUpdateUIBase@WTL@@@Z 00433eed f i exepacker.obj
 0001:00032f64       ?Add@?$CSimpleMap@KPAVCMessageLoop@WTL@@V?$CSimpleMapEqualHelper@KPAVCMessageLoop@WTL@@@ATL@@@ATL@@QAEHABKABQAVCMessageLoop@WTL@@@Z 00433f64 f i exepacker.obj
 0001:00032fb7       ?Add@?$CSimpleMap@PA_WPA_WVCExpansionVectorEqualHelper@ATL@@@ATL@@QAEHABQA_W0@Z 00433fb7 f i exepacker.obj
 0001:0003300a       ?Add@CExpansionVector@ATL@@QAEHPB_W0@Z 0043400a f i exepacker.obj
 0001:00033113       ?AddColumn@?$CListViewCtrlT@VCWindow@ATL@@@WTL@@QAEHPB_WHHHH@Z 00434113 f i exepacker.obj
 0001:0003317f       ?AddItem@?$CDlgContainerImpl@VCDlgContainerCtrl@@VCWindow@ATL@@V?$CWinTraits@$0FGAAAAAA@$0A@@3@@@QAEHPAUHWND__@@@Z 0043417f f i exepacker.obj
 0001:000331ed       ?AddItem@?$CListViewCtrlT@VCWindow@ATL@@@WTL@@QAEHHHPB_WH@Z 004341ed f i exepacker.obj
 0001:00033268       ?AddMessageLoop@CAppModule@WTL@@QAEHPAVCMessageLoop@2@@Z 00434268 f i exepacker.obj
 0001:000332aa       ?AddString@CParseBuffer@CRegParser@ATL@@QAEHPB_W@Z 004342aa f i exepacker.obj
 0001:000332dc       ?AddTool@?$CToolTipCtrlT@VCWindow@ATL@@@WTL@@QAEHPAUHWND__@@V_U_STRINGorID@ATL@@PBUtagRECT@@I@Z 004342dc f i exepacker.obj
 0001:00033315       ?AddValue@CRegParser@ATL@@IAEJAAVCRegKey@2@PB_WPA_W@Z 00434315 f i exepacker.obj
 0001:000335f7       ?AllocBeforeWrite@CString@WTL@@IAEHH@Z 004345f7 f i exepacker.obj
 0001:00033622       ?AllocBuffer@CString@WTL@@IAEHH@Z 00434622 f i exepacker.obj
 0001:00033669       ?AllocateHeap@?$CTempBuffer@E$0BAA@VCCRTAllocator@ATL@@@ATL@@AAEXI@Z 00434669 f i exepacker.obj
 0001:0003368b       ?AllocateHeap@?$CTempBuffer@_W$0BAA@VCCRTAllocator@ATL@@@ATL@@AAEXI@Z 0043468b f i exepacker.obj
 0001:000336ad       ?AllocateHeap@?$CTempBuffer@_W$0EAA@VCCRTAllocator@ATL@@@ATL@@AAEXI@Z 004346ad f i exepacker.obj
 0001:000336cf       ?Append@CParseBuffer@CRegParser@ATL@@QAEHPB_WH@Z 004346cf f i exepacker.obj
 0001:00033758       ?AssignCopy@CString@WTL@@IAEXHPB_W@Z 00434758 f i exepacker.obj
 0001:00033794       ?AtlCoTaskMemCAlloc@ATL@@YGPAXKK@Z 00434794 f i exepacker.obj
 0001:000337c0       ?AtlCoTaskMemRecalloc@ATL@@YGPAXPAXKK@Z 004347c0 f i exepacker.obj
 0001:000337ef       ?AtlCreateControlFont@WTL@@YGPAUHFONT__@@XZ 004347ef f i exepacker.obj
 0001:00033821       ?AtlCrtErrorCheck@ATL@@YGHH@Z 00434821 f i exepacker.obj
 0001:0003385b       ?AtlHresultFromLastError@ATL@@YGJXZ 0043485b f i exepacker.obj
 0001:00033872       ?AtlHresultFromWin32@ATL@@YGJK@Z 00434872 f i exepacker.obj
 0001:00033886       ?AtlInitCommonControls@WTL@@YGHK@Z 00434886 f i exepacker.obj
 0001:000338a6       ?AtlThrowImpl@ATL@@YGXJ@Z  004348a6 f i exepacker.obj
 0001:000338c2       ?AtlWinModuleAddCreateWndData@ATL@@YGXPAU_ATL_WIN_MODULE70@1@PAU_AtlCreateWndData@1@PAX@Z 004348c2 f i exepacker.obj
 0001:00033915       ?AtlWinModuleExtractCreateWndData@ATL@@YGPAXPAU_ATL_WIN_MODULE70@1@@Z 00434915 f i exepacker.obj
 0001:00033972       ?AtlWinModuleRegisterClassExW@ATL@@YGGPAU_ATL_WIN_MODULE70@1@PBUtagWNDCLASSEXW@@@Z 00434972 f i exepacker.obj
 0001:000339b1       ?CalcLabelParts@?$CHyperLinkImpl@VCHyperLink@WTL@@VCWindow@ATL@@V?$CWinTraits@$0FGAAAAAA@$0A@@4@@WTL@@QBEXAAPA_WAAH0101@Z 004349b1 f i exepacker.obj
 0001:00033aad       ?CalcLabelRect@?$CHyperLinkImpl@VCHyperLink@WTL@@VCWindow@ATL@@V?$CWinTraits@$0FGAAAAAA@$0A@@4@@WTL@@QAE_NXZ 00434aad f i exepacker.obj
 0001:00033ccc       ?CanForceRemoveKey@CRegParser@ATL@@IAEHPB_W@Z 00434ccc f i exepacker.obj
 0001:00033cf8       ?CenterWindow@CWindow@ATL@@QAEHPAUHWND__@@@Z 00434cf8 f i exepacker.obj
 0001:00033e98       ?ChToByte@CRegParser@ATL@@KGE_W@Z 00434e98 f i exepacker.obj
 0001:00033eca       ?ClearReplacements@CExpansionVector@ATL@@QAEJXZ 00434eca f i exepacker.obj
 0001:00033f07       ?Close@CRegKey@ATL@@QAEJXZ 00434f07 f i exepacker.obj
 0001:00033f21       ?ConcatCopy@CString@WTL@@IAEHHPB_WH0@Z 00434f21 f i exepacker.obj
 0001:00033f97       ?ConcatInPlace@CString@WTL@@IAEXHPB_W@Z 00434f97 f i exepacker.obj
 0001:0003400b       ?CopyBeforeWrite@CString@WTL@@IAEXXZ 0043500b f i exepacker.obj
 0001:0003404f       ?Create@?$CDialogImpl@VCAboutDlg@@VCWindow@ATL@@@ATL@@QAEPAUHWND__@@PAU3@J@Z 0043504f f i exepacker.obj
 0001:0003409f       ?Create@?$CDialogImpl@VCMainDlg@@VCWindow@ATL@@@ATL@@QAEPAUHWND__@@PAU3@J@Z 0043509f f i exepacker.obj
 0001:000340ef       ?Create@?$CDialogImpl@VCPackDlg@@VCWindow@ATL@@@ATL@@QAEPAUHWND__@@PAU3@J@Z 004350ef f i exepacker.obj
 0001:0003413c       ?Create@?$CToolTipCtrlT@VCWindow@ATL@@@WTL@@QAEPAUHWND__@@PAU3@V_U_RECT@ATL@@PB_WKKV_U_MENUorID@5@PAX@Z 0043513c f i exepacker.obj
 0001:00034172       ?Create@?$CWindowImpl@VCDlgContainerCtrl@@VCWindow@ATL@@V?$CWinTraits@$0FGAAAAAA@$0A@@3@@ATL@@QAEPAUHWND__@@PAU3@V_U_RECT@2@PB_WKKV_U_MENUorID@2@PAX@Z 00435172 f i exepacker.obj
 0001:000341c3       ?Create@?$CWindowImplBaseT@VCWindow@ATL@@V?$CWinTraits@$0FGAAAAAA@$0A@@2@@ATL@@QAEPAUHWND__@@PAU3@V_U_RECT@2@PB_WKKV_U_MENUorID@2@GPAX@Z 004351c3 f i exepacker.obj
 0001:0003425f       ?Create@CWindow@ATL@@QAEPAUHWND__@@PB_WPAU3@V_U_RECT@2@0KKV_U_MENUorID@2@PAX@Z 0043525f f i exepacker.obj
 0001:000342b2       ?CreateInstance@LogMessage@@SGPAV1@PAUHWND__@@@Z 004352b2 f   exepacker.obj
 0001:000342e6       ?CreateLinkFontFromNormal@?$CHyperLinkImpl@VCHyperLink@WTL@@VCWindow@ATL@@V?$CWinTraits@$0FGAAAAAA@$0A@@4@@WTL@@QAEXXZ 004352e6 f i exepacker.obj
 0001:0003436a       ?DefWindowProcW@?$CWindowImplBaseT@V?$CTabCtrlT@VCWindow@ATL@@@WTL@@V?$CWinTraits@$0FGAAAAAA@$0A@@ATL@@@ATL@@QAEJXZ 0043536a f i exepacker.obj
 0001:0003438d       ?DeleteSubKey@CRegKey@ATL@@QAEJPB_W@Z 0043538d f i exepacker.obj
 0001:000343ad       ?DestroyWindow@CWindow@ATL@@QAEHXZ 004353ad f i exepacker.obj
 0001:000343c6       ?DialogProc@?$CDialogImplBaseT@VCWindow@ATL@@@ATL@@SGHPAUHWND__@@IIJ@Z 004353c6 f i exepacker.obj
 0001:0003449b       ?DoEraseBackground@?$CHyperLinkImpl@VCHyperLink@WTL@@VCWindow@ATL@@V?$CWinTraits@$0FGAAAAAA@$0A@@4@@WTL@@QAEXV?$CDCT@$0A@@2@@Z 0043549b f i exepacker.obj
 0001:000344f2       ?DoLogMessage@LogMessage@@QAEXPA_WH@Z 004354f2 f   exepacker.obj
 0001:00034572       ?DoPaint@?$CHyperLinkImpl@VCHyperLink@WTL@@VCWindow@ATL@@V?$CWinTraits@$0FGAAAAAA@$0A@@4@@WTL@@QAEXV?$CDCT@$0A@@2@@Z 00435572 f i exepacker.obj
 0001:000347f8       ?EndOfVar@CRegParser@ATL@@IAEHXZ 004357f8 f i exepacker.obj
 0001:00034818       ?EscapeSingleQuote@CAtlModule@ATL@@SGXPA_WIPB_W@Z 00435818 f i exepacker.obj
 0001:00034868       ?Find@?$CSimpleArray@PAVCIdleHandler@WTL@@V?$CSimpleArrayEqualHelper@PAVCIdleHandler@WTL@@@ATL@@@ATL@@QBEHABQAVCIdleHandler@WTL@@@Z 00435868 f i exepacker.obj
 0001:00034890       ?Find@?$CSimpleArray@PAVCMessageFilter@WTL@@V?$CSimpleArrayEqualHelper@PAVCMessageFilter@WTL@@@ATL@@@ATL@@QBEHABQAVCMessageFilter@WTL@@@Z 00435890 f i exepacker.obj
 0001:000348b8       ?FindKey@?$CSimpleMap@KPAVCMessageLoop@WTL@@V?$CSimpleMapEqualHelper@KPAVCMessageLoop@WTL@@@ATL@@@ATL@@QBEHABK@Z 004358b8 f i exepacker.obj
 0001:000348e0       ?FindKey@?$CSimpleMap@PA_WPA_WVCExpansionVectorEqualHelper@ATL@@@ATL@@QBEHABQA_W@Z 004358e0 f i exepacker.obj
 0001:00034914       ?FreeHeap@?$CTempBuffer@E$0BAA@VCCRTAllocator@ATL@@@ATL@@AAEXXZ 00435914 f i exepacker.obj
 0001:0003491d       ?FreeHeap@?$CTempBuffer@_W$0BAA@VCCRTAllocator@ATL@@@ATL@@AAEXXZ 0043591d f i exepacker.obj
 0001:00034926       ?FreeHeap@?$CTempBuffer@_W$0EAA@VCCRTAllocator@ATL@@@ATL@@AAEXXZ 00435926 f i exepacker.obj
 0001:0003492f       ?GetBuffer@CString@WTL@@QAEPA_WH@Z 0043592f f i exepacker.obj
 0001:0003498c       ?GetDialogProc@?$CDialogImplBaseT@VCWindow@ATL@@@ATL@@UAEP6GHPAUHWND__@@IIJ@ZXZ 0043598c f i exepacker.obj
 0001:00034992       ?GetHandle@?$CThreadT@$00@@UBEPAXXZ 00435992 f i exepacker.obj
 0001:00034996       ?GetItem@?$CDlgContainerImpl@VCDlgContainerCtrl@@VCWindow@ATL@@V?$CWinTraits@$0FGAAAAAA@$0A@@3@@@QBEPAUHWND__@@H@Z 00435996 f i exepacker.obj
 0001:000349b5       ?GetKeyAt@?$CSimpleMap@PA_WPA_WVCExpansionVectorEqualHelper@ATL@@@ATL@@QBEAAPA_WH@Z 004359b5 f i exepacker.obj
 0001:000349d7       ?GetMessageLoop@CAppModule@WTL@@QBEPAVCMessageLoop@2@K@Z 004359d7 f i exepacker.obj
 0001:00034a08       ?GetSingleton@LogMessage@@SGPAV1@XZ 00435a08 f   exepacker.obj
 0001:00034a0e       ?GetValueAt@?$CSimpleMap@KPAVCMessageLoop@WTL@@V?$CSimpleMapEqualHelper@KPAVCMessageLoop@WTL@@@ATL@@@ATL@@QBEAAPAVCMessageLoop@WTL@@H@Z 00435a0e f i exepacker.obj
 0001:00034a31       ?GetValueAt@?$CSimpleMap@PA_WPA_WVCExpansionVectorEqualHelper@ATL@@@ATL@@QBEAAPA_WH@Z 00435a31 f i exepacker.obj
 0001:00034a54       ?GetWindowProc@?$CWindowImplBaseT@V?$CTabCtrlT@VCWindow@ATL@@@WTL@@V?$CWinTraits@$0FGAAAAAA@$0A@@ATL@@@ATL@@UAEP6GJPAUHWND__@@IIJ@ZXZ 00435a54 f i exepacker.obj
 0001:00034a5a       ?GetWindowProc@?$CWindowImplBaseT@VCWindow@ATL@@V?$CWinTraits@$0FGAAAAAA@$0A@@2@@ATL@@UAEP6GJPAUHWND__@@IIJ@ZXZ 00435a5a f i exepacker.obj
 0001:00034a60       ?HKeyFromString@CRegParser@ATL@@KGPAUHKEY__@@PA_W@Z 00435a60 f i exepacker.obj
 0001:00034a8d       ?HasSubKeys@CRegParser@ATL@@IAEHPAUHKEY__@@@Z 00435a8d f i exepacker.obj
 0001:00034ac2       ?Init@?$CHyperLinkImpl@VCHyperLink@WTL@@VCWindow@ATL@@V?$CWinTraits@$0FGAAAAAA@$0A@@4@@WTL@@QAEXXZ 00435ac2 f i exepacker.obj
 0001:00034cef       ?Init@CAppModule@WTL@@QAEJPAU_ATL_OBJMAP_ENTRY30@ATL@@PAUHINSTANCE__@@PBU_GUID@@@Z 00435cef f i exepacker.obj
 0001:00034d4a       ?Init@CComModule@ATL@@QAEJPAU_ATL_OBJMAP_ENTRY30@2@PAUHINSTANCE__@@PBU_GUID@@@Z 00435d4a f i exepacker.obj
 0001:00034da7       ?Init@CDynamicStdCallThunk2@ATL@@QAEHKPAX@Z 00435da7 f i exepacker.obj
 0001:00034dd0       ?Init@CToolInfo@WTL@@QAEXIPAUHWND__@@IPAUtagRECT@@PA_WJ@Z 00435dd0 f i exepacker.obj
 0001:00034e3b       ?InsertItem@?$CDialogTabImpl@VCDialogTabCtrl@@V?$CTabCtrlT@VCWindow@ATL@@@WTL@@V?$CWinTraits@$0FGAAAAAA@$0A@@ATL@@@@QAEHHPAUtagTCITEMW@@PAUHWND__@@@Z 00435e3b f i exepacker.obj
 0001:00034ec1       ?InternalSetAtIndex@?$CSimpleArray@GV?$CSimpleArrayEqualHelper@G@ATL@@@ATL@@QAEXHABG@Z 00435ec1 f i exepacker.obj
 0001:00034edb       ?InternalSetAtIndex@?$CSimpleArray@U_AtlUpdateUIElement@CUpdateUIBase@WTL@@V?$CSimpleArrayEqualHelper@U_AtlUpdateUIElement@CUpdateUIBase@WTL@@@ATL@@@ATL@@QAEXHABU_AtlUpdateUIElement@CUpdateUIBase@WTL@@@Z 00435edb f i exepacker.obj
 0001:00034ef9       ?InternalSetAtIndex@?$CSimpleMap@KPAVCMessageLoop@WTL@@V?$CSimpleMapEqualHelper@KPAVCMessageLoop@WTL@@@ATL@@@ATL@@QAEXHABKABQAVCMessageLoop@WTL@@@Z 00435ef9 f i exepacker.obj
 0001:00034f22       ?InternalSetAtIndex@?$CSimpleMap@PA_WPA_WVCExpansionVectorEqualHelper@ATL@@@ATL@@QAEXHABQA_W0@Z 00435f22 f i exepacker.obj
 0001:00034f4b       ?IsSpace@CRegParser@ATL@@IAEH_W@Z 00435f4b f i exepacker.obj
 0001:00034f72       ?IsWindowsVersionOrGreater@@YG_NGGG@Z 00435f72 f i exepacker.obj
 0001:0003500c       ?LoadStringW@CString@WTL@@QAEHI@Z 0043600c f i exepacker.obj
 0001:000350b8       ?Lookup@?$CSimpleMap@KPAVCMessageLoop@WTL@@V?$CSimpleMapEqualHelper@KPAVCMessageLoop@WTL@@@ATL@@@ATL@@QBEPAVCMessageLoop@WTL@@ABK@Z 004360b8 f i exepacker.obj
 0001:000350db       ?Lookup@?$CSimpleMap@PA_WPA_WVCExpansionVectorEqualHelper@ATL@@@ATL@@QBEPA_WABQA_W@Z 004360db f i exepacker.obj
 0001:000350fe       ?ModifyStyle@CWindow@ATL@@QAEHKKI@Z 004360fe f i exepacker.obj
 0001:0003514c       ?ModifyStyleEx@CWindow@ATL@@QAEHKKI@Z 0043614c f i exepacker.obj
 0001:0003519a       ?Navigate@?$CHyperLinkImpl@VCHyperLink@WTL@@VCWindow@ATL@@V?$CWinTraits@$0FGAAAAAA@$0A@@4@@WTL@@QAE_NXZ 0043619a f i exepacker.obj
 0001:00035249       ?NextToken@CRegParser@ATL@@IAEJPA_W@Z 00436249 f i exepacker.obj
 0001:00035375       ?OnDestroy@?$CHyperLinkImpl@VCHyperLink@WTL@@VCWindow@ATL@@V?$CWinTraits@$0FGAAAAAA@$0A@@4@@WTL@@QAEJIIJAAH@Z 00436375 f i exepacker.obj
 0001:000353cf       ?OnDestroy@CMainDlg@@QAEJIIJAAH@Z 004363cf f i exepacker.obj
 0001:00035413       ?OnDropFiles@?$CDropFileTarget@VCPackDlg@@@@AAEJIIJAAH@Z 00436413 f i exepacker.obj
 0001:00035476       ?OnEraseBkgnd@?$CDialogTabImpl@VCDialogTabCtrl@@V?$CTabCtrlT@VCWindow@ATL@@@WTL@@V?$CWinTraits@$0FGAAAAAA@$0A@@ATL@@@@QAEJIIJAAH@Z 00436476 f i exepacker.obj
 0001:00035509       ?OnFinalMessage@?$CDialogImplBaseT@VCWindow@ATL@@@ATL@@UAEXPAUHWND__@@@Z 00436509 f i exepacker.obj
 0001:0003550c       ?OnFinalMessage@?$CWindowImplBaseT@V?$CTabCtrlT@VCWindow@ATL@@@WTL@@V?$CWinTraits@$0FGAAAAAA@$0A@@ATL@@@ATL@@UAEXPAUHWND__@@@Z 0043650c f i exepacker.obj
 0001:0003550f       ?OnFinalMessage@?$CWindowImplBaseT@VCWindow@ATL@@V?$CWinTraits@$0FGAAAAAA@$0A@@2@@ATL@@UAEXPAUHWND__@@@Z 0043650f f i exepacker.obj
 0001:00035512       ?OnFocus@?$CHyperLinkImpl@VCHyperLink@WTL@@VCWindow@ATL@@V?$CWinTraits@$0FGAAAAAA@$0A@@4@@WTL@@QAEJIIJAAH@Z 00436512 f i exepacker.obj
 0001:00035533       ?OnIdle@CMainDlg@@UAEHXZ   00436533 f i exepacker.obj
 0001:00035536       ?OnIdle@CMessageLoop@WTL@@UAEHH@Z 00436536 f i exepacker.obj
 0001:00035563       ?OnInitDialog@CMainDlg@@QAEJIIJAAH@Z 00436563 f i exepacker.obj
 0001:00035736       ?OnInitDialogView1@CAboutDlg@@QAEJIIJAAH@Z 00436736 f i exepacker.obj
 0001:000358d9       ?OnInitDialogView1@CPackDlg@@QAEJIIJAAH@Z 004368d9 f i exepacker.obj
 0001:0003591f       ?OnLButtonDown@?$CHyperLinkImpl@VCHyperLink@WTL@@VCWindow@ATL@@V?$CWinTraits@$0FGAAAAAA@$0A@@4@@WTL@@QAEJIIJAAH@Z 0043691f f i exepacker.obj
 0001:00035955       ?OnLButtonUp@?$CHyperLinkImpl@VCHyperLink@WTL@@VCWindow@ATL@@V?$CWinTraits@$0FGAAAAAA@$0A@@4@@WTL@@QAEJIIJAAH@Z 00436955 f i exepacker.obj
 0001:00035991       ?OnMouseLeave@?$CHyperLinkImpl@VCHyperLink@WTL@@VCWindow@ATL@@V?$CWinTraits@$0FGAAAAAA@$0A@@4@@WTL@@QAEJIIJAAH@Z 00436991 f i exepacker.obj
 0001:000359c7       ?OnMouseMessage@?$CHyperLinkImpl@VCHyperLink@WTL@@VCWindow@ATL@@V?$CWinTraits@$0FGAAAAAA@$0A@@4@@WTL@@QAEJIIJAAH@Z 004369c7 f i exepacker.obj
 0001:00035a2d       ?OnMouseMove@?$CHyperLinkImpl@VCHyperLink@WTL@@VCWindow@ATL@@V?$CWinTraits@$0FGAAAAAA@$0A@@4@@WTL@@QAEJIIJAAH@Z 00436a2d f i exepacker.obj
 0001:00035adc       ?OnPaint@?$CHyperLinkImpl@VCHyperLink@WTL@@VCWindow@ATL@@V?$CWinTraits@$0FGAAAAAA@$0A@@4@@WTL@@QAEJIIJAAH@Z 00436adc f i exepacker.obj
 0001:00035b5e       ?OnSetCursor@?$CHyperLinkImpl@VCHyperLink@WTL@@VCWindow@ATL@@V?$CWinTraits@$0FGAAAAAA@$0A@@4@@WTL@@QAEJIIJAAH@Z 00436b5e f i exepacker.obj
 0001:00035bbb       ?OnSetFocus@?$CDlgContainerImpl@VCDlgContainerCtrl@@VCWindow@ATL@@V?$CWinTraits@$0FGAAAAAA@$0A@@3@@@QAEJIIJAAH@Z 00436bbb f i exepacker.obj
 0001:00035bde       ?OnSetFont@?$CHyperLinkImpl@VCHyperLink@WTL@@VCWindow@ATL@@V?$CWinTraits@$0FGAAAAAA@$0A@@4@@WTL@@QAEJIIJAAH@Z 00436bde f i exepacker.obj
 0001:00035c40       ?OnSize@?$CDialogTabImpl@VCDialogTabCtrl@@V?$CTabCtrlT@VCWindow@ATL@@@WTL@@V?$CWinTraits@$0FGAAAAAA@$0A@@ATL@@@@QAEJIIJAAH@Z 00436c40 f i exepacker.obj
 0001:00035c98       ?OnSize@?$CDlgContainerImpl@VCDlgContainerCtrl@@VCWindow@ATL@@V?$CWinTraits@$0FGAAAAAA@$0A@@3@@@QAEJIIJAAH@Z 00436c98 f i exepacker.obj
 0001:00035cdc       ?OnTabSelect@?$CDialogTabImpl@VCDialogTabCtrl@@V?$CTabCtrlT@VCWindow@ATL@@@WTL@@V?$CWinTraits@$0FGAAAAAA@$0A@@ATL@@@@QAEJHPAUtagNMHDR@@AAH@Z 00436cdc f i exepacker.obj
 0001:00035d07       ?OnTimer@CPackDlg@@QAEJIIJAAH@Z 00436d07 f i exepacker.obj
 0001:00035d69       ?Open@CRegKey@ATL@@QAEJPAUHKEY__@@PB_WK@Z 00436d69 f i exepacker.obj
 0001:00035db2       ?PreProcessBuffer@CRegParser@ATL@@QAEJPA_WPAPA_W@Z 00436db2 f i exepacker.obj
 0001:00036006       ?PreTranslateMessage@CMainDlg@@UAEHPAUtagMSG@@@Z 00437006 f i exepacker.obj
 0001:00036016       ?PreTranslateMessage@CMessageLoop@WTL@@UAEHPAUtagMSG@@@Z 00437016 f i exepacker.obj
 0001:0003604e       ?ProcessFile@CPackDlg@@QAEXPB_W@Z 0043704e f i exepacker.obj
 0001:000360d6       ?ProcessWindowMessage@?$CDialogTabImpl@VCDialogTabCtrl@@V?$CTabCtrlT@VCWindow@ATL@@@WTL@@V?$CWinTraits@$0FGAAAAAA@$0A@@ATL@@@@UAEHPAUHWND__@@IIJAAJK@Z 004370d6 f i exepacker.obj
 0001:0003619c       ?ProcessWindowMessage@?$CDlgContainerImpl@VCDlgContainerCtrl@@VCWindow@ATL@@V?$CWinTraits@$0FGAAAAAA@$0A@@3@@@UAEHPAUHWND__@@IIJAAJK@Z 0043719c f i exepacker.obj
 0001:00036255       ?ProcessWindowMessage@?$CDropFileTarget@VCPackDlg@@@@QAEHPAUHWND__@@IIJAAJK@Z 00437255 f i exepacker.obj
 0001:00036288       ?ProcessWindowMessage@?$CHyperLinkImpl@VCHyperLink@WTL@@VCWindow@ATL@@V?$CWinTraits@$0FGAAAAAA@$0A@@4@@WTL@@UAEHPAUHWND__@@IIJAAJK@Z 00437288 f i exepacker.obj
 0001:000364cc       ?ProcessWindowMessage@CAboutDlg@@UAEHPAUHWND__@@IIJAAJK@Z 004374cc f i exepacker.obj
 0001:000364ff       ?ProcessWindowMessage@CMainDlg@@UAEHPAUHWND__@@IIJAAJK@Z 004374ff f i exepacker.obj
 0001:000365c2       ?ProcessWindowMessage@CPackDlg@@UAEHPAUHWND__@@IIJAAJK@Z 004375c2 f i exepacker.obj
 0001:00036664       ?QueryStringValue@CRegKey@ATL@@QAEJPB_WPA_WPAK@Z 00437664 f i exepacker.obj
 0001:000366d3       ?RecurseDeleteKey@CRegKey@ATL@@QAEJPB_W@Z 004376d3 f i exepacker.obj
 0001:000367c1       ?RedirectIOToConsole@@YGXXZ 004377c1 f   exepacker.obj
 0001:00036838       ?ReflectNotifications@?$CWindowImplRoot@VCWindow@ATL@@@ATL@@QAEJIIJAAH@Z 00437838 f i exepacker.obj
 0001:00036921       ?RegCreateKeyExW@CAtlTransactionManager@ATL@@QAEJPAUHKEY__@@PB_WKPA_WKKQAU_SECURITY_ATTRIBUTES@@PAPAU3@PAK@Z 00437921 f i exepacker.obj
 0001:00036984       ?RegDeleteKeyW@CAtlTransactionManager@ATL@@QAEJPAUHKEY__@@PB_W@Z 00437984 f i exepacker.obj
 0001:000369d3       ?RegOpenKeyExW@CAtlTransactionManager@ATL@@QAEJPAUHKEY__@@PB_WKKPAPAU3@@Z 004379d3 f i exepacker.obj
 0001:00036a2a       ?RegisterBuffer@CRegParser@ATL@@QAEJPA_WH@Z 00437a2a f i exepacker.obj
 0001:00036b39       ?RegisterFromResource@CRegObject@ATL@@IAEJPB_W00H@Z 00437b39 f i exepacker.obj
 0001:00036c67       ?RegisterSubkeys@CRegParser@ATL@@IAEJPA_WPAUHKEY__@@HH@Z 00437c67 f i exepacker.obj
 0001:000371d0       ?Release@CString@WTL@@IAEXXZ 004381d0 f i exepacker.obj
 0001:00037204       ?Release@CString@WTL@@KGXPAUCStringData@2@@Z 00438204 f i exepacker.obj
 0001:00037226       ?ReleaseBuffer@CString@WTL@@QAEXH@Z 00438226 f i exepacker.obj
 0001:00037250       ?RemoveAll@?$CSimpleArray@PAUHWND__@@V?$CSimpleArrayEqualHelper@PAUHWND__@@@ATL@@@ATL@@QAEXXZ 00438250 f i exepacker.obj
 0001:0003726d       ?RemoveAll@?$CSimpleArray@U_AtlUpdateUIElement@CUpdateUIBase@WTL@@V?$CSimpleArrayEqualHelper@U_AtlUpdateUIElement@CUpdateUIBase@WTL@@@ATL@@@ATL@@QAEXXZ 0043826d f i exepacker.obj
 0001:0003728a       ?RemoveAll@?$CSimpleMap@KPAVCMessageLoop@WTL@@V?$CSimpleMapEqualHelper@KPAVCMessageLoop@WTL@@@ATL@@@ATL@@QAEXXZ 0043828a f i exepacker.obj
 0001:000372b6       ?RemoveAll@?$CSimpleMap@PA_WPA_WVCExpansionVectorEqualHelper@ATL@@@ATL@@QAEXXZ 004382b6 f i exepacker.obj
 0001:000372e2       ?RemoveAt@?$CSimpleArray@PAVCIdleHandler@WTL@@V?$CSimpleArrayEqualHelper@PAVCIdleHandler@WTL@@@ATL@@@ATL@@QAEHH@Z 004382e2 f i exepacker.obj
 0001:0003732d       ?RemoveAt@?$CSimpleArray@PAVCMessageFilter@WTL@@V?$CSimpleArrayEqualHelper@PAVCMessageFilter@WTL@@@ATL@@@ATL@@QAEHH@Z 0043832d f i exepacker.obj
 0001:00037378       ?RemoveAt@?$CSimpleMap@KPAVCMessageLoop@WTL@@V?$CSimpleMapEqualHelper@KPAVCMessageLoop@WTL@@@ATL@@@ATL@@QAEHH@Z 00438378 f i exepacker.obj
 0001:00037426       ?RemoveIdleHandler@CMessageLoop@WTL@@QAEHPAVCIdleHandler@2@@Z 00438426 f i exepacker.obj
 0001:0003744b       ?RemoveMessageFilter@CMessageLoop@WTL@@QAEHPAVCMessageFilter@2@@Z 0043844b f i exepacker.obj
 0001:00037470       ?RemoveMessageLoop@CAppModule@WTL@@QAEHXZ 00438470 f i exepacker.obj
 0001:000374bf       ?ResourceRegisterSz@CRegObject@ATL@@QAGJPB_W00@Z 004384bf f i exepacker.obj
 0001:000374ec       ?ResourceUnregisterSz@CRegObject@ATL@@QAGJPB_W00@Z 004384ec f i exepacker.obj
 0001:00037519       ?Run@CMessageLoop@WTL@@QAEHXZ 00438519 f i exepacker.obj
 0001:000375b6       ?Run@CProcessThread@@QAEKXZ 004385b6 f i exepacker.obj
 0001:000375d7       ?Run@CProcessThread_Console@@QAEKXZ 004385d7 f i exepacker.obj
 0001:000375f8       ?SetCurSel@?$CDialogTabImpl@VCDialogTabCtrl@@V?$CTabCtrlT@VCWindow@ATL@@@WTL@@V?$CWinTraits@$0FGAAAAAA@$0A@@ATL@@@@QAEHH@Z 004385f8 f i exepacker.obj
 0001:00037654       ?SetCurSel@?$CDlgContainerImpl@VCDlgContainerCtrl@@VCWindow@ATL@@V?$CWinTraits@$0FGAAAAAA@$0A@@3@@@QAEHH@Z 00438654 f i exepacker.obj
 0001:00037773       ?SetDWORDValue@CRegKey@ATL@@QAEJPB_WK@Z 00438773 f i exepacker.obj
 0001:0003778d       ?SetHyperLink@?$CHyperLinkImpl@VCHyperLink@WTL@@VCWindow@ATL@@V?$CWinTraits@$0FGAAAAAA@$0A@@4@@WTL@@QAE_NPB_W@Z 0043878d f i exepacker.obj
 0001:00037829       ?SetImageList@?$CTabCtrlT@VCWindow@ATL@@@WTL@@QAE?AV?$CImageListT@$0A@@2@PAU_IMAGELIST@@@Z 00438829 f i exepacker.obj
 0001:00037847       ?SetMultiStringValue@CRegKey@ATL@@QAEJPB_W0@Z 00438847 f i exepacker.obj
 0001:000378a0       ?SetStringValue@CRegKey@ATL@@QAEJPB_W0K@Z 004388a0 f i exepacker.obj
 0001:000378e8       ?SizeOf_TOOLINFO@RunTimeHelper@WTL@@YGHXZ 004388e8 f i exepacker.obj
 0001:00037903       ?SkipAssignment@CRegParser@ATL@@IAEJPA_W@Z 00438903 f i exepacker.obj
 0001:00037954       ?SkipWhiteSpace@CRegParser@ATL@@IAEXXZ 00438954 f i exepacker.obj
 0001:00037976       ?StartDialogProc@?$CDialogImplBaseT@VCWindow@ATL@@@ATL@@SGHPAUHWND__@@IIJ@Z 00438976 f i exepacker.obj
 0001:000379ca       ?StartTrackMouseLeave@?$CHyperLinkImpl@VCHyperLink@WTL@@VCWindow@ATL@@V?$CWinTraits@$0FGAAAAAA@$0A@@4@@WTL@@QAEHXZ 004389ca f i exepacker.obj
 0001:000379f4       ?StartWindowProc@?$CWindowImplBaseT@VCWindow@ATL@@V?$CWinTraits@$0FGAAAAAA@$0A@@2@@ATL@@SGJPAUHWND__@@IIJ@Z 004389f4 f i exepacker.obj
 0001:00037a48       ?StrChrW@CRegParser@ATL@@KGPA_WPA_W_W@Z 00438a48 f i exepacker.obj
 0001:00037a85       ?StrFromMap@CRegObject@ATL@@QAEPB_WPA_W@Z 00438a85 f i exepacker.obj
 0001:00037ab0       ?SubclassWindow@?$CDialogTabImpl@VCDialogTabCtrl@@V?$CTabCtrlT@VCWindow@ATL@@@WTL@@V?$CWinTraits@$0FGAAAAAA@$0A@@ATL@@@@QAEHPAUHWND__@@@Z 00438ab0 f i exepacker.obj
